(ipoplib
Population
p0
(dp1
S'modelfile'
p2
S'D:\\Docs\\EURACE\\X-models\\SVN\\eurace\\AFM\\afm_branches\\initial\\ewa_learning\\model-standalone.xml'
p3
sS'name'
p4
S'GA/EWA'
p5
sS'numregions'
p6
I1
sS'regions'
p7
(lp8
(ipoplib
PopRegion
p9
(dp10
S'regionid'
p11
I0
sS'model'
p12
(ipoplib
Model
p13
(dp14
S'info'
p15
(dp16
S'date'
p17
S''
p18
sg4
VFinancial Market Model - EWA learning module
p19
sS'domdic'
p20
(ipoplib
MultiDict
p21
(dp22
S'cs'
p23
I0
sS'dic'
p24
(dp25
Vxmodel
p26
(lp27
(ipoplib
MultiDict
p28
(dp29
g23
I0
sg24
(dp30
Venvironment
p31
(lp32
(ipoplib
MultiDict
p33
(dp34
g23
I0
sg24
(dp35
Vfunctionfiles
p36
(lp37
(ipoplib
MultiDict
p38
(dp39
g23
I0
sg24
(dp40
Vfile
p41
(lp42
VHousehold_ewa_functions.c
p43
aVFinancialAgent_ewa_functions.c
p44
aVFinancialAgent_aux_functions.c
p45
aVsome_new_functions.c
p46
assbasVtimeunits
p47
(lp48
(ipoplib
MultiDict
p49
(dp50
g23
I0
sg24
(dp51
Vtimeunit
p52
(lp53
(ipoplib
MultiDict
p54
(dp55
g23
I0
sg24
(dp56
Vname
p57
(lp58
Vdaily
p59
asVunit
p60
(lp61
Viteration
p62
asVperiod
p63
(lp64
V1
p65
assba(ipoplib
MultiDict
p66
(dp67
g23
I0
sg24
(dp68
Vname
p69
(lp70
Vweekly
p71
asVunit
p72
(lp73
Vdaily
p74
asVperiod
p75
(lp76
V5
p77
assba(ipoplib
MultiDict
p78
(dp79
g23
I0
sg24
(dp80
Vname
p81
(lp82
Vmonthly
p83
asVunit
p84
(lp85
Vweekly
p86
asVperiod
p87
(lp88
V4
p89
assba(ipoplib
MultiDict
p90
(dp91
g23
I0
sg24
(dp92
Vname
p93
(lp94
Vquarterly
p95
asVunit
p96
(lp97
Vmonthly
p98
asVperiod
p99
(lp100
V3
p101
assba(ipoplib
MultiDict
p102
(dp103
g23
I0
sg24
(dp104
Vname
p105
(lp106
Vyearly
p107
asVunit
p108
(lp109
Vmonthly
p110
asVperiod
p111
(lp112
V12
p113
assbassbasVdatatypes
p114
(lp115
(ipoplib
MultiDict
p116
(dp117
g23
I0
sg24
(dp118
Vdatatype
p119
(lp120
(ipoplib
MultiDict
p121
(dp122
g23
I0
sg24
(dp123
N(lp124
V***************************** Struct for the EWA Parameters *****************************
p125
asVvariables
p126
(lp127
(ipoplib
MultiDict
p128
(dp129
g23
I0
sg24
(dp130
Vvariable
p131
(lp132
(ipoplib
MultiDict
p133
(dp134
g23
I0
sg24
(dp135
Vtype
p136
(lp137
Vdouble
p138
asVname
p139
(lp140
VEWA_rho
p141
assba(ipoplib
MultiDict
p142
(dp143
g23
I0
sg24
(dp144
Vtype
p145
(lp146
Vdouble
p147
asVname
p148
(lp149
VEWA_phi
p150
assba(ipoplib
MultiDict
p151
(dp152
g23
I0
sg24
(dp153
Vtype
p154
(lp155
Vdouble
p156
asVname
p157
(lp158
VEWA_delta
p159
assba(ipoplib
MultiDict
p160
(dp161
g23
I0
sg24
(dp162
Vtype
p163
(lp164
Vdouble
p165
asVname
p166
(lp167
VEWA_beta
p168
assbassbasVname
p169
(lp170
VEWAParameterStruct
p171
asVdescription
p172
(lp173
VStruct for the EWA Parameters
p174
assba(ipoplib
MultiDict
p175
(dp176
g23
I0
sg24
(dp177
N(lp178
V***************************** Struct for the GA Parameters *****************************
p179
asVvariables
p180
(lp181
(ipoplib
MultiDict
p182
(dp183
g23
I0
sg24
(dp184
Vvariable
p185
(lp186
(ipoplib
MultiDict
p187
(dp188
g23
I0
sg24
(dp189
Vtype
p190
(lp191
Vdouble
p192
asVname
p193
(lp194
Vprob_cross
p195
asVdescription
p196
(lp197
VCrossover probability
p198
assba(ipoplib
MultiDict
p199
(dp200
g23
I0
sg24
(dp201
Vtype
p202
(lp203
Vdouble
p204
asVname
p205
(lp206
Vprob_mut
p207
asVdescription
p208
(lp209
VMutation probability
p210
assba(ipoplib
MultiDict
p211
(dp212
g23
I0
sg24
(dp213
Vtype
p214
(lp215
Vint
p216
asVname
p217
(lp218
Vstring_size
p219
assba(ipoplib
MultiDict
p220
(dp221
g23
I0
sg24
(dp222
Vtype
p223
(lp224
Vint
p225
asVname
p226
(lp227
Vpop_size
p228
asVdescription
p229
(lp230
VSize of the rule population
p231
assba(ipoplib
MultiDict
p232
(dp233
g23
I0
sg24
(dp234
Vtype
p235
(lp236
Vdouble
p237
asVname
p238
(lp239
Vreproduction_proportion
p240
asVdescription
p241
(lp242
VProportion of population that reproduces
p243
assba(ipoplib
MultiDict
p244
(dp245
g23
I0
sg24
(dp246
Vtype
p247
(lp248
Vint
p249
asVname
p250
(lp251
Vsingle_point_cross_over
p252
asVdescription
p253
(lp254
VDummy for single-point crossover operator (1: use single-point; 0: use 2-point cross-over)
p255
assba(ipoplib
MultiDict
p256
(dp257
g23
I0
sg24
(dp258
Vtype
p259
(lp260
Vint
p261
asVname
p262
(lp263
Velection
p264
asVdescription
p265
(lp266
VDummy for election operator
p267
assba(ipoplib
MultiDict
p268
(dp269
g23
I0
sg24
(dp270
Vtype
p271
(lp272
Vdouble
p273
asVname
p274
(lp275
Vstepsize[10]
p276
asVdescription
p277
(lp278
VMutation stepsize for each parameter
p279
assba(ipoplib
MultiDict
p280
(dp281
g23
I0
sg24
(dp282
Vtype
p283
(lp284
Vint
p285
asVname
p286
(lp287
Vdelta_min
p288
asVdescription
p289
(lp290
VLower bound on number of units to mutate inside the mutation range: delta_min can be negative or positive.
p291
assba(ipoplib
MultiDict
p292
(dp293
g23
I0
sg24
(dp294
Vtype
p295
(lp296
Vint
p297
asVname
p298
(lp299
Vdelta_max
p300
asVdescription
p301
(lp302
VUpper bound on number of units to mutate inside the mutation range: delta_max should be positive.
p303
assba(ipoplib
MultiDict
p304
(dp305
g23
I0
sg24
(dp306
Vtype
p307
(lp308
Vdouble
p309
asVname
p310
(lp311
Vmin_values[10]
p312
asVdescription
p313
(lp314
VMinimum values for each parameter
p315
assba(ipoplib
MultiDict
p316
(dp317
g23
I0
sg24
(dp318
Vtype
p319
(lp320
Vdouble
p321
asVname
p322
(lp323
Vmax_values[10]
p324
asVdescription
p325
(lp326
VMaximum values for each parameter
p327
assbassbasVname
p328
(lp329
VGAParameterStruct
p330
asVdescription
p331
(lp332
VStruct for the GA Parameters
p333
assba(ipoplib
MultiDict
p334
(dp335
g23
I0
sg24
(dp336
N(lp337
V***************************** Struct for the PublicClassifierRule *****************************
p338
asVvariables
p339
(lp340
(ipoplib
MultiDict
p341
(dp342
g23
I0
sg24
(dp343
Vvariable
p344
(lp345
(ipoplib
MultiDict
p346
(dp347
g23
I0
sg24
(dp348
Vtype
p349
(lp350
Vint
p351
asVname
p352
(lp353
Vid
p354
asVdescription
p355
(lp356
Vid for the rule
p357
assba(ipoplib
MultiDict
p358
(dp359
g23
I0
sg24
(dp360
Vtype
p361
(lp362
Vint
p363
asVname
p364
(lp365
Vcounter
p366
asVdescription
p367
(lp368
VUser counter for each rule
p369
assba(ipoplib
MultiDict
p370
(dp371
g23
I0
sg24
(dp372
Vtype
p373
(lp374
Vdouble
p375
asVname
p376
(lp377
Vperformance
p378
asVdescription
p379
(lp380
VTotal performance for each rule
p381
assba(ipoplib
MultiDict
p382
(dp383
g23
I0
sg24
(dp384
Vtype
p385
(lp386
Vdouble
p387
asVname
p388
(lp389
Vavg_performance
p390
asVdescription
p391
(lp392
VAverage performance for each rule (=total performance/counter)
p393
assba(ipoplib
MultiDict
p394
(dp395
g23
I0
sg24
(dp396
Vtype
p397
(lp398
Vdouble
p399
asVname
p400
(lp401
Vselection_prob
p402
asVdescription
p403
(lp404
VSelection probability for the rule
p405
assba(ipoplib
MultiDict
p406
(dp407
g23
I0
sg24
(dp408
Vtype
p409
(lp410
Vdouble
p411
asVname
p412
(lp413
Vparameters[10]
p414
asVdescription
p415
(lp416
VParameter values encoding the rule
p417
assbassbasVname
p418
(lp419
VPublicClassifierRule
p420
asVdescription
p421
(lp422
VDatatype for the central classifier system. The system is a dynamic array of PublicClassifierRules !Subject to change!
p423
assba(ipoplib
MultiDict
p424
(dp425
g23
I0
sg24
(dp426
N(lp427
V***************************** Struct for the Private Classifier Rule *****************************
p428
asVvariables
p429
(lp430
(ipoplib
MultiDict
p431
(dp432
g23
I0
sg24
(dp433
Vvariable
p434
(lp435
(ipoplib
MultiDict
p436
(dp437
g23
I0
sg24
(dp438
Vtype
p439
(lp440
Vint
p441
asVname
p442
(lp443
Vid
p444
asVdescription
p445
(lp446
Vid for each rule
p447
assba(ipoplib
MultiDict
p448
(dp449
g23
I0
sg24
(dp450
Vtype
p451
(lp452
Vdouble
p453
asVname
p454
(lp455
Vmy_performance
p456
asVdescription
p457
(lp458
VAgent performance with current_rule (0.0 if this rule is not currently used)
p459
assba(ipoplib
MultiDict
p460
(dp461
g23
I0
sg24
(dp462
Vtype
p463
(lp464
Vdouble
p465
asVname
p466
(lp467
Vavg_performance
p468
asVdescription
p469
(lp470
VAverage performance for this rule across population (copied from Central CS)
p471
assba(ipoplib
MultiDict
p472
(dp473
g23
I0
sg24
(dp474
Vtype
p475
(lp476
Vdouble
p477
asVname
p478
(lp479
Vattraction
p480
asVdescription
p481
(lp482
VAgent attractions
p483
assba(ipoplib
MultiDict
p484
(dp485
g23
I0
sg24
(dp486
Vtype
p487
(lp488
Vdouble
p489
asVname
p490
(lp491
Vchoiceprob
p492
asVdescription
p493
(lp494
VAgent choice probabilities
p495
assba(ipoplib
MultiDict
p496
(dp497
g23
I0
sg24
(dp498
Vtype
p499
(lp500
Vdouble
p501
asVname
p502
(lp503
Vparameters[10]
p504
asVdescription
p505
(lp506
VParameter values encoding the rule
p507
assbassbasVname
p508
(lp509
VPrivateClassifierRule
p510
asVdescription
p511
(lp512
VDatatype for the private classifier system inside each agent. The system is a dynamic array of PrivateClassifierRule.  !Subject to change!
p513
assba(ipoplib
MultiDict
p514
(dp515
g23
I0
sg24
(dp516
N(lp517
V***************************** Struct for the Simple Public Classifier System *****************************
p518
asVvariables
p519
(lp520
(ipoplib
MultiDict
p521
(dp522
g23
I0
sg24
(dp523
Vvariable
p524
(lp525
(ipoplib
MultiDict
p526
(dp527
g23
I0
sg24
(dp528
Vtype
p529
(lp530
Vint
p531
asVname
p532
(lp533
Vnr_rules
p534
asVdescription
p535
(lp536
VTotal number of rules in the rule set
p537
assba(ipoplib
MultiDict
p538
(dp539
g23
I0
sg24
(dp540
Vtype
p541
(lp542
VPublicClassifierRule
p543
asVname
p544
(lp545
Vruletable[100]
p546
asVdescription
p547
(lp548
VStatic array of 100 public classifier rules of homogeneous type
p549
assbassbasVname
p550
(lp551
VSimplePublicClassifierSystem
p552
asVdescription
p553
(lp554
VDatatype for the central classifier system. Simple version allows for rules of the same strategy type (all rules use the same function). !Subject to change!
p555
assba(ipoplib
MultiDict
p556
(dp557
g23
I0
sg24
(dp558
N(lp559
V***************************** Struct for the Simple Private Classifier System *****************************
p560
asVvariables
p561
(lp562
(ipoplib
MultiDict
p563
(dp564
g23
I0
sg24
(dp565
Vvariable
p566
(lp567
(ipoplib
MultiDict
p568
(dp569
g23
I0
sg24
(dp570
Vtype
p571
(lp572
Vint
p573
asVname
p574
(lp575
Vnr_rules
p576
asVdescription
p577
(lp578
VTotal number of rules in the rule set
p579
assba(ipoplib
MultiDict
p580
(dp581
g23
I0
sg24
(dp582
Vtype
p583
(lp584
Vdouble
p585
asVname
p586
(lp587
Vexperience
p588
asVdescription
p589
(lp590
VExperience variable for EWA learning
p591
assba(ipoplib
MultiDict
p592
(dp593
g23
I0
sg24
(dp594
Vtype
p595
(lp596
Vint
p597
asVname
p598
(lp599
Vcurrent_rule
p600
asVdescription
p601
(lp602
VCurrent rule in use by the agent
p603
assba(ipoplib
MultiDict
p604
(dp605
g23
I0
sg24
(dp606
Vtype
p607
(lp608
VPrivateClassifierRule
p609
asVname
p610
(lp611
Vruletable[100]
p612
asVdescription
p613
(lp614
VStatic array of 100 private classifier rules of homogeneous type
p615
assbassbasVname
p616
(lp617
VSimplePrivateClassifierSystem
p618
asVdescription
p619
(lp620
VDatatype for the private classifier system inside each agent. Simple version allows for rules of the same strategy type (all rules use the same function). !Subject to change!
p621
assba(ipoplib
MultiDict
p622
(dp623
g23
I0
sg24
(dp624
N(lp625
V***************************** Struct for the Complex Public Classifier System *****************************
p626
asVvariables
p627
(lp628
(ipoplib
MultiDict
p629
(dp630
g23
I0
sg24
(dp631
Vvariable
p632
(lp633
(ipoplib
MultiDict
p634
(dp635
g23
I0
sg24
(dp636
Vtype
p637
(lp638
Vint
p639
asVname
p640
(lp641
Vnr_types
p642
asVdescription
p643
(lp644
VNumber of subpopulations (different types of rules)
p645
assba(ipoplib
MultiDict
p646
(dp647
g23
I0
sg24
(dp648
Vtype
p649
(lp650
Vint_array
p651
asVname
p652
(lp653
Vnr_rules_per_type
p654
asVdescription
p655
(lp656
VNr_rules_per_type may differ per type: size of subpopulations
p657
assba(ipoplib
MultiDict
p658
(dp659
g23
I0
sg24
(dp660
Vtype
p661
(lp662
Vint
p663
asVname
p664
(lp665
Vnr_rules
p666
asVdescription
p667
(lp668
VTotal number of rules in the rule set
p669
assba(ipoplib
MultiDict
p670
(dp671
g23
I0
sg24
(dp672
Vtype
p673
(lp674
VPublicClassifierRule
p675
asVname
p676
(lp677
Vruletable[100]
p678
asVdescription
p679
(lp680
VStatic array of 100 public classifier rules of heterogenous type
p681
assbassbasVname
p682
(lp683
VComplexPublicClassifierSystem
p684
asVdescription
p685
(lp686
VDatatype for the central classifier system. This complex version allows for heterogeneous rule sets. !Subject to change!
p687
assbasN(lp688
V***************************** GA Datastructure *****************************
p689
assbasN(lp690
V***************************** EWA Datastructures *****************************
p691
asVconstants
p692
(lp693
(ipoplib
MultiDict
p694
(dp695
g23
I0
sg24
(dp696
Vvariable
p697
(lp698
(ipoplib
MultiDict
p699
(dp700
g23
I0
sg24
(dp701
Vtype
p702
(lp703
Vint
p704
asVname
p705
(lp706
Vnr_params
p707
asVdescription
p708
(lp709
V10, Number of parameters in a portfolio rule.
p710
assba(ipoplib
MultiDict
p711
(dp712
g23
I0
sg24
(dp713
Vtype
p714
(lp715
Vint
p716
asVname
p717
(lp718
Vprint_debug
p719
asVdescription
p720
(lp721
V0 or 1, Boolean for debugging print statements.
p722
assba(ipoplib
MultiDict
p723
(dp724
g23
I0
sg24
(dp725
Vtype
p726
(lp727
Vint
p728
asVname
p729
(lp730
Vprint_log
p731
asVdescription
p732
(lp733
V0 or 1, A flag to print logging output to terminal or to file.
p734
assbassbassbasVname
p735
(lp736
g19
asVmodels
p737
(lp738
(ipoplib
MultiDict
p739
(dp740
g23
I0
sg24
(dp741
sbasVmessages
p742
(lp743
(ipoplib
MultiDict
p744
(dp745
g23
I0
sg24
(dp746
Vmessage
p747
(lp748
(ipoplib
MultiDict
p749
(dp750
g23
I0
sg24
(dp751
Vvariables
p752
(lp753
(ipoplib
MultiDict
p754
(dp755
g23
I0
sg24
(dp756
Vvariable
p757
(lp758
(ipoplib
MultiDict
p759
(dp760
g23
I0
sg24
(dp761
Vtype
p762
(lp763
Vint
p764
asVname
p765
(lp766
Vrule_id
p767
assba(ipoplib
MultiDict
p768
(dp769
g23
I0
sg24
(dp770
Vtype
p771
(lp772
Vdouble
p773
asVname
p774
(lp775
Vrule_performance
p776
assbassbasVname
p777
(lp778
Vrule_performance
p779
assba(ipoplib
MultiDict
p780
(dp781
g23
I0
sg24
(dp782
Vvariables
p783
(lp784
(ipoplib
MultiDict
p785
(dp786
g23
I0
sg24
(dp787
Vvariable
p788
(lp789
(ipoplib
MultiDict
p790
(dp791
g23
I0
sg24
(dp792
Vtype
p793
(lp794
Vint
p795
asVname
p796
(lp797
Vrule_id
p798
assba(ipoplib
MultiDict
p799
(dp800
g23
I0
sg24
(dp801
Vtype
p802
(lp803
Vdouble
p804
asVname
p805
(lp806
Vavg_performance
p807
assbassbasVname
p808
(lp809
Vnew_performances
p810
assba(ipoplib
MultiDict
p811
(dp812
g23
I0
sg24
(dp813
Vvariables
p814
(lp815
(ipoplib
MultiDict
p816
(dp817
g23
I0
sg24
(dp818
Vvariable
p819
(lp820
(ipoplib
MultiDict
p821
(dp822
g23
I0
sg24
(dp823
Vtype
p824
(lp825
Vint
p826
asVname
p827
(lp828
Vrule_id
p829
assba(ipoplib
MultiDict
p830
(dp831
g23
I0
sg24
(dp832
Vtype
p833
(lp834
Vdouble
p835
asVname
p836
(lp837
Vparameters[10]
p838
assbassbasVname
p839
(lp840
Vinitial_rule_details
p841
assba(ipoplib
MultiDict
p842
(dp843
g23
I0
sg24
(dp844
Vvariables
p845
(lp846
(ipoplib
MultiDict
p847
(dp848
g23
I0
sg24
(dp849
Vvariable
p850
(lp851
(ipoplib
MultiDict
p852
(dp853
g23
I0
sg24
(dp854
Vtype
p855
(lp856
Vint
p857
asVname
p858
(lp859
Vrule_id
p860
assba(ipoplib
MultiDict
p861
(dp862
g23
I0
sg24
(dp863
Vtype
p864
(lp865
Vdouble
p866
asVname
p867
(lp868
Vparameters[10]
p869
assbassbasVname
p870
(lp871
Vrule_details
p872
assbassbasN(lp873
V************************* NOTES ***************************************
p874
aVThis is the main description file for EWA learning in the financial market model
p875
aVAgents involved: Household, FinancialAgent
p876
aV***************** Environment values and functions **********************
p877
asVversion
p878
(lp879
V3
p880
asVagents
p881
(lp882
(ipoplib
MultiDict
p883
(dp884
g23
I0
sg24
(dp885
N(lp886
V********************* X-machine Agent - Household ****************************
p887
aV*********************** End of Agent - Household *****************************
p888
aV********************* X-machine Agent - FinancialAgent ****************************
p889
aV*********************** End of Agent - FinancialAgent ****************************
p890
asVxagent
p891
(lp892
(ipoplib
MultiDict
p893
(dp894
g23
I0
sg24
(dp895
Vfunctions
p896
(lp897
(ipoplib
MultiDict
p898
(dp899
g23
I0
sg24
(dp900
N(lp901
VIdle bypassing the Initialization phase
p902
aVInitialization phase
p903
aVIdle bypassing the GA
p904
aVIdle bypassing the EWA
p905
asVfunction
p906
(lp907
(ipoplib
MultiDict
p908
(dp909
g23
I0
sg24
(dp910
Vnextstate
p911
(lp912
VStart_GA
p913
asVcondition
p914
(lp915
(ipoplib
MultiDict
p916
(dp917
g23
I0
sg24
(dp918
Vnot
p919
(lp920
(ipoplib
MultiDict
p921
(dp922
g23
I0
sg24
(dp923
Vtime
p924
(lp925
(ipoplib
MultiDict
p926
(dp927
g23
I0
sg24
(dp928
Vphase
p929
(lp930
V1
p931
asVperiod
p932
(lp933
Viteration
p934
assbassbassbasVname
p935
(lp936
Vidle
p937
asVcurrentstate
p938
(lp939
VStart_Household_EWA_Learning
p940
asVdescription
p941
(lp942
VIdle bypassing Initialization phase
p943
assba(ipoplib
MultiDict
p944
(dp945
g23
I0
sg24
(dp946
Vinputs
p947
(lp948
(ipoplib
MultiDict
p949
(dp950
g23
I0
sg24
(dp951
Vinput
p952
(lp953
(ipoplib
MultiDict
p954
(dp955
g23
I0
sg24
(dp956
Vmessagename
p957
(lp958
Vinitial_rule_details
p959
assbassbasVcondition
p960
(lp961
(ipoplib
MultiDict
p962
(dp963
g23
I0
sg24
(dp964
Vtime
p965
(lp966
(ipoplib
MultiDict
p967
(dp968
g23
I0
sg24
(dp969
Vphase
p970
(lp971
V1
p972
asVperiod
p973
(lp974
Viteration
p975
assbassbasVname
p976
(lp977
VHousehold_initialize_rule_details
p978
asVcurrentstate
p979
(lp980
VStart_Household_EWA_Learning
p981
asVnextstate
p982
(lp983
VStart_GA
p984
assba(ipoplib
MultiDict
p985
(dp986
g23
I0
sg24
(dp987
Vnextstate
p988
(lp989
VEnd_GA
p990
asVcondition
p991
(lp992
(ipoplib
MultiDict
p993
(dp994
g23
I0
sg24
(dp995
Vrhs
p996
(lp997
(ipoplib
MultiDict
p998
(dp999
g23
I0
sg24
(dp1000
Vtime
p1001
(lp1002
(ipoplib
MultiDict
p1003
(dp1004
g23
I0
sg24
(dp1005
Vphase
p1006
(lp1007
V1
p1008
asVperiod
p1009
(lp1010
Viteration
p1011
assbassbasVlhs
p1012
(lp1013
(ipoplib
MultiDict
p1014
(dp1015
g23
I0
sg24
(dp1016
Vnot
p1017
(lp1018
(ipoplib
MultiDict
p1019
(dp1020
g23
I0
sg24
(dp1021
Vtime
p1022
(lp1023
(ipoplib
MultiDict
p1024
(dp1025
g23
I0
sg24
(dp1026
Vphase
p1027
(lp1028
V1
p1029
asVperiod
p1030
(lp1031
Vyearly
p1032
assbassbassbasVop
p1033
(lp1034
VOR
p1035
assbasVname
p1036
(lp1037
Vidle
p1038
asVcurrentstate
p1039
(lp1040
VStart_GA
p1041
asVdescription
p1042
(lp1043
VIdle bypassing the GA
p1044
assba(ipoplib
MultiDict
p1045
(dp1046
g23
I0
sg24
(dp1047
Vcondition
p1048
(lp1049
(ipoplib
MultiDict
p1050
(dp1051
g23
I0
sg24
(dp1052
Vrhs
p1053
(lp1054
(ipoplib
MultiDict
p1055
(dp1056
g23
I0
sg24
(dp1057
Vnot
p1058
(lp1059
(ipoplib
MultiDict
p1060
(dp1061
g23
I0
sg24
(dp1062
Vtime
p1063
(lp1064
(ipoplib
MultiDict
p1065
(dp1066
g23
I0
sg24
(dp1067
Vphase
p1068
(lp1069
V1
p1070
asVperiod
p1071
(lp1072
Viteration
p1073
assbassbassbasVlhs
p1074
(lp1075
(ipoplib
MultiDict
p1076
(dp1077
g23
I0
sg24
(dp1078
Vtime
p1079
(lp1080
(ipoplib
MultiDict
p1081
(dp1082
g23
I0
sg24
(dp1083
Vphase
p1084
(lp1085
V1
p1086
asVperiod
p1087
(lp1088
Vyearly
p1089
assbassbasVop
p1090
(lp1091
VAND
p1092
assbasVname
p1093
(lp1094
VHousehold_print_private_classifiersystem
p1095
asVcurrentstate
p1096
(lp1097
VStart_GA
p1098
asVnextstate
p1099
(lp1100
V01
p1101
assba(ipoplib
MultiDict
p1102
(dp1103
g23
I0
sg24
(dp1104
Vname
p1105
(lp1106
VHousehold_reset_private_classifiersystem
p1107
asVcurrentstate
p1108
(lp1109
V01
p1110
asVnextstate
p1111
(lp1112
V02
p1113
assba(ipoplib
MultiDict
p1114
(dp1115
g23
I0
sg24
(dp1116
Vinputs
p1117
(lp1118
(ipoplib
MultiDict
p1119
(dp1120
g23
I0
sg24
(dp1121
Vinput
p1122
(lp1123
(ipoplib
MultiDict
p1124
(dp1125
g23
I0
sg24
(dp1126
Vmessagename
p1127
(lp1128
Vrule_details
p1129
assbassbasVname
p1130
(lp1131
VHousehold_read_and_update_rule_details
p1132
asVcurrentstate
p1133
(lp1134
V02
p1135
asVnextstate
p1136
(lp1137
VEnd_GA
p1138
assba(ipoplib
MultiDict
p1139
(dp1140
g23
I0
sg24
(dp1141
Vnextstate
p1142
(lp1143
VEnd_Household_EWA_Learning
p1144
asVcondition
p1145
(lp1146
(ipoplib
MultiDict
p1147
(dp1148
g23
I0
sg24
(dp1149
Vrhs
p1150
(lp1151
(ipoplib
MultiDict
p1152
(dp1153
g23
I0
sg24
(dp1154
Vtime
p1155
(lp1156
(ipoplib
MultiDict
p1157
(dp1158
g23
I0
sg24
(dp1159
Vphase
p1160
(lp1161
V1
p1162
asVperiod
p1163
(lp1164
Viteration
p1165
assbassbasVlhs
p1166
(lp1167
(ipoplib
MultiDict
p1168
(dp1169
g23
I0
sg24
(dp1170
Vnot
p1171
(lp1172
(ipoplib
MultiDict
p1173
(dp1174
g23
I0
sg24
(dp1175
Vtime
p1176
(lp1177
(ipoplib
MultiDict
p1178
(dp1179
g23
I0
sg24
(dp1180
Vphase
p1181
(lp1182
Va.day_of_month_to_act
p1183
asVperiod
p1184
(lp1185
Vmonthly
p1186
assbassbassbasVop
p1187
(lp1188
VOR
p1189
assbasVname
p1190
(lp1191
Vidle
p1192
asVcurrentstate
p1193
(lp1194
VEnd_GA
p1195
asVdescription
p1196
(lp1197
VIdle bypassing the EWA
p1198
assba(ipoplib
MultiDict
p1199
(dp1200
g23
I0
sg24
(dp1201
Voutputs
p1202
(lp1203
(ipoplib
MultiDict
p1204
(dp1205
g23
I0
sg24
(dp1206
Voutput
p1207
(lp1208
(ipoplib
MultiDict
p1209
(dp1210
g23
I0
sg24
(dp1211
Vmessagename
p1212
(lp1213
Vrule_performance
p1214
assbassbasVcondition
p1215
(lp1216
(ipoplib
MultiDict
p1217
(dp1218
g23
I0
sg24
(dp1219
Vrhs
p1220
(lp1221
(ipoplib
MultiDict
p1222
(dp1223
g23
I0
sg24
(dp1224
Vnot
p1225
(lp1226
(ipoplib
MultiDict
p1227
(dp1228
g23
I0
sg24
(dp1229
Vtime
p1230
(lp1231
(ipoplib
MultiDict
p1232
(dp1233
g23
I0
sg24
(dp1234
Vphase
p1235
(lp1236
V1
p1237
asVperiod
p1238
(lp1239
Viteration
p1240
assbassbassbasVlhs
p1241
(lp1242
(ipoplib
MultiDict
p1243
(dp1244
g23
I0
sg24
(dp1245
Vtime
p1246
(lp1247
(ipoplib
MultiDict
p1248
(dp1249
g23
I0
sg24
(dp1250
Vphase
p1251
(lp1252
Va.day_of_month_to_act
p1253
asVperiod
p1254
(lp1255
Vmonthly
p1256
assbassbasVop
p1257
(lp1258
VAND
p1259
assbasVname
p1260
(lp1261
VHousehold_send_rule_performance
p1262
asVcurrentstate
p1263
(lp1264
VEnd_GA
p1265
asVnextstate
p1266
(lp1267
V03
p1268
assba(ipoplib
MultiDict
p1269
(dp1270
g23
I0
sg24
(dp1271
Vinputs
p1272
(lp1273
(ipoplib
MultiDict
p1274
(dp1275
g23
I0
sg24
(dp1276
Vinput
p1277
(lp1278
(ipoplib
MultiDict
p1279
(dp1280
g23
I0
sg24
(dp1281
Vmessagename
p1282
(lp1283
Vnew_performances
p1284
assbassbasVname
p1285
(lp1286
VHousehold_read_all_performances
p1287
asVcurrentstate
p1288
(lp1289
V03
p1290
asVnextstate
p1291
(lp1292
V04
p1293
assba(ipoplib
MultiDict
p1294
(dp1295
g23
I0
sg24
(dp1296
Vname
p1297
(lp1298
VHousehold_select_rule
p1299
asVcurrentstate
p1300
(lp1301
V04
p1302
asVnextstate
p1303
(lp1304
VEnd_Household_EWA_Learning
p1305
assbassbasVname
p1306
(lp1307
VHousehold
p1308
asVmemory
p1309
(lp1310
(ipoplib
MultiDict
p1311
(dp1312
g23
I0
sg24
(dp1313
Vvariable
p1314
(lp1315
(ipoplib
MultiDict
p1316
(dp1317
g23
I0
sg24
(dp1318
Vtype
p1319
(lp1320
Vint
p1321
asVname
p1322
(lp1323
Vid
p1324
assba(ipoplib
MultiDict
p1325
(dp1326
g23
I0
sg24
(dp1327
Vtype
p1328
(lp1329
Vint
p1330
asVname
p1331
(lp1332
Vday_of_month_to_act
p1333
assba(ipoplib
MultiDict
p1334
(dp1335
g23
I0
sg24
(dp1336
Vtype
p1337
(lp1338
VEWAParameterStruct
p1339
asVname
p1340
(lp1341
VEWA_parameters
p1342
assba(ipoplib
MultiDict
p1343
(dp1344
g23
I0
sg24
(dp1345
Vtype
p1346
(lp1347
VSimplePrivateClassifierSystem
p1348
asVname
p1349
(lp1350
Vprivate_classifiersystem
p1351
assbassbassba(ipoplib
MultiDict
p1352
(dp1353
g23
I0
sg24
(dp1354
Vfunctions
p1355
(lp1356
(ipoplib
MultiDict
p1357
(dp1358
g23
I0
sg24
(dp1359
N(lp1360
VIdle bypassing the Initialization phase
p1361
aVInitialisation phase of FA
p1362
aVIdle bypassing the GA
p1363
asVfunction
p1364
(lp1365
(ipoplib
MultiDict
p1366
(dp1367
g23
I0
sg24
(dp1368
Vnextstate
p1369
(lp1370
VStart_GA
p1371
asVcondition
p1372
(lp1373
(ipoplib
MultiDict
p1374
(dp1375
g23
I0
sg24
(dp1376
Vnot
p1377
(lp1378
(ipoplib
MultiDict
p1379
(dp1380
g23
I0
sg24
(dp1381
Vtime
p1382
(lp1383
(ipoplib
MultiDict
p1384
(dp1385
g23
I0
sg24
(dp1386
Vphase
p1387
(lp1388
V1
p1389
asVperiod
p1390
(lp1391
Viteration
p1392
assbassbassbasVname
p1393
(lp1394
Vidle
p1395
asVcurrentstate
p1396
(lp1397
VStart_FinancialAgent
p1398
asVdescription
p1399
(lp1400
VIdle bypassing Initialization phase
p1401
assba(ipoplib
MultiDict
p1402
(dp1403
g23
I0
sg24
(dp1404
Voutput
p1405
(lp1406
(ipoplib
MultiDict
p1407
(dp1408
g23
I0
sg24
(dp1409
Vmessagename
p1410
(lp1411
Vinitial_rule_details
p1412
assbasVcondition
p1413
(lp1414
(ipoplib
MultiDict
p1415
(dp1416
g23
I0
sg24
(dp1417
Vtime
p1418
(lp1419
(ipoplib
MultiDict
p1420
(dp1421
g23
I0
sg24
(dp1422
Vphase
p1423
(lp1424
V1
p1425
asVperiod
p1426
(lp1427
Viteration
p1428
assbassbasVname
p1429
(lp1430
VFinancialAgent_initialize_rule_details
p1431
asVcurrentstate
p1432
(lp1433
VStart_FinancialAgent
p1434
asVnextstate
p1435
(lp1436
VStart_GA
p1437
assba(ipoplib
MultiDict
p1438
(dp1439
g23
I0
sg24
(dp1440
Vnextstate
p1441
(lp1442
VEnd_GA
p1443
asVcondition
p1444
(lp1445
(ipoplib
MultiDict
p1446
(dp1447
g23
I0
sg24
(dp1448
Vrhs
p1449
(lp1450
(ipoplib
MultiDict
p1451
(dp1452
g23
I0
sg24
(dp1453
Vtime
p1454
(lp1455
(ipoplib
MultiDict
p1456
(dp1457
g23
I0
sg24
(dp1458
Vphase
p1459
(lp1460
V1
p1461
asVperiod
p1462
(lp1463
Viteration
p1464
assbassbasVlhs
p1465
(lp1466
(ipoplib
MultiDict
p1467
(dp1468
g23
I0
sg24
(dp1469
Vnot
p1470
(lp1471
(ipoplib
MultiDict
p1472
(dp1473
g23
I0
sg24
(dp1474
Vtime
p1475
(lp1476
(ipoplib
MultiDict
p1477
(dp1478
g23
I0
sg24
(dp1479
Vphase
p1480
(lp1481
V1
p1482
asVperiod
p1483
(lp1484
Vyearly
p1485
assbassbassbasVop
p1486
(lp1487
VOR
p1488
assbasVname
p1489
(lp1490
Vidle
p1491
asVcurrentstate
p1492
(lp1493
VStart_GA
p1494
asVdescription
p1495
(lp1496
VIdle bypassing the GA
p1497
assba(ipoplib
MultiDict
p1498
(dp1499
g23
I0
sg24
(dp1500
Vcondition
p1501
(lp1502
(ipoplib
MultiDict
p1503
(dp1504
g23
I0
sg24
(dp1505
Vrhs
p1506
(lp1507
(ipoplib
MultiDict
p1508
(dp1509
g23
I0
sg24
(dp1510
Vnot
p1511
(lp1512
(ipoplib
MultiDict
p1513
(dp1514
g23
I0
sg24
(dp1515
Vtime
p1516
(lp1517
(ipoplib
MultiDict
p1518
(dp1519
g23
I0
sg24
(dp1520
Vphase
p1521
(lp1522
V1
p1523
asVperiod
p1524
(lp1525
Viteration
p1526
assbassbassbasVlhs
p1527
(lp1528
(ipoplib
MultiDict
p1529
(dp1530
g23
I0
sg24
(dp1531
Vtime
p1532
(lp1533
(ipoplib
MultiDict
p1534
(dp1535
g23
I0
sg24
(dp1536
Vphase
p1537
(lp1538
V1
p1539
asVperiod
p1540
(lp1541
Vyearly
p1542
assbassbasVop
p1543
(lp1544
VAND
p1545
assbasVname
p1546
(lp1547
VFinancialAgent_apply_GA
p1548
asVcurrentstate
p1549
(lp1550
VStart_GA
p1551
asVnextstate
p1552
(lp1553
V01
p1554
assba(ipoplib
MultiDict
p1555
(dp1556
g23
I0
sg24
(dp1557
Voutputs
p1558
(lp1559
(ipoplib
MultiDict
p1560
(dp1561
g23
I0
sg24
(dp1562
Voutput
p1563
(lp1564
(ipoplib
MultiDict
p1565
(dp1566
g23
I0
sg24
(dp1567
Vmessagename
p1568
(lp1569
Vrule_details
p1570
assbassbasVname
p1571
(lp1572
VFinancialAgent_send_rule_details
p1573
asVcurrentstate
p1574
(lp1575
V01
p1576
asVnextstate
p1577
(lp1578
V02
p1579
assba(ipoplib
MultiDict
p1580
(dp1581
g23
I0
sg24
(dp1582
Voutputs
p1583
(lp1584
(ipoplib
MultiDict
p1585
(dp1586
g23
I0
sg24
(dp1587
sbasVname
p1588
(lp1589
VFinancialAgent_print_public_classifiersystem
p1590
asVcurrentstate
p1591
(lp1592
V02
p1593
asVnextstate
p1594
(lp1595
V03
p1596
assba(ipoplib
MultiDict
p1597
(dp1598
g23
I0
sg24
(dp1599
Vnextstate
p1600
(lp1601
VEnd_GA
p1602
asVname
p1603
(lp1604
VFinancialAgent_reset_public_classifiersystem
p1605
asVcurrentstate
p1606
(lp1607
V03
p1608
asVdescription
p1609
(lp1610
VResetting user counter, performance sum, avg_performance
p1611
assba(ipoplib
MultiDict
p1612
(dp1613
g23
I0
sg24
(dp1614
Vinputs
p1615
(lp1616
(ipoplib
MultiDict
p1617
(dp1618
g23
I0
sg24
(dp1619
Vinput
p1620
(lp1621
(ipoplib
MultiDict
p1622
(dp1623
g23
I0
sg24
(dp1624
Vmessagename
p1625
(lp1626
Vrule_performance
p1627
assbassbasVname
p1628
(lp1629
VFinancialAgent_read_rule_performance_and_update_classifiersystem
p1630
asVcurrentstate
p1631
(lp1632
VEnd_GA
p1633
asVnextstate
p1634
(lp1635
V04
p1636
assba(ipoplib
MultiDict
p1637
(dp1638
g23
I0
sg24
(dp1639
Voutputs
p1640
(lp1641
(ipoplib
MultiDict
p1642
(dp1643
g23
I0
sg24
(dp1644
Voutput
p1645
(lp1646
(ipoplib
MultiDict
p1647
(dp1648
g23
I0
sg24
(dp1649
Vmessagename
p1650
(lp1651
Vnew_performances
p1652
assbassbasVname
p1653
(lp1654
VFinancialAgent_send_all_performances
p1655
asVcurrentstate
p1656
(lp1657
V04
p1658
asVnextstate
p1659
(lp1660
Vend_FinancialAgent
p1661
assbassbasVname
p1662
(lp1663
VFinancialAgent
p1664
asVmemory
p1665
(lp1666
(ipoplib
MultiDict
p1667
(dp1668
g23
I0
sg24
(dp1669
Vvariable
p1670
(lp1671
(ipoplib
MultiDict
p1672
(dp1673
g23
I0
sg24
(dp1674
Vtype
p1675
(lp1676
Vint
p1677
asVname
p1678
(lp1679
Vid
p1680
assba(ipoplib
MultiDict
p1681
(dp1682
g23
I0
sg24
(dp1683
Vtype
p1684
(lp1685
VSimplePublicClassifierSystem
p1686
asVname
p1687
(lp1688
Vpublic_classifiersystem
p1689
assba(ipoplib
MultiDict
p1690
(dp1691
g23
I0
sg24
(dp1692
Vtype
p1693
(lp1694
VGAParameterStruct
p1695
asVname
p1696
(lp1697
VGA_parameters
p1698
assba(ipoplib
MultiDict
p1699
(dp1700
g23
I0
sg24
(dp1701
Vtype
p1702
(lp1703
VEWAParameterStruct
p1704
asVname
p1705
(lp1706
VEWA_parameters
p1707
assbassbassbassbasVdescription
p1708
(lp1709
VAuthor: Sander van der Hoog, 01/06/2007, 05/03/2008, 22/05/2008, Converted from old XMML 1.0
p1710
assbassbsS'author'
p1711
g18
ssS'datatypes'
p1712
(lp1713
(ipoplib
DataType
p1714
(dp1715
S'varorder'
p1716
(lp1717
g141
ag150
ag159
ag168
asg4
g171
sS'vars'
p1718
(dp1719
g150
(dp1720
S'type'
p1721
g147
sS'desc'
p1722
S'no desc'
p1723
ssg168
(dp1724
g1721
g165
sg1722
g1723
ssg141
(dp1725
g1721
g138
sg1722
g1723
ssg159
(dp1726
g1721
g156
sg1722
g1723
sssg1722
g174
sba(ipoplib
DataType
p1727
(dp1728
g1716
(lp1729
g195
ag207
ag219
ag228
ag240
ag252
ag264
ag276
ag288
ag300
ag312
ag324
asg4
g330
sg1718
(dp1730
g288
(dp1731
g1721
g285
sg1722
g291
ssg195
(dp1732
g1721
g192
sg1722
g198
ssg276
(dp1733
g1721
g273
sg1722
g279
ssg324
(dp1734
g1721
g321
sg1722
g327
ssg252
(dp1735
g1721
g249
sg1722
g255
ssg207
(dp1736
g1721
g204
sg1722
g210
ssg300
(dp1737
g1721
g297
sg1722
g303
ssg219
(dp1738
g1721
g216
sg1722
g1723
ssg264
(dp1739
g1721
g261
sg1722
g267
ssg240
(dp1740
g1721
g237
sg1722
g243
ssg312
(dp1741
g1721
g309
sg1722
g315
ssg228
(dp1742
g1721
g225
sg1722
g231
sssg1722
g333
sba(ipoplib
DataType
p1743
(dp1744
g1716
(lp1745
g354
ag366
ag378
ag390
ag402
ag414
asg4
g420
sg1718
(dp1746
g402
(dp1747
g1721
g399
sg1722
g405
ssg366
(dp1748
g1721
g363
sg1722
g369
ssg414
(dp1749
g1721
g411
sg1722
g417
ssg390
(dp1750
g1721
g387
sg1722
g393
ssg378
(dp1751
g1721
g375
sg1722
g381
ssg354
(dp1752
g1721
g351
sg1722
g357
sssg1722
g423
sba(ipoplib
DataType
p1753
(dp1754
g1716
(lp1755
g444
ag456
ag468
ag480
ag492
ag504
asg4
g510
sg1718
(dp1756
g492
(dp1757
g1721
g489
sg1722
g495
ssg504
(dp1758
g1721
g501
sg1722
g507
ssg480
(dp1759
g1721
g477
sg1722
g483
ssg468
(dp1760
g1721
g465
sg1722
g471
ssg456
(dp1761
g1721
g453
sg1722
g459
ssg444
(dp1762
g1721
g441
sg1722
g447
sssg1722
g513
sba(ipoplib
DataType
p1763
(dp1764
g1716
(lp1765
g534
ag546
asg4
g552
sg1718
(dp1766
g534
(dp1767
g1721
g531
sg1722
g537
ssg546
(dp1768
g1721
g543
sg1722
g549
sssg1722
g555
sba(ipoplib
DataType
p1769
(dp1770
g1716
(lp1771
g576
ag588
ag600
ag612
asg4
g618
sg1718
(dp1772
g576
(dp1773
g1721
g573
sg1722
g579
ssg600
(dp1774
g1721
g597
sg1722
g603
ssg612
(dp1775
g1721
g609
sg1722
g615
ssg588
(dp1776
g1721
g585
sg1722
g591
sssg1722
g621
sba(ipoplib
DataType
p1777
(dp1778
g1716
(lp1779
g642
ag654
ag666
ag678
asg4
g684
sg1718
(dp1780
g666
(dp1781
g1721
g663
sg1722
g669
ssg654
(dp1782
g1721
g651
sg1722
g657
ssg678
(dp1783
g1721
g675
sg1722
g681
ssg642
(dp1784
g1721
g639
sg1722
g645
sssg1722
g687
sbasS'agents'
p1785
(lp1786
(ipoplib
Agent
p1787
(dp1788
S'memvarorder'
p1789
(lp1790
g1324
ag1333
ag1342
ag1351
asg4
g1308
sS'memvars'
p1791
(lp1792
(ipoplib
MemVar
p1793
(dp1794
S'isarray'
p1795
I0
sS'originaltype'
p1796
g1321
sg4
g1324
sS'parent'
p1797
NsS'agent'
p1798
g1787
sS'static'
p1799
I0
sS'initforms'
p1800
(dp1801
g1324
(ipoplib
BaseForm
p1802
(dp1803
S'vtype'
p1804
g18
sg1797
g1793
sS'form'
p1805
S'0'
p1806
sbssS'originalname'
p1807
g1324
sg12
g13
sg1721
g1321
sg1722
g1723
sba(ipoplib
MemVar
p1808
(dp1809
g1795
I0
sg1796
g1330
sg4
g1333
sg1797
Nsg1798
g1787
sg1799
I0
sg1800
(dp1810
g1333
(ipoplib
BaseForm
p1811
(dp1812
g1804
g1330
sg1797
g1808
sg1805
S'1'
p1813
sbssg1807
g1333
sg12
g13
sg1721
g1330
sg1722
g1723
sba(ipoplib
MemVar
p1814
(dp1815
g1795
I0
sg1796
g1339
sg4
g1342
sg1797
Nsg1798
g1787
sg1799
I0
sg1800
(dp1816
g150
(ipoplib
BaseForm
p1817
(dp1818
g1804
g147
sg1797
g1814
sg1805
S'0'
p1819
sbsg168
(ipoplib
BaseForm
p1820
(dp1821
g1804
g165
sg1797
g1814
sg1805
g1813
sbsg141
(ipoplib
BaseForm
p1822
(dp1823
g1804
g138
sg1797
g1814
sg1805
g1813
sbsg159
(ipoplib
BaseForm
p1824
(dp1825
g1804
g156
sg1797
g1814
sg1805
g1813
sbssg1807
g1342
sg12
g13
sg1721
g1339
sg1722
g1723
sba(ipoplib
MemVar
p1826
(dp1827
g1795
I0
sg1796
g1348
sg4
g1351
sg1797
Nsg1798
g1787
sg1799
I0
sg1800
(dp1828
g576
(ipoplib
BaseForm
p1829
(dp1830
g1804
g573
sg1797
g1826
sg1805
S'100'
p1831
sbsg600
(ipoplib
BaseForm
p1832
(dp1833
g1804
g597
sg1797
g1826
sg1805
S'rand(1,100)'
p1834
sbsg612
(ipoplib
MemVar
p1835
(dp1836
g1795
I1
sg1796
g609
sg4
Vruletable
p1837
sg1797
g1826
sg1798
g1787
sg1799
V100
p1838
sg1800
(dp1839
g480
(ipoplib
BaseForm
p1840
(dp1841
g1804
g477
sg1797
g1835
sg1805
S'0.0'
p1842
sbsg492
(ipoplib
BaseForm
p1843
(dp1844
g1804
g489
sg1797
g1835
sg1805
S'0.01'
p1845
sbsg456
(ipoplib
BaseForm
p1846
(dp1847
g1804
g453
sg1797
g1835
sg1805
S'0.0'
p1848
sbsS'array length'
p1849
(ipoplib
BaseFormStatic
p1850
(dp1851
g1804
g18
sg1797
g1835
sg1805
S'100'
p1852
sbsg468
(ipoplib
BaseForm
p1853
(dp1854
g1804
g465
sg1797
g1835
sg1805
S'0.0'
p1855
sbsg504
(ipoplib
MemVar
p1856
(dp1857
g1795
I1
sg1796
g501
sg4
Vparameters
p1858
sg1797
g1835
sg1798
g1787
sg1799
V10
p1859
sg1800
(dp1860
g1849
(ipoplib
BaseFormStatic
p1861
(dp1862
g1804
g18
sg1797
g1856
sg1805
g1819
sbsg1858
(ipoplib
BaseForm
p1863
(dp1864
g1804
g501
sg1797
g1856
sg1805
S'0.0'
p1865
sbssg1807
g504
sg12
g13
sg1721
g501
sg1722
S'no desc'
p1866
sbsg444
(ipoplib
BaseForm
p1867
(dp1868
g1804
g441
sg1797
g1835
sg1805
S'sequence(0,99,1)'
p1869
sbssg1807
g612
sg12
g13
sg1721
g609
sg1722
g1866
sbsg588
(ipoplib
BaseForm
p1870
(dp1871
g1804
g585
sg1797
g1826
sg1805
S'0.0'
p1872
sbssg1807
g1351
sg12
g13
sg1721
g1348
sg1722
g1723
sbasg1722
g1723
sba(ipoplib
Agent
p1873
(dp1874
g1789
(lp1875
g1680
ag1689
ag1698
ag1707
asg4
g1664
sg1791
(lp1876
(ipoplib
MemVar
p1877
(dp1878
g1795
I0
sg1796
g1677
sg4
g1680
sg1797
Nsg1798
g1873
sg1799
I0
sg1800
(dp1879
g1680
(ipoplib
BaseForm
p1880
(dp1881
g1804
g18
sg1797
g1877
sg1805
g1806
sbssg1807
g1680
sg12
g13
sg1721
g1677
sg1722
g1723
sba(ipoplib
MemVar
p1882
(dp1883
g1795
I0
sg1796
g1686
sg4
g1689
sg1797
Nsg1798
g1873
sg1799
I0
sg1800
(dp1884
g534
(ipoplib
BaseForm
p1885
(dp1886
g1804
g531
sg1797
g1882
sg1805
S'100'
p1887
sbsg546
(ipoplib
MemVar
p1888
(dp1889
g1795
I1
sg1796
g543
sg4
Vruletable
p1890
sg1797
g1882
sg1798
g1873
sg1799
V100
p1891
sg1800
(dp1892
g402
(ipoplib
BaseForm
p1893
(dp1894
g1804
g399
sg1797
g1888
sg1805
S'0.01'
p1895
sbsg366
(ipoplib
BaseForm
p1896
(dp1897
g1804
g363
sg1797
g1888
sg1805
g1819
sbsg414
(ipoplib
MemVar
p1898
(dp1899
g1795
I1
sg1796
g411
sg4
Vparameters
p1900
sg1797
g1888
sg1798
g1873
sg1799
V10
p1901
sg1800
(dp1902
g1849
(ipoplib
BaseFormStatic
p1903
(dp1904
g1804
g18
sg1797
g1898
sg1805
g1819
sbsg1900
(ipoplib
BaseForm
p1905
(dp1906
g1804
g411
sg1797
g1898
sg1805
S'0.0'
p1907
sbssg1807
g414
sg12
g13
sg1721
g411
sg1722
g1866
sbsg1849
(ipoplib
BaseFormStatic
p1908
(dp1909
g1804
g18
sg1797
g1888
sg1805
S'100'
p1910
sbsg390
(ipoplib
BaseForm
p1911
(dp1912
g1804
g387
sg1797
g1888
sg1805
S'0.0'
p1913
sbsg378
(ipoplib
BaseForm
p1914
(dp1915
g1804
g375
sg1797
g1888
sg1805
S'0.0'
p1916
sbsg354
(ipoplib
BaseForm
p1917
(dp1918
g1804
g351
sg1797
g1888
sg1805
S'sequence(0,99,1)'
p1919
sbssg1807
g546
sg12
g13
sg1721
g543
sg1722
g1866
sbssg1807
g1689
sg12
g13
sg1721
g1686
sg1722
g1723
sba(ipoplib
MemVar
p1920
(dp1921
g1795
I0
sg1796
g1695
sg4
g1698
sg1797
Nsg1798
g1873
sg1799
I0
sg1800
(dp1922
g288
(ipoplib
BaseForm
p1923
(dp1924
g1804
g285
sg1797
g1920
sg1805
S'-10'
p1925
sbsg195
(ipoplib
BaseForm
p1926
(dp1927
g1804
g192
sg1797
g1920
sg1805
S'1.00'
p1928
sbsg276
(ipoplib
MemVar
p1929
(dp1930
g1795
I1
sg1796
g273
sg4
Vstepsize
p1931
sg1797
g1920
sg1798
g1873
sg1799
V10
p1932
sg1800
(dp1933
g1849
(ipoplib
BaseFormStatic
p1934
(dp1935
g1804
g18
sg1797
g1929
sg1805
g1819
sbsg1931
(ipoplib
BaseForm
p1936
(dp1937
g1804
g273
sg1797
g1929
sg1805
S'0.01'
p1938
sbssg1807
g276
sg12
g13
sg1721
g273
sg1722
g1866
sbsg324
(ipoplib
MemVar
p1939
(dp1940
g1795
I1
sg1796
g321
sg4
Vmax_values
p1941
sg1797
g1920
sg1798
g1873
sg1799
V10
p1942
sg1800
(dp1943
g1849
(ipoplib
BaseFormStatic
p1944
(dp1945
g1804
g18
sg1797
g1939
sg1805
g1819
sbsg1941
(ipoplib
BaseForm
p1946
(dp1947
g1804
g321
sg1797
g1939
sg1805
S'10.0'
p1948
sbssg1807
g324
sg12
g13
sg1721
g321
sg1722
g1866
sbsg252
(ipoplib
BaseForm
p1949
(dp1950
g1804
g249
sg1797
g1920
sg1805
g1813
sbsg207
(ipoplib
BaseForm
p1951
(dp1952
g1804
g204
sg1797
g1920
sg1805
S'1.00'
p1953
sbsg300
(ipoplib
BaseForm
p1954
(dp1955
g1804
g297
sg1797
g1920
sg1805
S'10'
p1956
sbsg219
(ipoplib
BaseForm
p1957
(dp1958
g1804
g216
sg1797
g1920
sg1805
S'10'
p1959
sbsg264
(ipoplib
BaseForm
p1960
(dp1961
g1804
g261
sg1797
g1920
sg1805
g1819
sbsg240
(ipoplib
BaseForm
p1962
(dp1963
g1804
g237
sg1797
g1920
sg1805
S'0.25'
p1964
sbsg312
(ipoplib
MemVar
p1965
(dp1966
g1795
I1
sg1796
g309
sg4
Vmin_values
p1967
sg1797
g1920
sg1798
g1873
sg1799
V10
p1968
sg1800
(dp1969
g1849
(ipoplib
BaseFormStatic
p1970
(dp1971
g1804
g18
sg1797
g1965
sg1805
g1819
sbsg1967
(ipoplib
BaseForm
p1972
(dp1973
g1804
g309
sg1797
g1965
sg1805
S'0.0'
p1974
sbssg1807
g312
sg12
g13
sg1721
g309
sg1722
g1866
sbsg228
(ipoplib
BaseForm
p1975
(dp1976
g1804
g225
sg1797
g1920
sg1805
S'100'
p1977
sbssg1807
g1698
sg12
g13
sg1721
g1695
sg1722
g1723
sba(ipoplib
MemVar
p1978
(dp1979
g1795
I0
sg1796
g1704
sg4
g1707
sg1797
Nsg1798
g1873
sg1799
I0
sg1800
(dp1980
g150
(ipoplib
BaseForm
p1981
(dp1982
g1804
g147
sg1797
g1978
sg1805
g1819
sbsg168
(ipoplib
BaseForm
p1983
(dp1984
g1804
g165
sg1797
g1978
sg1805
g1813
sbsg141
(ipoplib
BaseForm
p1985
(dp1986
g1804
g138
sg1797
g1978
sg1805
g1819
sbsg159
(ipoplib
BaseForm
p1987
(dp1988
g1804
g156
sg1797
g1978
sg1805
g1819
sbssg1807
g1707
sg12
g13
sg1721
g1704
sg1722
g1723
sbasg1722
g1723
sbasS'constants'
p1989
(lp1990
(ipoplib
Constant
p1991
(dp1992
S'value'
p1993
g1819
sg4
g707
sS'ctype'
p1994
g704
sg1722
g710
sba(ipoplib
Constant
p1995
(dp1996
g1993
g1819
sg4
g719
sg1994
g716
sg1722
g722
sba(ipoplib
Constant
p1997
(dp1998
g1993
g1819
sg4
g731
sg1994
g728
sg1722
g734
sbasbsS'numAgents'
p1999
(dp2000
VHousehold
p2001
I2
sVFinancialAgent
p2002
I1
ssS'pop'
p2003
(lp2004
(ipoplib
AgentInstance
p2005
(dp2006
S'instantiated'
p2007
I1
sg12
g13
sS'values'
p2008
(dp2009
g1351
(lp2010
I100
aF0.0
aI32
a(lp2011
(lp2012
I0
aF0.0
aF0.0
aF0.0
aF0.01
a(lp2013
F0.0
aF0.0
aF0.0
aF0.0
aF0.0
aF0.0
aF0.0
aF0.0
aF0.0
aF0.0
aaa(lp2014
I1
aF0.0
aF0.0
aF0.0
aF0.01
a(lp2015
F0.0
aF0.0
aF0.0
aF0.0
aF0.0
aF0.0
aF0.0
aF0.0
aF0.0
aF0.0
aaa(lp2016
I2
aF0.0
aF0.0
aF0.0
aF0.01
a(lp2017
F0.0
aF0.0
aF0.0
aF0.0
aF0.0
aF0.0
aF0.0
aF0.0
aF0.0
aF0.0
aaa(lp2018
I3
aF0.0
aF0.0
aF0.0
aF0.01
a(lp2019
F0.0
aF0.0
aF0.0
aF0.0
aF0.0
aF0.0
aF0.0
aF0.0
aF0.0
aF0.0
aaa(lp2020
I4
aF0.0
aF0.0
aF0.0
aF0.01
a(lp2021
F0.0
aF0.0
aF0.0
aF0.0
aF0.0
aF0.0
aF0.0
aF0.0
aF0.0
aF0.0
aaa(lp2022
I5
aF0.0
aF0.0
aF0.0
aF0.01
a(lp2023
F0.0
aF0.0
aF0.0
aF0.0
aF0.0
aF0.0
aF0.0
aF0.0
aF0.0
aF0.0
aaa(lp2024
I6
aF0.0
aF0.0
aF0.0
aF0.01
a(lp2025
F0.0
aF0.0
aF0.0
aF0.0
aF0.0
aF0.0
aF0.0
aF0.0
aF0.0
aF0.0
aaa(lp2026
I7
aF0.0
aF0.0
aF0.0
aF0.01
a(lp2027
F0.0
aF0.0
aF0.0
aF0.0
aF0.0
aF0.0
aF0.0
aF0.0
aF0.0
aF0.0
aaa(lp2028
I8
aF0.0
aF0.0
aF0.0
aF0.01
a(lp2029
F0.0
aF0.0
aF0.0
aF0.0
aF0.0
aF0.0
aF0.0
aF0.0
aF0.0
aF0.0
aaa(lp2030
I9
aF0.0
aF0.0
aF0.0
aF0.01
a(lp2031
F0.0
aF0.0
aF0.0
aF0.0
aF0.0
aF0.0
aF0.0
aF0.0
aF0.0
aF0.0
aaa(lp2032
I10
aF0.0
aF0.0
aF0.0
aF0.01
a(lp2033
F0.0
aF0.0
aF0.0
aF0.0
aF0.0
aF0.0
aF0.0
aF0.0
aF0.0
aF0.0
aaa(lp2034
I11
aF0.0
aF0.0
aF0.0
aF0.01
a(lp2035
F0.0
aF0.0
aF0.0
aF0.0
aF0.0
aF0.0
aF0.0
aF0.0
aF0.0
aF0.0
aaa(lp2036
I12
aF0.0
aF0.0
aF0.0
aF0.01
a(lp2037
F0.0
aF0.0
aF0.0
aF0.0
aF0.0
aF0.0
aF0.0
aF0.0
aF0.0
aF0.0
aaa(lp2038
I13
aF0.0
aF0.0
aF0.0
aF0.01
a(lp2039
F0.0
aF0.0
aF0.0
aF0.0
aF0.0
aF0.0
aF0.0
aF0.0
aF0.0
aF0.0
aaa(lp2040
I14
aF0.0
aF0.0
aF0.0
aF0.01
a(lp2041
F0.0
aF0.0
aF0.0
aF0.0
aF0.0
aF0.0
aF0.0
aF0.0
aF0.0
aF0.0
aaa(lp2042
I15
aF0.0
aF0.0
aF0.0
aF0.01
a(lp2043
F0.0
aF0.0
aF0.0
aF0.0
aF0.0
aF0.0
aF0.0
aF0.0
aF0.0
aF0.0
aaa(lp2044
I16
aF0.0
aF0.0
aF0.0
aF0.01
a(lp2045
F0.0
aF0.0
aF0.0
aF0.0
aF0.0
aF0.0
aF0.0
aF0.0
aF0.0
aF0.0
aaa(lp2046
I17
aF0.0
aF0.0
aF0.0
aF0.01
a(lp2047
F0.0
aF0.0
aF0.0
aF0.0
aF0.0
aF0.0
aF0.0
aF0.0
aF0.0
aF0.0
aaa(lp2048
I18
aF0.0
aF0.0
aF0.0
aF0.01
a(lp2049
F0.0
aF0.0
aF0.0
aF0.0
aF0.0
aF0.0
aF0.0
aF0.0
aF0.0
aF0.0
aaa(lp2050
I19
aF0.0
aF0.0
aF0.0
aF0.01
a(lp2051
F0.0
aF0.0
aF0.0
aF0.0
aF0.0
aF0.0
aF0.0
aF0.0
aF0.0
aF0.0
aaa(lp2052
I20
aF0.0
aF0.0
aF0.0
aF0.01
a(lp2053
F0.0
aF0.0
aF0.0
aF0.0
aF0.0
aF0.0
aF0.0
aF0.0
aF0.0
aF0.0
aaa(lp2054
I21
aF0.0
aF0.0
aF0.0
aF0.01
a(lp2055
F0.0
aF0.0
aF0.0
aF0.0
aF0.0
aF0.0
aF0.0
aF0.0
aF0.0
aF0.0
aaa(lp2056
I22
aF0.0
aF0.0
aF0.0
aF0.01
a(lp2057
F0.0
aF0.0
aF0.0
aF0.0
aF0.0
aF0.0
aF0.0
aF0.0
aF0.0
aF0.0
aaa(lp2058
I23
aF0.0
aF0.0
aF0.0
aF0.01
a(lp2059
F0.0
aF0.0
aF0.0
aF0.0
aF0.0
aF0.0
aF0.0
aF0.0
aF0.0
aF0.0
aaa(lp2060
I24
aF0.0
aF0.0
aF0.0
aF0.01
a(lp2061
F0.0
aF0.0
aF0.0
aF0.0
aF0.0
aF0.0
aF0.0
aF0.0
aF0.0
aF0.0
aaa(lp2062
I25
aF0.0
aF0.0
aF0.0
aF0.01
a(lp2063
F0.0
aF0.0
aF0.0
aF0.0
aF0.0
aF0.0
aF0.0
aF0.0
aF0.0
aF0.0
aaa(lp2064
I26
aF0.0
aF0.0
aF0.0
aF0.01
a(lp2065
F0.0
aF0.0
aF0.0
aF0.0
aF0.0
aF0.0
aF0.0
aF0.0
aF0.0
aF0.0
aaa(lp2066
I27
aF0.0
aF0.0
aF0.0
aF0.01
a(lp2067
F0.0
aF0.0
aF0.0
aF0.0
aF0.0
aF0.0
aF0.0
aF0.0
aF0.0
aF0.0
aaa(lp2068
I28
aF0.0
aF0.0
aF0.0
aF0.01
a(lp2069
F0.0
aF0.0
aF0.0
aF0.0
aF0.0
aF0.0
aF0.0
aF0.0
aF0.0
aF0.0
aaa(lp2070
I29
aF0.0
aF0.0
aF0.0
aF0.01
a(lp2071
F0.0
aF0.0
aF0.0
aF0.0
aF0.0
aF0.0
aF0.0
aF0.0
aF0.0
aF0.0
aaa(lp2072
I30
aF0.0
aF0.0
aF0.0
aF0.01
a(lp2073
F0.0
aF0.0
aF0.0
aF0.0
aF0.0
aF0.0
aF0.0
aF0.0
aF0.0
aF0.0
aaa(lp2074
I31
aF0.0
aF0.0
aF0.0
aF0.01
a(lp2075
F0.0
aF0.0
aF0.0
aF0.0
aF0.0
aF0.0
aF0.0
aF0.0
aF0.0
aF0.0
aaa(lp2076
I32
aF0.0
aF0.0
aF0.0
aF0.01
a(lp2077
F0.0
aF0.0
aF0.0
aF0.0
aF0.0
aF0.0
aF0.0
aF0.0
aF0.0
aF0.0
aaa(lp2078
I33
aF0.0
aF0.0
aF0.0
aF0.01
a(lp2079
F0.0
aF0.0
aF0.0
aF0.0
aF0.0
aF0.0
aF0.0
aF0.0
aF0.0
aF0.0
aaa(lp2080
I34
aF0.0
aF0.0
aF0.0
aF0.01
a(lp2081
F0.0
aF0.0
aF0.0
aF0.0
aF0.0
aF0.0
aF0.0
aF0.0
aF0.0
aF0.0
aaa(lp2082
I35
aF0.0
aF0.0
aF0.0
aF0.01
a(lp2083
F0.0
aF0.0
aF0.0
aF0.0
aF0.0
aF0.0
aF0.0
aF0.0
aF0.0
aF0.0
aaa(lp2084
I36
aF0.0
aF0.0
aF0.0
aF0.01
a(lp2085
F0.0
aF0.0
aF0.0
aF0.0
aF0.0
aF0.0
aF0.0
aF0.0
aF0.0
aF0.0
aaa(lp2086
I37
aF0.0
aF0.0
aF0.0
aF0.01
a(lp2087
F0.0
aF0.0
aF0.0
aF0.0
aF0.0
aF0.0
aF0.0
aF0.0
aF0.0
aF0.0
aaa(lp2088
I38
aF0.0
aF0.0
aF0.0
aF0.01
a(lp2089
F0.0
aF0.0
aF0.0
aF0.0
aF0.0
aF0.0
aF0.0
aF0.0
aF0.0
aF0.0
aaa(lp2090
I39
aF0.0
aF0.0
aF0.0
aF0.01
a(lp2091
F0.0
aF0.0
aF0.0
aF0.0
aF0.0
aF0.0
aF0.0
aF0.0
aF0.0
aF0.0
aaa(lp2092
I40
aF0.0
aF0.0
aF0.0
aF0.01
a(lp2093
F0.0
aF0.0
aF0.0
aF0.0
aF0.0
aF0.0
aF0.0
aF0.0
aF0.0
aF0.0
aaa(lp2094
I41
aF0.0
aF0.0
aF0.0
aF0.01
a(lp2095
F0.0
aF0.0
aF0.0
aF0.0
aF0.0
aF0.0
aF0.0
aF0.0
aF0.0
aF0.0
aaa(lp2096
I42
aF0.0
aF0.0
aF0.0
aF0.01
a(lp2097
F0.0
aF0.0
aF0.0
aF0.0
aF0.0
aF0.0
aF0.0
aF0.0
aF0.0
aF0.0
aaa(lp2098
I43
aF0.0
aF0.0
aF0.0
aF0.01
a(lp2099
F0.0
aF0.0
aF0.0
aF0.0
aF0.0
aF0.0
aF0.0
aF0.0
aF0.0
aF0.0
aaa(lp2100
I44
aF0.0
aF0.0
aF0.0
aF0.01
a(lp2101
F0.0
aF0.0
aF0.0
aF0.0
aF0.0
aF0.0
aF0.0
aF0.0
aF0.0
aF0.0
aaa(lp2102
I45
aF0.0
aF0.0
aF0.0
aF0.01
a(lp2103
F0.0
aF0.0
aF0.0
aF0.0
aF0.0
aF0.0
aF0.0
aF0.0
aF0.0
aF0.0
aaa(lp2104
I46
aF0.0
aF0.0
aF0.0
aF0.01
a(lp2105
F0.0
aF0.0
aF0.0
aF0.0
aF0.0
aF0.0
aF0.0
aF0.0
aF0.0
aF0.0
aaa(lp2106
I47
aF0.0
aF0.0
aF0.0
aF0.01
a(lp2107
F0.0
aF0.0
aF0.0
aF0.0
aF0.0
aF0.0
aF0.0
aF0.0
aF0.0
aF0.0
aaa(lp2108
I48
aF0.0
aF0.0
aF0.0
aF0.01
a(lp2109
F0.0
aF0.0
aF0.0
aF0.0
aF0.0
aF0.0
aF0.0
aF0.0
aF0.0
aF0.0
aaa(lp2110
I49
aF0.0
aF0.0
aF0.0
aF0.01
a(lp2111
F0.0
aF0.0
aF0.0
aF0.0
aF0.0
aF0.0
aF0.0
aF0.0
aF0.0
aF0.0
aaa(lp2112
I50
aF0.0
aF0.0
aF0.0
aF0.01
a(lp2113
F0.0
aF0.0
aF0.0
aF0.0
aF0.0
aF0.0
aF0.0
aF0.0
aF0.0
aF0.0
aaa(lp2114
I51
aF0.0
aF0.0
aF0.0
aF0.01
a(lp2115
F0.0
aF0.0
aF0.0
aF0.0
aF0.0
aF0.0
aF0.0
aF0.0
aF0.0
aF0.0
aaa(lp2116
I52
aF0.0
aF0.0
aF0.0
aF0.01
a(lp2117
F0.0
aF0.0
aF0.0
aF0.0
aF0.0
aF0.0
aF0.0
aF0.0
aF0.0
aF0.0
aaa(lp2118
I53
aF0.0
aF0.0
aF0.0
aF0.01
a(lp2119
F0.0
aF0.0
aF0.0
aF0.0
aF0.0
aF0.0
aF0.0
aF0.0
aF0.0
aF0.0
aaa(lp2120
I54
aF0.0
aF0.0
aF0.0
aF0.01
a(lp2121
F0.0
aF0.0
aF0.0
aF0.0
aF0.0
aF0.0
aF0.0
aF0.0
aF0.0
aF0.0
aaa(lp2122
I55
aF0.0
aF0.0
aF0.0
aF0.01
a(lp2123
F0.0
aF0.0
aF0.0
aF0.0
aF0.0
aF0.0
aF0.0
aF0.0
aF0.0
aF0.0
aaa(lp2124
I56
aF0.0
aF0.0
aF0.0
aF0.01
a(lp2125
F0.0
aF0.0
aF0.0
aF0.0
aF0.0
aF0.0
aF0.0
aF0.0
aF0.0
aF0.0
aaa(lp2126
I57
aF0.0
aF0.0
aF0.0
aF0.01
a(lp2127
F0.0
aF0.0
aF0.0
aF0.0
aF0.0
aF0.0
aF0.0
aF0.0
aF0.0
aF0.0
aaa(lp2128
I58
aF0.0
aF0.0
aF0.0
aF0.01
a(lp2129
F0.0
aF0.0
aF0.0
aF0.0
aF0.0
aF0.0
aF0.0
aF0.0
aF0.0
aF0.0
aaa(lp2130
I59
aF0.0
aF0.0
aF0.0
aF0.01
a(lp2131
F0.0
aF0.0
aF0.0
aF0.0
aF0.0
aF0.0
aF0.0
aF0.0
aF0.0
aF0.0
aaa(lp2132
I60
aF0.0
aF0.0
aF0.0
aF0.01
a(lp2133
F0.0
aF0.0
aF0.0
aF0.0
aF0.0
aF0.0
aF0.0
aF0.0
aF0.0
aF0.0
aaa(lp2134
I61
aF0.0
aF0.0
aF0.0
aF0.01
a(lp2135
F0.0
aF0.0
aF0.0
aF0.0
aF0.0
aF0.0
aF0.0
aF0.0
aF0.0
aF0.0
aaa(lp2136
I62
aF0.0
aF0.0
aF0.0
aF0.01
a(lp2137
F0.0
aF0.0
aF0.0
aF0.0
aF0.0
aF0.0
aF0.0
aF0.0
aF0.0
aF0.0
aaa(lp2138
I63
aF0.0
aF0.0
aF0.0
aF0.01
a(lp2139
F0.0
aF0.0
aF0.0
aF0.0
aF0.0
aF0.0
aF0.0
aF0.0
aF0.0
aF0.0
aaa(lp2140
I64
aF0.0
aF0.0
aF0.0
aF0.01
a(lp2141
F0.0
aF0.0
aF0.0
aF0.0
aF0.0
aF0.0
aF0.0
aF0.0
aF0.0
aF0.0
aaa(lp2142
I65
aF0.0
aF0.0
aF0.0
aF0.01
a(lp2143
F0.0
aF0.0
aF0.0
aF0.0
aF0.0
aF0.0
aF0.0
aF0.0
aF0.0
aF0.0
aaa(lp2144
I66
aF0.0
aF0.0
aF0.0
aF0.01
a(lp2145
F0.0
aF0.0
aF0.0
aF0.0
aF0.0
aF0.0
aF0.0
aF0.0
aF0.0
aF0.0
aaa(lp2146
I67
aF0.0
aF0.0
aF0.0
aF0.01
a(lp2147
F0.0
aF0.0
aF0.0
aF0.0
aF0.0
aF0.0
aF0.0
aF0.0
aF0.0
aF0.0
aaa(lp2148
I68
aF0.0
aF0.0
aF0.0
aF0.01
a(lp2149
F0.0
aF0.0
aF0.0
aF0.0
aF0.0
aF0.0
aF0.0
aF0.0
aF0.0
aF0.0
aaa(lp2150
I69
aF0.0
aF0.0
aF0.0
aF0.01
a(lp2151
F0.0
aF0.0
aF0.0
aF0.0
aF0.0
aF0.0
aF0.0
aF0.0
aF0.0
aF0.0
aaa(lp2152
I70
aF0.0
aF0.0
aF0.0
aF0.01
a(lp2153
F0.0
aF0.0
aF0.0
aF0.0
aF0.0
aF0.0
aF0.0
aF0.0
aF0.0
aF0.0
aaa(lp2154
I71
aF0.0
aF0.0
aF0.0
aF0.01
a(lp2155
F0.0
aF0.0
aF0.0
aF0.0
aF0.0
aF0.0
aF0.0
aF0.0
aF0.0
aF0.0
aaa(lp2156
I72
aF0.0
aF0.0
aF0.0
aF0.01
a(lp2157
F0.0
aF0.0
aF0.0
aF0.0
aF0.0
aF0.0
aF0.0
aF0.0
aF0.0
aF0.0
aaa(lp2158
I73
aF0.0
aF0.0
aF0.0
aF0.01
a(lp2159
F0.0
aF0.0
aF0.0
aF0.0
aF0.0
aF0.0
aF0.0
aF0.0
aF0.0
aF0.0
aaa(lp2160
I74
aF0.0
aF0.0
aF0.0
aF0.01
a(lp2161
F0.0
aF0.0
aF0.0
aF0.0
aF0.0
aF0.0
aF0.0
aF0.0
aF0.0
aF0.0
aaa(lp2162
I75
aF0.0
aF0.0
aF0.0
aF0.01
a(lp2163
F0.0
aF0.0
aF0.0
aF0.0
aF0.0
aF0.0
aF0.0
aF0.0
aF0.0
aF0.0
aaa(lp2164
I76
aF0.0
aF0.0
aF0.0
aF0.01
a(lp2165
F0.0
aF0.0
aF0.0
aF0.0
aF0.0
aF0.0
aF0.0
aF0.0
aF0.0
aF0.0
aaa(lp2166
I77
aF0.0
aF0.0
aF0.0
aF0.01
a(lp2167
F0.0
aF0.0
aF0.0
aF0.0
aF0.0
aF0.0
aF0.0
aF0.0
aF0.0
aF0.0
aaa(lp2168
I78
aF0.0
aF0.0
aF0.0
aF0.01
a(lp2169
F0.0
aF0.0
aF0.0
aF0.0
aF0.0
aF0.0
aF0.0
aF0.0
aF0.0
aF0.0
aaa(lp2170
I79
aF0.0
aF0.0
aF0.0
aF0.01
a(lp2171
F0.0
aF0.0
aF0.0
aF0.0
aF0.0
aF0.0
aF0.0
aF0.0
aF0.0
aF0.0
aaa(lp2172
I80
aF0.0
aF0.0
aF0.0
aF0.01
a(lp2173
F0.0
aF0.0
aF0.0
aF0.0
aF0.0
aF0.0
aF0.0
aF0.0
aF0.0
aF0.0
aaa(lp2174
I81
aF0.0
aF0.0
aF0.0
aF0.01
a(lp2175
F0.0
aF0.0
aF0.0
aF0.0
aF0.0
aF0.0
aF0.0
aF0.0
aF0.0
aF0.0
aaa(lp2176
I82
aF0.0
aF0.0
aF0.0
aF0.01
a(lp2177
F0.0
aF0.0
aF0.0
aF0.0
aF0.0
aF0.0
aF0.0
aF0.0
aF0.0
aF0.0
aaa(lp2178
I83
aF0.0
aF0.0
aF0.0
aF0.01
a(lp2179
F0.0
aF0.0
aF0.0
aF0.0
aF0.0
aF0.0
aF0.0
aF0.0
aF0.0
aF0.0
aaa(lp2180
I84
aF0.0
aF0.0
aF0.0
aF0.01
a(lp2181
F0.0
aF0.0
aF0.0
aF0.0
aF0.0
aF0.0
aF0.0
aF0.0
aF0.0
aF0.0
aaa(lp2182
I85
aF0.0
aF0.0
aF0.0
aF0.01
a(lp2183
F0.0
aF0.0
aF0.0
aF0.0
aF0.0
aF0.0
aF0.0
aF0.0
aF0.0
aF0.0
aaa(lp2184
I86
aF0.0
aF0.0
aF0.0
aF0.01
a(lp2185
F0.0
aF0.0
aF0.0
aF0.0
aF0.0
aF0.0
aF0.0
aF0.0
aF0.0
aF0.0
aaa(lp2186
I87
aF0.0
aF0.0
aF0.0
aF0.01
a(lp2187
F0.0
aF0.0
aF0.0
aF0.0
aF0.0
aF0.0
aF0.0
aF0.0
aF0.0
aF0.0
aaa(lp2188
I88
aF0.0
aF0.0
aF0.0
aF0.01
a(lp2189
F0.0
aF0.0
aF0.0
aF0.0
aF0.0
aF0.0
aF0.0
aF0.0
aF0.0
aF0.0
aaa(lp2190
I89
aF0.0
aF0.0
aF0.0
aF0.01
a(lp2191
F0.0
aF0.0
aF0.0
aF0.0
aF0.0
aF0.0
aF0.0
aF0.0
aF0.0
aF0.0
aaa(lp2192
I90
aF0.0
aF0.0
aF0.0
aF0.01
a(lp2193
F0.0
aF0.0
aF0.0
aF0.0
aF0.0
aF0.0
aF0.0
aF0.0
aF0.0
aF0.0
aaa(lp2194
I91
aF0.0
aF0.0
aF0.0
aF0.01
a(lp2195
F0.0
aF0.0
aF0.0
aF0.0
aF0.0
aF0.0
aF0.0
aF0.0
aF0.0
aF0.0
aaa(lp2196
I92
aF0.0
aF0.0
aF0.0
aF0.01
a(lp2197
F0.0
aF0.0
aF0.0
aF0.0
aF0.0
aF0.0
aF0.0
aF0.0
aF0.0
aF0.0
aaa(lp2198
I93
aF0.0
aF0.0
aF0.0
aF0.01
a(lp2199
F0.0
aF0.0
aF0.0
aF0.0
aF0.0
aF0.0
aF0.0
aF0.0
aF0.0
aF0.0
aaa(lp2200
I94
aF0.0
aF0.0
aF0.0
aF0.01
a(lp2201
F0.0
aF0.0
aF0.0
aF0.0
aF0.0
aF0.0
aF0.0
aF0.0
aF0.0
aF0.0
aaa(lp2202
I95
aF0.0
aF0.0
aF0.0
aF0.01
a(lp2203
F0.0
aF0.0
aF0.0
aF0.0
aF0.0
aF0.0
aF0.0
aF0.0
aF0.0
aF0.0
aaa(lp2204
I96
aF0.0
aF0.0
aF0.0
aF0.01
a(lp2205
F0.0
aF0.0
aF0.0
aF0.0
aF0.0
aF0.0
aF0.0
aF0.0
aF0.0
aF0.0
aaa(lp2206
I97
aF0.0
aF0.0
aF0.0
aF0.01
a(lp2207
F0.0
aF0.0
aF0.0
aF0.0
aF0.0
aF0.0
aF0.0
aF0.0
aF0.0
aF0.0
aaa(lp2208
I98
aF0.0
aF0.0
aF0.0
aF0.01
a(lp2209
F0.0
aF0.0
aF0.0
aF0.0
aF0.0
aF0.0
aF0.0
aF0.0
aF0.0
aF0.0
aaa(lp2210
I99
aF0.0
aF0.0
aF0.0
aF0.01
a(lp2211
F0.0
aF0.0
aF0.0
aF0.0
aF0.0
aF0.0
aF0.0
aF0.0
aF0.0
aF0.0
aaaasg1324
I1
sg1342
(lp2212
F1.0
aF0.0
aF1.0
aF1.0
asg1333
I1
ssS'agentname'
p2213
g2001
sba(ipoplib
AgentInstance
p2214
(dp2215
g2007
I1
sg12
g13
sg2008
(dp2216
g1351
(lp2217
I100
aF0.0
aI51
a(lp2218
(lp2219
I0
aF0.0
aF0.0
aF0.0
aF0.01
a(lp2220
F0.0
aF0.0
aF0.0
aF0.0
aF0.0
aF0.0
aF0.0
aF0.0
aF0.0
aF0.0
aaa(lp2221
I1
aF0.0
aF0.0
aF0.0
aF0.01
a(lp2222
F0.0
aF0.0
aF0.0
aF0.0
aF0.0
aF0.0
aF0.0
aF0.0
aF0.0
aF0.0
aaa(lp2223
I2
aF0.0
aF0.0
aF0.0
aF0.01
a(lp2224
F0.0
aF0.0
aF0.0
aF0.0
aF0.0
aF0.0
aF0.0
aF0.0
aF0.0
aF0.0
aaa(lp2225
I3
aF0.0
aF0.0
aF0.0
aF0.01
a(lp2226
F0.0
aF0.0
aF0.0
aF0.0
aF0.0
aF0.0
aF0.0
aF0.0
aF0.0
aF0.0
aaa(lp2227
I4
aF0.0
aF0.0
aF0.0
aF0.01
a(lp2228
F0.0
aF0.0
aF0.0
aF0.0
aF0.0
aF0.0
aF0.0
aF0.0
aF0.0
aF0.0
aaa(lp2229
I5
aF0.0
aF0.0
aF0.0
aF0.01
a(lp2230
F0.0
aF0.0
aF0.0
aF0.0
aF0.0
aF0.0
aF0.0
aF0.0
aF0.0
aF0.0
aaa(lp2231
I6
aF0.0
aF0.0
aF0.0
aF0.01
a(lp2232
F0.0
aF0.0
aF0.0
aF0.0
aF0.0
aF0.0
aF0.0
aF0.0
aF0.0
aF0.0
aaa(lp2233
I7
aF0.0
aF0.0
aF0.0
aF0.01
a(lp2234
F0.0
aF0.0
aF0.0
aF0.0
aF0.0
aF0.0
aF0.0
aF0.0
aF0.0
aF0.0
aaa(lp2235
I8
aF0.0
aF0.0
aF0.0
aF0.01
a(lp2236
F0.0
aF0.0
aF0.0
aF0.0
aF0.0
aF0.0
aF0.0
aF0.0
aF0.0
aF0.0
aaa(lp2237
I9
aF0.0
aF0.0
aF0.0
aF0.01
a(lp2238
F0.0
aF0.0
aF0.0
aF0.0
aF0.0
aF0.0
aF0.0
aF0.0
aF0.0
aF0.0
aaa(lp2239
I10
aF0.0
aF0.0
aF0.0
aF0.01
a(lp2240
F0.0
aF0.0
aF0.0
aF0.0
aF0.0
aF0.0
aF0.0
aF0.0
aF0.0
aF0.0
aaa(lp2241
I11
aF0.0
aF0.0
aF0.0
aF0.01
a(lp2242
F0.0
aF0.0
aF0.0
aF0.0
aF0.0
aF0.0
aF0.0
aF0.0
aF0.0
aF0.0
aaa(lp2243
I12
aF0.0
aF0.0
aF0.0
aF0.01
a(lp2244
F0.0
aF0.0
aF0.0
aF0.0
aF0.0
aF0.0
aF0.0
aF0.0
aF0.0
aF0.0
aaa(lp2245
I13
aF0.0
aF0.0
aF0.0
aF0.01
a(lp2246
F0.0
aF0.0
aF0.0
aF0.0
aF0.0
aF0.0
aF0.0
aF0.0
aF0.0
aF0.0
aaa(lp2247
I14
aF0.0
aF0.0
aF0.0
aF0.01
a(lp2248
F0.0
aF0.0
aF0.0
aF0.0
aF0.0
aF0.0
aF0.0
aF0.0
aF0.0
aF0.0
aaa(lp2249
I15
aF0.0
aF0.0
aF0.0
aF0.01
a(lp2250
F0.0
aF0.0
aF0.0
aF0.0
aF0.0
aF0.0
aF0.0
aF0.0
aF0.0
aF0.0
aaa(lp2251
I16
aF0.0
aF0.0
aF0.0
aF0.01
a(lp2252
F0.0
aF0.0
aF0.0
aF0.0
aF0.0
aF0.0
aF0.0
aF0.0
aF0.0
aF0.0
aaa(lp2253
I17
aF0.0
aF0.0
aF0.0
aF0.01
a(lp2254
F0.0
aF0.0
aF0.0
aF0.0
aF0.0
aF0.0
aF0.0
aF0.0
aF0.0
aF0.0
aaa(lp2255
I18
aF0.0
aF0.0
aF0.0
aF0.01
a(lp2256
F0.0
aF0.0
aF0.0
aF0.0
aF0.0
aF0.0
aF0.0
aF0.0
aF0.0
aF0.0
aaa(lp2257
I19
aF0.0
aF0.0
aF0.0
aF0.01
a(lp2258
F0.0
aF0.0
aF0.0
aF0.0
aF0.0
aF0.0
aF0.0
aF0.0
aF0.0
aF0.0
aaa(lp2259
I20
aF0.0
aF0.0
aF0.0
aF0.01
a(lp2260
F0.0
aF0.0
aF0.0
aF0.0
aF0.0
aF0.0
aF0.0
aF0.0
aF0.0
aF0.0
aaa(lp2261
I21
aF0.0
aF0.0
aF0.0
aF0.01
a(lp2262
F0.0
aF0.0
aF0.0
aF0.0
aF0.0
aF0.0
aF0.0
aF0.0
aF0.0
aF0.0
aaa(lp2263
I22
aF0.0
aF0.0
aF0.0
aF0.01
a(lp2264
F0.0
aF0.0
aF0.0
aF0.0
aF0.0
aF0.0
aF0.0
aF0.0
aF0.0
aF0.0
aaa(lp2265
I23
aF0.0
aF0.0
aF0.0
aF0.01
a(lp2266
F0.0
aF0.0
aF0.0
aF0.0
aF0.0
aF0.0
aF0.0
aF0.0
aF0.0
aF0.0
aaa(lp2267
I24
aF0.0
aF0.0
aF0.0
aF0.01
a(lp2268
F0.0
aF0.0
aF0.0
aF0.0
aF0.0
aF0.0
aF0.0
aF0.0
aF0.0
aF0.0
aaa(lp2269
I25
aF0.0
aF0.0
aF0.0
aF0.01
a(lp2270
F0.0
aF0.0
aF0.0
aF0.0
aF0.0
aF0.0
aF0.0
aF0.0
aF0.0
aF0.0
aaa(lp2271
I26
aF0.0
aF0.0
aF0.0
aF0.01
a(lp2272
F0.0
aF0.0
aF0.0
aF0.0
aF0.0
aF0.0
aF0.0
aF0.0
aF0.0
aF0.0
aaa(lp2273
I27
aF0.0
aF0.0
aF0.0
aF0.01
a(lp2274
F0.0
aF0.0
aF0.0
aF0.0
aF0.0
aF0.0
aF0.0
aF0.0
aF0.0
aF0.0
aaa(lp2275
I28
aF0.0
aF0.0
aF0.0
aF0.01
a(lp2276
F0.0
aF0.0
aF0.0
aF0.0
aF0.0
aF0.0
aF0.0
aF0.0
aF0.0
aF0.0
aaa(lp2277
I29
aF0.0
aF0.0
aF0.0
aF0.01
a(lp2278
F0.0
aF0.0
aF0.0
aF0.0
aF0.0
aF0.0
aF0.0
aF0.0
aF0.0
aF0.0
aaa(lp2279
I30
aF0.0
aF0.0
aF0.0
aF0.01
a(lp2280
F0.0
aF0.0
aF0.0
aF0.0
aF0.0
aF0.0
aF0.0
aF0.0
aF0.0
aF0.0
aaa(lp2281
I31
aF0.0
aF0.0
aF0.0
aF0.01
a(lp2282
F0.0
aF0.0
aF0.0
aF0.0
aF0.0
aF0.0
aF0.0
aF0.0
aF0.0
aF0.0
aaa(lp2283
I32
aF0.0
aF0.0
aF0.0
aF0.01
a(lp2284
F0.0
aF0.0
aF0.0
aF0.0
aF0.0
aF0.0
aF0.0
aF0.0
aF0.0
aF0.0
aaa(lp2285
I33
aF0.0
aF0.0
aF0.0
aF0.01
a(lp2286
F0.0
aF0.0
aF0.0
aF0.0
aF0.0
aF0.0
aF0.0
aF0.0
aF0.0
aF0.0
aaa(lp2287
I34
aF0.0
aF0.0
aF0.0
aF0.01
a(lp2288
F0.0
aF0.0
aF0.0
aF0.0
aF0.0
aF0.0
aF0.0
aF0.0
aF0.0
aF0.0
aaa(lp2289
I35
aF0.0
aF0.0
aF0.0
aF0.01
a(lp2290
F0.0
aF0.0
aF0.0
aF0.0
aF0.0
aF0.0
aF0.0
aF0.0
aF0.0
aF0.0
aaa(lp2291
I36
aF0.0
aF0.0
aF0.0
aF0.01
a(lp2292
F0.0
aF0.0
aF0.0
aF0.0
aF0.0
aF0.0
aF0.0
aF0.0
aF0.0
aF0.0
aaa(lp2293
I37
aF0.0
aF0.0
aF0.0
aF0.01
a(lp2294
F0.0
aF0.0
aF0.0
aF0.0
aF0.0
aF0.0
aF0.0
aF0.0
aF0.0
aF0.0
aaa(lp2295
I38
aF0.0
aF0.0
aF0.0
aF0.01
a(lp2296
F0.0
aF0.0
aF0.0
aF0.0
aF0.0
aF0.0
aF0.0
aF0.0
aF0.0
aF0.0
aaa(lp2297
I39
aF0.0
aF0.0
aF0.0
aF0.01
a(lp2298
F0.0
aF0.0
aF0.0
aF0.0
aF0.0
aF0.0
aF0.0
aF0.0
aF0.0
aF0.0
aaa(lp2299
I40
aF0.0
aF0.0
aF0.0
aF0.01
a(lp2300
F0.0
aF0.0
aF0.0
aF0.0
aF0.0
aF0.0
aF0.0
aF0.0
aF0.0
aF0.0
aaa(lp2301
I41
aF0.0
aF0.0
aF0.0
aF0.01
a(lp2302
F0.0
aF0.0
aF0.0
aF0.0
aF0.0
aF0.0
aF0.0
aF0.0
aF0.0
aF0.0
aaa(lp2303
I42
aF0.0
aF0.0
aF0.0
aF0.01
a(lp2304
F0.0
aF0.0
aF0.0
aF0.0
aF0.0
aF0.0
aF0.0
aF0.0
aF0.0
aF0.0
aaa(lp2305
I43
aF0.0
aF0.0
aF0.0
aF0.01
a(lp2306
F0.0
aF0.0
aF0.0
aF0.0
aF0.0
aF0.0
aF0.0
aF0.0
aF0.0
aF0.0
aaa(lp2307
I44
aF0.0
aF0.0
aF0.0
aF0.01
a(lp2308
F0.0
aF0.0
aF0.0
aF0.0
aF0.0
aF0.0
aF0.0
aF0.0
aF0.0
aF0.0
aaa(lp2309
I45
aF0.0
aF0.0
aF0.0
aF0.01
a(lp2310
F0.0
aF0.0
aF0.0
aF0.0
aF0.0
aF0.0
aF0.0
aF0.0
aF0.0
aF0.0
aaa(lp2311
I46
aF0.0
aF0.0
aF0.0
aF0.01
a(lp2312
F0.0
aF0.0
aF0.0
aF0.0
aF0.0
aF0.0
aF0.0
aF0.0
aF0.0
aF0.0
aaa(lp2313
I47
aF0.0
aF0.0
aF0.0
aF0.01
a(lp2314
F0.0
aF0.0
aF0.0
aF0.0
aF0.0
aF0.0
aF0.0
aF0.0
aF0.0
aF0.0
aaa(lp2315
I48
aF0.0
aF0.0
aF0.0
aF0.01
a(lp2316
F0.0
aF0.0
aF0.0
aF0.0
aF0.0
aF0.0
aF0.0
aF0.0
aF0.0
aF0.0
aaa(lp2317
I49
aF0.0
aF0.0
aF0.0
aF0.01
a(lp2318
F0.0
aF0.0
aF0.0
aF0.0
aF0.0
aF0.0
aF0.0
aF0.0
aF0.0
aF0.0
aaa(lp2319
I50
aF0.0
aF0.0
aF0.0
aF0.01
a(lp2320
F0.0
aF0.0
aF0.0
aF0.0
aF0.0
aF0.0
aF0.0
aF0.0
aF0.0
aF0.0
aaa(lp2321
I51
aF0.0
aF0.0
aF0.0
aF0.01
a(lp2322
F0.0
aF0.0
aF0.0
aF0.0
aF0.0
aF0.0
aF0.0
aF0.0
aF0.0
aF0.0
aaa(lp2323
I52
aF0.0
aF0.0
aF0.0
aF0.01
a(lp2324
F0.0
aF0.0
aF0.0
aF0.0
aF0.0
aF0.0
aF0.0
aF0.0
aF0.0
aF0.0
aaa(lp2325
I53
aF0.0
aF0.0
aF0.0
aF0.01
a(lp2326
F0.0
aF0.0
aF0.0
aF0.0
aF0.0
aF0.0
aF0.0
aF0.0
aF0.0
aF0.0
aaa(lp2327
I54
aF0.0
aF0.0
aF0.0
aF0.01
a(lp2328
F0.0
aF0.0
aF0.0
aF0.0
aF0.0
aF0.0
aF0.0
aF0.0
aF0.0
aF0.0
aaa(lp2329
I55
aF0.0
aF0.0
aF0.0
aF0.01
a(lp2330
F0.0
aF0.0
aF0.0
aF0.0
aF0.0
aF0.0
aF0.0
aF0.0
aF0.0
aF0.0
aaa(lp2331
I56
aF0.0
aF0.0
aF0.0
aF0.01
a(lp2332
F0.0
aF0.0
aF0.0
aF0.0
aF0.0
aF0.0
aF0.0
aF0.0
aF0.0
aF0.0
aaa(lp2333
I57
aF0.0
aF0.0
aF0.0
aF0.01
a(lp2334
F0.0
aF0.0
aF0.0
aF0.0
aF0.0
aF0.0
aF0.0
aF0.0
aF0.0
aF0.0
aaa(lp2335
I58
aF0.0
aF0.0
aF0.0
aF0.01
a(lp2336
F0.0
aF0.0
aF0.0
aF0.0
aF0.0
aF0.0
aF0.0
aF0.0
aF0.0
aF0.0
aaa(lp2337
I59
aF0.0
aF0.0
aF0.0
aF0.01
a(lp2338
F0.0
aF0.0
aF0.0
aF0.0
aF0.0
aF0.0
aF0.0
aF0.0
aF0.0
aF0.0
aaa(lp2339
I60
aF0.0
aF0.0
aF0.0
aF0.01
a(lp2340
F0.0
aF0.0
aF0.0
aF0.0
aF0.0
aF0.0
aF0.0
aF0.0
aF0.0
aF0.0
aaa(lp2341
I61
aF0.0
aF0.0
aF0.0
aF0.01
a(lp2342
F0.0
aF0.0
aF0.0
aF0.0
aF0.0
aF0.0
aF0.0
aF0.0
aF0.0
aF0.0
aaa(lp2343
I62
aF0.0
aF0.0
aF0.0
aF0.01
a(lp2344
F0.0
aF0.0
aF0.0
aF0.0
aF0.0
aF0.0
aF0.0
aF0.0
aF0.0
aF0.0
aaa(lp2345
I63
aF0.0
aF0.0
aF0.0
aF0.01
a(lp2346
F0.0
aF0.0
aF0.0
aF0.0
aF0.0
aF0.0
aF0.0
aF0.0
aF0.0
aF0.0
aaa(lp2347
I64
aF0.0
aF0.0
aF0.0
aF0.01
a(lp2348
F0.0
aF0.0
aF0.0
aF0.0
aF0.0
aF0.0
aF0.0
aF0.0
aF0.0
aF0.0
aaa(lp2349
I65
aF0.0
aF0.0
aF0.0
aF0.01
a(lp2350
F0.0
aF0.0
aF0.0
aF0.0
aF0.0
aF0.0
aF0.0
aF0.0
aF0.0
aF0.0
aaa(lp2351
I66
aF0.0
aF0.0
aF0.0
aF0.01
a(lp2352
F0.0
aF0.0
aF0.0
aF0.0
aF0.0
aF0.0
aF0.0
aF0.0
aF0.0
aF0.0
aaa(lp2353
I67
aF0.0
aF0.0
aF0.0
aF0.01
a(lp2354
F0.0
aF0.0
aF0.0
aF0.0
aF0.0
aF0.0
aF0.0
aF0.0
aF0.0
aF0.0
aaa(lp2355
I68
aF0.0
aF0.0
aF0.0
aF0.01
a(lp2356
F0.0
aF0.0
aF0.0
aF0.0
aF0.0
aF0.0
aF0.0
aF0.0
aF0.0
aF0.0
aaa(lp2357
I69
aF0.0
aF0.0
aF0.0
aF0.01
a(lp2358
F0.0
aF0.0
aF0.0
aF0.0
aF0.0
aF0.0
aF0.0
aF0.0
aF0.0
aF0.0
aaa(lp2359
I70
aF0.0
aF0.0
aF0.0
aF0.01
a(lp2360
F0.0
aF0.0
aF0.0
aF0.0
aF0.0
aF0.0
aF0.0
aF0.0
aF0.0
aF0.0
aaa(lp2361
I71
aF0.0
aF0.0
aF0.0
aF0.01
a(lp2362
F0.0
aF0.0
aF0.0
aF0.0
aF0.0
aF0.0
aF0.0
aF0.0
aF0.0
aF0.0
aaa(lp2363
I72
aF0.0
aF0.0
aF0.0
aF0.01
a(lp2364
F0.0
aF0.0
aF0.0
aF0.0
aF0.0
aF0.0
aF0.0
aF0.0
aF0.0
aF0.0
aaa(lp2365
I73
aF0.0
aF0.0
aF0.0
aF0.01
a(lp2366
F0.0
aF0.0
aF0.0
aF0.0
aF0.0
aF0.0
aF0.0
aF0.0
aF0.0
aF0.0
aaa(lp2367
I74
aF0.0
aF0.0
aF0.0
aF0.01
a(lp2368
F0.0
aF0.0
aF0.0
aF0.0
aF0.0
aF0.0
aF0.0
aF0.0
aF0.0
aF0.0
aaa(lp2369
I75
aF0.0
aF0.0
aF0.0
aF0.01
a(lp2370
F0.0
aF0.0
aF0.0
aF0.0
aF0.0
aF0.0
aF0.0
aF0.0
aF0.0
aF0.0
aaa(lp2371
I76
aF0.0
aF0.0
aF0.0
aF0.01
a(lp2372
F0.0
aF0.0
aF0.0
aF0.0
aF0.0
aF0.0
aF0.0
aF0.0
aF0.0
aF0.0
aaa(lp2373
I77
aF0.0
aF0.0
aF0.0
aF0.01
a(lp2374
F0.0
aF0.0
aF0.0
aF0.0
aF0.0
aF0.0
aF0.0
aF0.0
aF0.0
aF0.0
aaa(lp2375
I78
aF0.0
aF0.0
aF0.0
aF0.01
a(lp2376
F0.0
aF0.0
aF0.0
aF0.0
aF0.0
aF0.0
aF0.0
aF0.0
aF0.0
aF0.0
aaa(lp2377
I79
aF0.0
aF0.0
aF0.0
aF0.01
a(lp2378
F0.0
aF0.0
aF0.0
aF0.0
aF0.0
aF0.0
aF0.0
aF0.0
aF0.0
aF0.0
aaa(lp2379
I80
aF0.0
aF0.0
aF0.0
aF0.01
a(lp2380
F0.0
aF0.0
aF0.0
aF0.0
aF0.0
aF0.0
aF0.0
aF0.0
aF0.0
aF0.0
aaa(lp2381
I81
aF0.0
aF0.0
aF0.0
aF0.01
a(lp2382
F0.0
aF0.0
aF0.0
aF0.0
aF0.0
aF0.0
aF0.0
aF0.0
aF0.0
aF0.0
aaa(lp2383
I82
aF0.0
aF0.0
aF0.0
aF0.01
a(lp2384
F0.0
aF0.0
aF0.0
aF0.0
aF0.0
aF0.0
aF0.0
aF0.0
aF0.0
aF0.0
aaa(lp2385
I83
aF0.0
aF0.0
aF0.0
aF0.01
a(lp2386
F0.0
aF0.0
aF0.0
aF0.0
aF0.0
aF0.0
aF0.0
aF0.0
aF0.0
aF0.0
aaa(lp2387
I84
aF0.0
aF0.0
aF0.0
aF0.01
a(lp2388
F0.0
aF0.0
aF0.0
aF0.0
aF0.0
aF0.0
aF0.0
aF0.0
aF0.0
aF0.0
aaa(lp2389
I85
aF0.0
aF0.0
aF0.0
aF0.01
a(lp2390
F0.0
aF0.0
aF0.0
aF0.0
aF0.0
aF0.0
aF0.0
aF0.0
aF0.0
aF0.0
aaa(lp2391
I86
aF0.0
aF0.0
aF0.0
aF0.01
a(lp2392
F0.0
aF0.0
aF0.0
aF0.0
aF0.0
aF0.0
aF0.0
aF0.0
aF0.0
aF0.0
aaa(lp2393
I87
aF0.0
aF0.0
aF0.0
aF0.01
a(lp2394
F0.0
aF0.0
aF0.0
aF0.0
aF0.0
aF0.0
aF0.0
aF0.0
aF0.0
aF0.0
aaa(lp2395
I88
aF0.0
aF0.0
aF0.0
aF0.01
a(lp2396
F0.0
aF0.0
aF0.0
aF0.0
aF0.0
aF0.0
aF0.0
aF0.0
aF0.0
aF0.0
aaa(lp2397
I89
aF0.0
aF0.0
aF0.0
aF0.01
a(lp2398
F0.0
aF0.0
aF0.0
aF0.0
aF0.0
aF0.0
aF0.0
aF0.0
aF0.0
aF0.0
aaa(lp2399
I90
aF0.0
aF0.0
aF0.0
aF0.01
a(lp2400
F0.0
aF0.0
aF0.0
aF0.0
aF0.0
aF0.0
aF0.0
aF0.0
aF0.0
aF0.0
aaa(lp2401
I91
aF0.0
aF0.0
aF0.0
aF0.01
a(lp2402
F0.0
aF0.0
aF0.0
aF0.0
aF0.0
aF0.0
aF0.0
aF0.0
aF0.0
aF0.0
aaa(lp2403
I92
aF0.0
aF0.0
aF0.0
aF0.01
a(lp2404
F0.0
aF0.0
aF0.0
aF0.0
aF0.0
aF0.0
aF0.0
aF0.0
aF0.0
aF0.0
aaa(lp2405
I93
aF0.0
aF0.0
aF0.0
aF0.01
a(lp2406
F0.0
aF0.0
aF0.0
aF0.0
aF0.0
aF0.0
aF0.0
aF0.0
aF0.0
aF0.0
aaa(lp2407
I94
aF0.0
aF0.0
aF0.0
aF0.01
a(lp2408
F0.0
aF0.0
aF0.0
aF0.0
aF0.0
aF0.0
aF0.0
aF0.0
aF0.0
aF0.0
aaa(lp2409
I95
aF0.0
aF0.0
aF0.0
aF0.01
a(lp2410
F0.0
aF0.0
aF0.0
aF0.0
aF0.0
aF0.0
aF0.0
aF0.0
aF0.0
aF0.0
aaa(lp2411
I96
aF0.0
aF0.0
aF0.0
aF0.01
a(lp2412
F0.0
aF0.0
aF0.0
aF0.0
aF0.0
aF0.0
aF0.0
aF0.0
aF0.0
aF0.0
aaa(lp2413
I97
aF0.0
aF0.0
aF0.0
aF0.01
a(lp2414
F0.0
aF0.0
aF0.0
aF0.0
aF0.0
aF0.0
aF0.0
aF0.0
aF0.0
aF0.0
aaa(lp2415
I98
aF0.0
aF0.0
aF0.0
aF0.01
a(lp2416
F0.0
aF0.0
aF0.0
aF0.0
aF0.0
aF0.0
aF0.0
aF0.0
aF0.0
aF0.0
aaa(lp2417
I99
aF0.0
aF0.0
aF0.0
aF0.01
a(lp2418
F0.0
aF0.0
aF0.0
aF0.0
aF0.0
aF0.0
aF0.0
aF0.0
aF0.0
aF0.0
aaaasg1324
I2
sg1342
(lp2419
F1.0
aF0.0
aF1.0
aF1.0
asg1333
I1
ssg2213
g2001
sba(ipoplib
AgentInstance
p2420
(dp2421
g2007
I1
sg12
g13
sg2008
(dp2422
g1689
(lp2423
I100
a(lp2424
(lp2425
I0
aI0
aF0.0
aF0.0
aF0.01
a(lp2426
F0.0
aF0.0
aF0.0
aF0.0
aF0.0
aF0.0
aF0.0
aF0.0
aF0.0
aF0.0
aaa(lp2427
I1
aI0
aF0.0
aF0.0
aF0.01
a(lp2428
F0.0
aF0.0
aF0.0
aF0.0
aF0.0
aF0.0
aF0.0
aF0.0
aF0.0
aF0.0
aaa(lp2429
I2
aI0
aF0.0
aF0.0
aF0.01
a(lp2430
F0.0
aF0.0
aF0.0
aF0.0
aF0.0
aF0.0
aF0.0
aF0.0
aF0.0
aF0.0
aaa(lp2431
I3
aI0
aF0.0
aF0.0
aF0.01
a(lp2432
F0.0
aF0.0
aF0.0
aF0.0
aF0.0
aF0.0
aF0.0
aF0.0
aF0.0
aF0.0
aaa(lp2433
I4
aI0
aF0.0
aF0.0
aF0.01
a(lp2434
F0.0
aF0.0
aF0.0
aF0.0
aF0.0
aF0.0
aF0.0
aF0.0
aF0.0
aF0.0
aaa(lp2435
I5
aI0
aF0.0
aF0.0
aF0.01
a(lp2436
F0.0
aF0.0
aF0.0
aF0.0
aF0.0
aF0.0
aF0.0
aF0.0
aF0.0
aF0.0
aaa(lp2437
I6
aI0
aF0.0
aF0.0
aF0.01
a(lp2438
F0.0
aF0.0
aF0.0
aF0.0
aF0.0
aF0.0
aF0.0
aF0.0
aF0.0
aF0.0
aaa(lp2439
I7
aI0
aF0.0
aF0.0
aF0.01
a(lp2440
F0.0
aF0.0
aF0.0
aF0.0
aF0.0
aF0.0
aF0.0
aF0.0
aF0.0
aF0.0
aaa(lp2441
I8
aI0
aF0.0
aF0.0
aF0.01
a(lp2442
F0.0
aF0.0
aF0.0
aF0.0
aF0.0
aF0.0
aF0.0
aF0.0
aF0.0
aF0.0
aaa(lp2443
I9
aI0
aF0.0
aF0.0
aF0.01
a(lp2444
F0.0
aF0.0
aF0.0
aF0.0
aF0.0
aF0.0
aF0.0
aF0.0
aF0.0
aF0.0
aaa(lp2445
I10
aI0
aF0.0
aF0.0
aF0.01
a(lp2446
F0.0
aF0.0
aF0.0
aF0.0
aF0.0
aF0.0
aF0.0
aF0.0
aF0.0
aF0.0
aaa(lp2447
I11
aI0
aF0.0
aF0.0
aF0.01
a(lp2448
F0.0
aF0.0
aF0.0
aF0.0
aF0.0
aF0.0
aF0.0
aF0.0
aF0.0
aF0.0
aaa(lp2449
I12
aI0
aF0.0
aF0.0
aF0.01
a(lp2450
F0.0
aF0.0
aF0.0
aF0.0
aF0.0
aF0.0
aF0.0
aF0.0
aF0.0
aF0.0
aaa(lp2451
I13
aI0
aF0.0
aF0.0
aF0.01
a(lp2452
F0.0
aF0.0
aF0.0
aF0.0
aF0.0
aF0.0
aF0.0
aF0.0
aF0.0
aF0.0
aaa(lp2453
I14
aI0
aF0.0
aF0.0
aF0.01
a(lp2454
F0.0
aF0.0
aF0.0
aF0.0
aF0.0
aF0.0
aF0.0
aF0.0
aF0.0
aF0.0
aaa(lp2455
I15
aI0
aF0.0
aF0.0
aF0.01
a(lp2456
F0.0
aF0.0
aF0.0
aF0.0
aF0.0
aF0.0
aF0.0
aF0.0
aF0.0
aF0.0
aaa(lp2457
I16
aI0
aF0.0
aF0.0
aF0.01
a(lp2458
F0.0
aF0.0
aF0.0
aF0.0
aF0.0
aF0.0
aF0.0
aF0.0
aF0.0
aF0.0
aaa(lp2459
I17
aI0
aF0.0
aF0.0
aF0.01
a(lp2460
F0.0
aF0.0
aF0.0
aF0.0
aF0.0
aF0.0
aF0.0
aF0.0
aF0.0
aF0.0
aaa(lp2461
I18
aI0
aF0.0
aF0.0
aF0.01
a(lp2462
F0.0
aF0.0
aF0.0
aF0.0
aF0.0
aF0.0
aF0.0
aF0.0
aF0.0
aF0.0
aaa(lp2463
I19
aI0
aF0.0
aF0.0
aF0.01
a(lp2464
F0.0
aF0.0
aF0.0
aF0.0
aF0.0
aF0.0
aF0.0
aF0.0
aF0.0
aF0.0
aaa(lp2465
I20
aI0
aF0.0
aF0.0
aF0.01
a(lp2466
F0.0
aF0.0
aF0.0
aF0.0
aF0.0
aF0.0
aF0.0
aF0.0
aF0.0
aF0.0
aaa(lp2467
I21
aI0
aF0.0
aF0.0
aF0.01
a(lp2468
F0.0
aF0.0
aF0.0
aF0.0
aF0.0
aF0.0
aF0.0
aF0.0
aF0.0
aF0.0
aaa(lp2469
I22
aI0
aF0.0
aF0.0
aF0.01
a(lp2470
F0.0
aF0.0
aF0.0
aF0.0
aF0.0
aF0.0
aF0.0
aF0.0
aF0.0
aF0.0
aaa(lp2471
I23
aI0
aF0.0
aF0.0
aF0.01
a(lp2472
F0.0
aF0.0
aF0.0
aF0.0
aF0.0
aF0.0
aF0.0
aF0.0
aF0.0
aF0.0
aaa(lp2473
I24
aI0
aF0.0
aF0.0
aF0.01
a(lp2474
F0.0
aF0.0
aF0.0
aF0.0
aF0.0
aF0.0
aF0.0
aF0.0
aF0.0
aF0.0
aaa(lp2475
I25
aI0
aF0.0
aF0.0
aF0.01
a(lp2476
F0.0
aF0.0
aF0.0
aF0.0
aF0.0
aF0.0
aF0.0
aF0.0
aF0.0
aF0.0
aaa(lp2477
I26
aI0
aF0.0
aF0.0
aF0.01
a(lp2478
F0.0
aF0.0
aF0.0
aF0.0
aF0.0
aF0.0
aF0.0
aF0.0
aF0.0
aF0.0
aaa(lp2479
I27
aI0
aF0.0
aF0.0
aF0.01
a(lp2480
F0.0
aF0.0
aF0.0
aF0.0
aF0.0
aF0.0
aF0.0
aF0.0
aF0.0
aF0.0
aaa(lp2481
I28
aI0
aF0.0
aF0.0
aF0.01
a(lp2482
F0.0
aF0.0
aF0.0
aF0.0
aF0.0
aF0.0
aF0.0
aF0.0
aF0.0
aF0.0
aaa(lp2483
I29
aI0
aF0.0
aF0.0
aF0.01
a(lp2484
F0.0
aF0.0
aF0.0
aF0.0
aF0.0
aF0.0
aF0.0
aF0.0
aF0.0
aF0.0
aaa(lp2485
I30
aI0
aF0.0
aF0.0
aF0.01
a(lp2486
F0.0
aF0.0
aF0.0
aF0.0
aF0.0
aF0.0
aF0.0
aF0.0
aF0.0
aF0.0
aaa(lp2487
I31
aI0
aF0.0
aF0.0
aF0.01
a(lp2488
F0.0
aF0.0
aF0.0
aF0.0
aF0.0
aF0.0
aF0.0
aF0.0
aF0.0
aF0.0
aaa(lp2489
I32
aI0
aF0.0
aF0.0
aF0.01
a(lp2490
F0.0
aF0.0
aF0.0
aF0.0
aF0.0
aF0.0
aF0.0
aF0.0
aF0.0
aF0.0
aaa(lp2491
I33
aI0
aF0.0
aF0.0
aF0.01
a(lp2492
F0.0
aF0.0
aF0.0
aF0.0
aF0.0
aF0.0
aF0.0
aF0.0
aF0.0
aF0.0
aaa(lp2493
I34
aI0
aF0.0
aF0.0
aF0.01
a(lp2494
F0.0
aF0.0
aF0.0
aF0.0
aF0.0
aF0.0
aF0.0
aF0.0
aF0.0
aF0.0
aaa(lp2495
I35
aI0
aF0.0
aF0.0
aF0.01
a(lp2496
F0.0
aF0.0
aF0.0
aF0.0
aF0.0
aF0.0
aF0.0
aF0.0
aF0.0
aF0.0
aaa(lp2497
I36
aI0
aF0.0
aF0.0
aF0.01
a(lp2498
F0.0
aF0.0
aF0.0
aF0.0
aF0.0
aF0.0
aF0.0
aF0.0
aF0.0
aF0.0
aaa(lp2499
I37
aI0
aF0.0
aF0.0
aF0.01
a(lp2500
F0.0
aF0.0
aF0.0
aF0.0
aF0.0
aF0.0
aF0.0
aF0.0
aF0.0
aF0.0
aaa(lp2501
I38
aI0
aF0.0
aF0.0
aF0.01
a(lp2502
F0.0
aF0.0
aF0.0
aF0.0
aF0.0
aF0.0
aF0.0
aF0.0
aF0.0
aF0.0
aaa(lp2503
I39
aI0
aF0.0
aF0.0
aF0.01
a(lp2504
F0.0
aF0.0
aF0.0
aF0.0
aF0.0
aF0.0
aF0.0
aF0.0
aF0.0
aF0.0
aaa(lp2505
I40
aI0
aF0.0
aF0.0
aF0.01
a(lp2506
F0.0
aF0.0
aF0.0
aF0.0
aF0.0
aF0.0
aF0.0
aF0.0
aF0.0
aF0.0
aaa(lp2507
I41
aI0
aF0.0
aF0.0
aF0.01
a(lp2508
F0.0
aF0.0
aF0.0
aF0.0
aF0.0
aF0.0
aF0.0
aF0.0
aF0.0
aF0.0
aaa(lp2509
I42
aI0
aF0.0
aF0.0
aF0.01
a(lp2510
F0.0
aF0.0
aF0.0
aF0.0
aF0.0
aF0.0
aF0.0
aF0.0
aF0.0
aF0.0
aaa(lp2511
I43
aI0
aF0.0
aF0.0
aF0.01
a(lp2512
F0.0
aF0.0
aF0.0
aF0.0
aF0.0
aF0.0
aF0.0
aF0.0
aF0.0
aF0.0
aaa(lp2513
I44
aI0
aF0.0
aF0.0
aF0.01
a(lp2514
F0.0
aF0.0
aF0.0
aF0.0
aF0.0
aF0.0
aF0.0
aF0.0
aF0.0
aF0.0
aaa(lp2515
I45
aI0
aF0.0
aF0.0
aF0.01
a(lp2516
F0.0
aF0.0
aF0.0
aF0.0
aF0.0
aF0.0
aF0.0
aF0.0
aF0.0
aF0.0
aaa(lp2517
I46
aI0
aF0.0
aF0.0
aF0.01
a(lp2518
F0.0
aF0.0
aF0.0
aF0.0
aF0.0
aF0.0
aF0.0
aF0.0
aF0.0
aF0.0
aaa(lp2519
I47
aI0
aF0.0
aF0.0
aF0.01
a(lp2520
F0.0
aF0.0
aF0.0
aF0.0
aF0.0
aF0.0
aF0.0
aF0.0
aF0.0
aF0.0
aaa(lp2521
I48
aI0
aF0.0
aF0.0
aF0.01
a(lp2522
F0.0
aF0.0
aF0.0
aF0.0
aF0.0
aF0.0
aF0.0
aF0.0
aF0.0
aF0.0
aaa(lp2523
I49
aI0
aF0.0
aF0.0
aF0.01
a(lp2524
F0.0
aF0.0
aF0.0
aF0.0
aF0.0
aF0.0
aF0.0
aF0.0
aF0.0
aF0.0
aaa(lp2525
I50
aI0
aF0.0
aF0.0
aF0.01
a(lp2526
F0.0
aF0.0
aF0.0
aF0.0
aF0.0
aF0.0
aF0.0
aF0.0
aF0.0
aF0.0
aaa(lp2527
I51
aI0
aF0.0
aF0.0
aF0.01
a(lp2528
F0.0
aF0.0
aF0.0
aF0.0
aF0.0
aF0.0
aF0.0
aF0.0
aF0.0
aF0.0
aaa(lp2529
I52
aI0
aF0.0
aF0.0
aF0.01
a(lp2530
F0.0
aF0.0
aF0.0
aF0.0
aF0.0
aF0.0
aF0.0
aF0.0
aF0.0
aF0.0
aaa(lp2531
I53
aI0
aF0.0
aF0.0
aF0.01
a(lp2532
F0.0
aF0.0
aF0.0
aF0.0
aF0.0
aF0.0
aF0.0
aF0.0
aF0.0
aF0.0
aaa(lp2533
I54
aI0
aF0.0
aF0.0
aF0.01
a(lp2534
F0.0
aF0.0
aF0.0
aF0.0
aF0.0
aF0.0
aF0.0
aF0.0
aF0.0
aF0.0
aaa(lp2535
I55
aI0
aF0.0
aF0.0
aF0.01
a(lp2536
F0.0
aF0.0
aF0.0
aF0.0
aF0.0
aF0.0
aF0.0
aF0.0
aF0.0
aF0.0
aaa(lp2537
I56
aI0
aF0.0
aF0.0
aF0.01
a(lp2538
F0.0
aF0.0
aF0.0
aF0.0
aF0.0
aF0.0
aF0.0
aF0.0
aF0.0
aF0.0
aaa(lp2539
I57
aI0
aF0.0
aF0.0
aF0.01
a(lp2540
F0.0
aF0.0
aF0.0
aF0.0
aF0.0
aF0.0
aF0.0
aF0.0
aF0.0
aF0.0
aaa(lp2541
I58
aI0
aF0.0
aF0.0
aF0.01
a(lp2542
F0.0
aF0.0
aF0.0
aF0.0
aF0.0
aF0.0
aF0.0
aF0.0
aF0.0
aF0.0
aaa(lp2543
I59
aI0
aF0.0
aF0.0
aF0.01
a(lp2544
F0.0
aF0.0
aF0.0
aF0.0
aF0.0
aF0.0
aF0.0
aF0.0
aF0.0
aF0.0
aaa(lp2545
I60
aI0
aF0.0
aF0.0
aF0.01
a(lp2546
F0.0
aF0.0
aF0.0
aF0.0
aF0.0
aF0.0
aF0.0
aF0.0
aF0.0
aF0.0
aaa(lp2547
I61
aI0
aF0.0
aF0.0
aF0.01
a(lp2548
F0.0
aF0.0
aF0.0
aF0.0
aF0.0
aF0.0
aF0.0
aF0.0
aF0.0
aF0.0
aaa(lp2549
I62
aI0
aF0.0
aF0.0
aF0.01
a(lp2550
F0.0
aF0.0
aF0.0
aF0.0
aF0.0
aF0.0
aF0.0
aF0.0
aF0.0
aF0.0
aaa(lp2551
I63
aI0
aF0.0
aF0.0
aF0.01
a(lp2552
F0.0
aF0.0
aF0.0
aF0.0
aF0.0
aF0.0
aF0.0
aF0.0
aF0.0
aF0.0
aaa(lp2553
I64
aI0
aF0.0
aF0.0
aF0.01
a(lp2554
F0.0
aF0.0
aF0.0
aF0.0
aF0.0
aF0.0
aF0.0
aF0.0
aF0.0
aF0.0
aaa(lp2555
I65
aI0
aF0.0
aF0.0
aF0.01
a(lp2556
F0.0
aF0.0
aF0.0
aF0.0
aF0.0
aF0.0
aF0.0
aF0.0
aF0.0
aF0.0
aaa(lp2557
I66
aI0
aF0.0
aF0.0
aF0.01
a(lp2558
F0.0
aF0.0
aF0.0
aF0.0
aF0.0
aF0.0
aF0.0
aF0.0
aF0.0
aF0.0
aaa(lp2559
I67
aI0
aF0.0
aF0.0
aF0.01
a(lp2560
F0.0
aF0.0
aF0.0
aF0.0
aF0.0
aF0.0
aF0.0
aF0.0
aF0.0
aF0.0
aaa(lp2561
I68
aI0
aF0.0
aF0.0
aF0.01
a(lp2562
F0.0
aF0.0
aF0.0
aF0.0
aF0.0
aF0.0
aF0.0
aF0.0
aF0.0
aF0.0
aaa(lp2563
I69
aI0
aF0.0
aF0.0
aF0.01
a(lp2564
F0.0
aF0.0
aF0.0
aF0.0
aF0.0
aF0.0
aF0.0
aF0.0
aF0.0
aF0.0
aaa(lp2565
I70
aI0
aF0.0
aF0.0
aF0.01
a(lp2566
F0.0
aF0.0
aF0.0
aF0.0
aF0.0
aF0.0
aF0.0
aF0.0
aF0.0
aF0.0
aaa(lp2567
I71
aI0
aF0.0
aF0.0
aF0.01
a(lp2568
F0.0
aF0.0
aF0.0
aF0.0
aF0.0
aF0.0
aF0.0
aF0.0
aF0.0
aF0.0
aaa(lp2569
I72
aI0
aF0.0
aF0.0
aF0.01
a(lp2570
F0.0
aF0.0
aF0.0
aF0.0
aF0.0
aF0.0
aF0.0
aF0.0
aF0.0
aF0.0
aaa(lp2571
I73
aI0
aF0.0
aF0.0
aF0.01
a(lp2572
F0.0
aF0.0
aF0.0
aF0.0
aF0.0
aF0.0
aF0.0
aF0.0
aF0.0
aF0.0
aaa(lp2573
I74
aI0
aF0.0
aF0.0
aF0.01
a(lp2574
F0.0
aF0.0
aF0.0
aF0.0
aF0.0
aF0.0
aF0.0
aF0.0
aF0.0
aF0.0
aaa(lp2575
I75
aI0
aF0.0
aF0.0
aF0.01
a(lp2576
F0.0
aF0.0
aF0.0
aF0.0
aF0.0
aF0.0
aF0.0
aF0.0
aF0.0
aF0.0
aaa(lp2577
I76
aI0
aF0.0
aF0.0
aF0.01
a(lp2578
F0.0
aF0.0
aF0.0
aF0.0
aF0.0
aF0.0
aF0.0
aF0.0
aF0.0
aF0.0
aaa(lp2579
I77
aI0
aF0.0
aF0.0
aF0.01
a(lp2580
F0.0
aF0.0
aF0.0
aF0.0
aF0.0
aF0.0
aF0.0
aF0.0
aF0.0
aF0.0
aaa(lp2581
I78
aI0
aF0.0
aF0.0
aF0.01
a(lp2582
F0.0
aF0.0
aF0.0
aF0.0
aF0.0
aF0.0
aF0.0
aF0.0
aF0.0
aF0.0
aaa(lp2583
I79
aI0
aF0.0
aF0.0
aF0.01
a(lp2584
F0.0
aF0.0
aF0.0
aF0.0
aF0.0
aF0.0
aF0.0
aF0.0
aF0.0
aF0.0
aaa(lp2585
I80
aI0
aF0.0
aF0.0
aF0.01
a(lp2586
F0.0
aF0.0
aF0.0
aF0.0
aF0.0
aF0.0
aF0.0
aF0.0
aF0.0
aF0.0
aaa(lp2587
I81
aI0
aF0.0
aF0.0
aF0.01
a(lp2588
F0.0
aF0.0
aF0.0
aF0.0
aF0.0
aF0.0
aF0.0
aF0.0
aF0.0
aF0.0
aaa(lp2589
I82
aI0
aF0.0
aF0.0
aF0.01
a(lp2590
F0.0
aF0.0
aF0.0
aF0.0
aF0.0
aF0.0
aF0.0
aF0.0
aF0.0
aF0.0
aaa(lp2591
I83
aI0
aF0.0
aF0.0
aF0.01
a(lp2592
F0.0
aF0.0
aF0.0
aF0.0
aF0.0
aF0.0
aF0.0
aF0.0
aF0.0
aF0.0
aaa(lp2593
I84
aI0
aF0.0
aF0.0
aF0.01
a(lp2594
F0.0
aF0.0
aF0.0
aF0.0
aF0.0
aF0.0
aF0.0
aF0.0
aF0.0
aF0.0
aaa(lp2595
I85
aI0
aF0.0
aF0.0
aF0.01
a(lp2596
F0.0
aF0.0
aF0.0
aF0.0
aF0.0
aF0.0
aF0.0
aF0.0
aF0.0
aF0.0
aaa(lp2597
I86
aI0
aF0.0
aF0.0
aF0.01
a(lp2598
F0.0
aF0.0
aF0.0
aF0.0
aF0.0
aF0.0
aF0.0
aF0.0
aF0.0
aF0.0
aaa(lp2599
I87
aI0
aF0.0
aF0.0
aF0.01
a(lp2600
F0.0
aF0.0
aF0.0
aF0.0
aF0.0
aF0.0
aF0.0
aF0.0
aF0.0
aF0.0
aaa(lp2601
I88
aI0
aF0.0
aF0.0
aF0.01
a(lp2602
F0.0
aF0.0
aF0.0
aF0.0
aF0.0
aF0.0
aF0.0
aF0.0
aF0.0
aF0.0
aaa(lp2603
I89
aI0
aF0.0
aF0.0
aF0.01
a(lp2604
F0.0
aF0.0
aF0.0
aF0.0
aF0.0
aF0.0
aF0.0
aF0.0
aF0.0
aF0.0
aaa(lp2605
I90
aI0
aF0.0
aF0.0
aF0.01
a(lp2606
F0.0
aF0.0
aF0.0
aF0.0
aF0.0
aF0.0
aF0.0
aF0.0
aF0.0
aF0.0
aaa(lp2607
I91
aI0
aF0.0
aF0.0
aF0.01
a(lp2608
F0.0
aF0.0
aF0.0
aF0.0
aF0.0
aF0.0
aF0.0
aF0.0
aF0.0
aF0.0
aaa(lp2609
I92
aI0
aF0.0
aF0.0
aF0.01
a(lp2610
F0.0
aF0.0
aF0.0
aF0.0
aF0.0
aF0.0
aF0.0
aF0.0
aF0.0
aF0.0
aaa(lp2611
I93
aI0
aF0.0
aF0.0
aF0.01
a(lp2612
F0.0
aF0.0
aF0.0
aF0.0
aF0.0
aF0.0
aF0.0
aF0.0
aF0.0
aF0.0
aaa(lp2613
I94
aI0
aF0.0
aF0.0
aF0.01
a(lp2614
F0.0
aF0.0
aF0.0
aF0.0
aF0.0
aF0.0
aF0.0
aF0.0
aF0.0
aF0.0
aaa(lp2615
I95
aI0
aF0.0
aF0.0
aF0.01
a(lp2616
F0.0
aF0.0
aF0.0
aF0.0
aF0.0
aF0.0
aF0.0
aF0.0
aF0.0
aF0.0
aaa(lp2617
I96
aI0
aF0.0
aF0.0
aF0.01
a(lp2618
F0.0
aF0.0
aF0.0
aF0.0
aF0.0
aF0.0
aF0.0
aF0.0
aF0.0
aF0.0
aaa(lp2619
I97
aI0
aF0.0
aF0.0
aF0.01
a(lp2620
F0.0
aF0.0
aF0.0
aF0.0
aF0.0
aF0.0
aF0.0
aF0.0
aF0.0
aF0.0
aaa(lp2621
I98
aI0
aF0.0
aF0.0
aF0.01
a(lp2622
F0.0
aF0.0
aF0.0
aF0.0
aF0.0
aF0.0
aF0.0
aF0.0
aF0.0
aF0.0
aaa(lp2623
I99
aI0
aF0.0
aF0.0
aF0.01
a(lp2624
F0.0
aF0.0
aF0.0
aF0.0
aF0.0
aF0.0
aF0.0
aF0.0
aF0.0
aF0.0
aaaasg1698
(lp2625
F1.0
aF1.0
aI10
aI100
aF0.25
aI1
aI0
a(lp2626
F0.01
aF0.01
aF0.01
aF0.01
aF0.01
aF0.01
aF0.01
aF0.01
aF0.01
aF0.01
aaI-10
aI10
a(lp2627
F0.0
aF0.0
aF0.0
aF0.0
aF0.0
aF0.0
aF0.0
aF0.0
aF0.0
aF0.0
aa(lp2628
F10.0
aF10.0
aF10.0
aF10.0
aF10.0
aF10.0
aF10.0
aF10.0
aF10.0
aF10.0
aasg1680
I3
sg1707
(lp2629
F0.0
aF0.0
aF0.0
aF1.0
assg2213
g2002
sbasS'popmap'
p2630
(dp2631
g2001
(lp2632
g2005
ag2214
asg2002
(lp2633
g2420
assbasS'state'
p2634
S'newpop'
p2635
sS'version'
p2636
S'0.1.0'
p2637
sg12
(ipoplib
Model
p2638
(dp2639
g15
(dp2640
g17
g18
sg4
VFinancial Market Model - EWA learning module
p2641
sg20
(ipoplib
MultiDict
p2642
(dp2643
g23
I0
sg24
(dp2644
Vxmodel
p2645
(lp2646
(ipoplib
MultiDict
p2647
(dp2648
g23
I0
sg24
(dp2649
Venvironment
p2650
(lp2651
(ipoplib
MultiDict
p2652
(dp2653
g23
I0
sg24
(dp2654
Vfunctionfiles
p2655
(lp2656
(ipoplib
MultiDict
p2657
(dp2658
g23
I0
sg24
(dp2659
Vfile
p2660
(lp2661
VHousehold_ewa_functions.c
p2662
aVFinancialAgent_ewa_functions.c
p2663
aVFinancialAgent_aux_functions.c
p2664
aVsome_new_functions.c
p2665
assbasVtimeunits
p2666
(lp2667
(ipoplib
MultiDict
p2668
(dp2669
g23
I0
sg24
(dp2670
Vtimeunit
p2671
(lp2672
(ipoplib
MultiDict
p2673
(dp2674
g23
I0
sg24
(dp2675
Vname
p2676
(lp2677
Vdaily
p2678
asVunit
p2679
(lp2680
Viteration
p2681
asVperiod
p2682
(lp2683
V1
p2684
assba(ipoplib
MultiDict
p2685
(dp2686
g23
I0
sg24
(dp2687
Vname
p2688
(lp2689
Vweekly
p2690
asVunit
p2691
(lp2692
Vdaily
p2693
asVperiod
p2694
(lp2695
V5
p2696
assba(ipoplib
MultiDict
p2697
(dp2698
g23
I0
sg24
(dp2699
Vname
p2700
(lp2701
Vmonthly
p2702
asVunit
p2703
(lp2704
Vweekly
p2705
asVperiod
p2706
(lp2707
V4
p2708
assba(ipoplib
MultiDict
p2709
(dp2710
g23
I0
sg24
(dp2711
Vname
p2712
(lp2713
Vquarterly
p2714
asVunit
p2715
(lp2716
Vmonthly
p2717
asVperiod
p2718
(lp2719
V3
p2720
assba(ipoplib
MultiDict
p2721
(dp2722
g23
I0
sg24
(dp2723
Vname
p2724
(lp2725
Vyearly
p2726
asVunit
p2727
(lp2728
Vmonthly
p2729
asVperiod
p2730
(lp2731
V12
p2732
assbassbasVdatatypes
p2733
(lp2734
(ipoplib
MultiDict
p2735
(dp2736
g23
I0
sg24
(dp2737
Vdatatype
p2738
(lp2739
(ipoplib
MultiDict
p2740
(dp2741
g23
I0
sg24
(dp2742
N(lp2743
V***************************** Struct for the EWA Parameters *****************************
p2744
asVvariables
p2745
(lp2746
(ipoplib
MultiDict
p2747
(dp2748
g23
I0
sg24
(dp2749
Vvariable
p2750
(lp2751
(ipoplib
MultiDict
p2752
(dp2753
g23
I0
sg24
(dp2754
Vtype
p2755
(lp2756
Vdouble
p2757
asVname
p2758
(lp2759
VEWA_rho
p2760
assba(ipoplib
MultiDict
p2761
(dp2762
g23
I0
sg24
(dp2763
Vtype
p2764
(lp2765
Vdouble
p2766
asVname
p2767
(lp2768
VEWA_phi
p2769
assba(ipoplib
MultiDict
p2770
(dp2771
g23
I0
sg24
(dp2772
Vtype
p2773
(lp2774
Vdouble
p2775
asVname
p2776
(lp2777
VEWA_delta
p2778
assba(ipoplib
MultiDict
p2779
(dp2780
g23
I0
sg24
(dp2781
Vtype
p2782
(lp2783
Vdouble
p2784
asVname
p2785
(lp2786
VEWA_beta
p2787
assbassbasVname
p2788
(lp2789
VEWAParameterStruct
p2790
asVdescription
p2791
(lp2792
VStruct for the EWA Parameters
p2793
assba(ipoplib
MultiDict
p2794
(dp2795
g23
I0
sg24
(dp2796
N(lp2797
V***************************** Struct for the GA Parameters *****************************
p2798
asVvariables
p2799
(lp2800
(ipoplib
MultiDict
p2801
(dp2802
g23
I0
sg24
(dp2803
Vvariable
p2804
(lp2805
(ipoplib
MultiDict
p2806
(dp2807
g23
I0
sg24
(dp2808
Vtype
p2809
(lp2810
Vdouble
p2811
asVname
p2812
(lp2813
Vprob_cross
p2814
asVdescription
p2815
(lp2816
VCrossover probability
p2817
assba(ipoplib
MultiDict
p2818
(dp2819
g23
I0
sg24
(dp2820
Vtype
p2821
(lp2822
Vdouble
p2823
asVname
p2824
(lp2825
Vprob_mut
p2826
asVdescription
p2827
(lp2828
VMutation probability
p2829
assba(ipoplib
MultiDict
p2830
(dp2831
g23
I0
sg24
(dp2832
Vtype
p2833
(lp2834
Vint
p2835
asVname
p2836
(lp2837
Vstring_size
p2838
assba(ipoplib
MultiDict
p2839
(dp2840
g23
I0
sg24
(dp2841
Vtype
p2842
(lp2843
Vint
p2844
asVname
p2845
(lp2846
Vpop_size
p2847
asVdescription
p2848
(lp2849
VSize of the rule population
p2850
assba(ipoplib
MultiDict
p2851
(dp2852
g23
I0
sg24
(dp2853
Vtype
p2854
(lp2855
Vdouble
p2856
asVname
p2857
(lp2858
Vreproduction_proportion
p2859
asVdescription
p2860
(lp2861
VProportion of population that reproduces
p2862
assba(ipoplib
MultiDict
p2863
(dp2864
g23
I0
sg24
(dp2865
Vtype
p2866
(lp2867
Vint
p2868
asVname
p2869
(lp2870
Vsingle_point_cross_over
p2871
asVdescription
p2872
(lp2873
VDummy for single-point crossover operator (1: use single-point; 0: use 2-point cross-over)
p2874
assba(ipoplib
MultiDict
p2875
(dp2876
g23
I0
sg24
(dp2877
Vtype
p2878
(lp2879
Vint
p2880
asVname
p2881
(lp2882
Velection
p2883
asVdescription
p2884
(lp2885
VDummy for election operator
p2886
assba(ipoplib
MultiDict
p2887
(dp2888
g23
I0
sg24
(dp2889
Vtype
p2890
(lp2891
Vdouble
p2892
asVname
p2893
(lp2894
Vstepsize[10]
p2895
asVdescription
p2896
(lp2897
VMutation stepsize for each parameter
p2898
assba(ipoplib
MultiDict
p2899
(dp2900
g23
I0
sg24
(dp2901
Vtype
p2902
(lp2903
Vint
p2904
asVname
p2905
(lp2906
Vdelta_min
p2907
asVdescription
p2908
(lp2909
VLower bound on number of units to mutate inside the mutation range: delta_min can be negative or positive.
p2910
assba(ipoplib
MultiDict
p2911
(dp2912
g23
I0
sg24
(dp2913
Vtype
p2914
(lp2915
Vint
p2916
asVname
p2917
(lp2918
Vdelta_max
p2919
asVdescription
p2920
(lp2921
VUpper bound on number of units to mutate inside the mutation range: delta_max should be positive.
p2922
assba(ipoplib
MultiDict
p2923
(dp2924
g23
I0
sg24
(dp2925
Vtype
p2926
(lp2927
Vdouble
p2928
asVname
p2929
(lp2930
Vmin_values[10]
p2931
asVdescription
p2932
(lp2933
VMinimum values for each parameter
p2934
assba(ipoplib
MultiDict
p2935
(dp2936
g23
I0
sg24
(dp2937
Vtype
p2938
(lp2939
Vdouble
p2940
asVname
p2941
(lp2942
Vmax_values[10]
p2943
asVdescription
p2944
(lp2945
VMaximum values for each parameter
p2946
assbassbasVname
p2947
(lp2948
VGAParameterStruct
p2949
asVdescription
p2950
(lp2951
VStruct for the GA Parameters
p2952
assba(ipoplib
MultiDict
p2953
(dp2954
g23
I0
sg24
(dp2955
N(lp2956
V***************************** Struct for the PublicClassifierRule *****************************
p2957
asVvariables
p2958
(lp2959
(ipoplib
MultiDict
p2960
(dp2961
g23
I0
sg24
(dp2962
Vvariable
p2963
(lp2964
(ipoplib
MultiDict
p2965
(dp2966
g23
I0
sg24
(dp2967
Vtype
p2968
(lp2969
Vint
p2970
asVname
p2971
(lp2972
Vid
p2973
asVdescription
p2974
(lp2975
Vid for the rule
p2976
assba(ipoplib
MultiDict
p2977
(dp2978
g23
I0
sg24
(dp2979
Vtype
p2980
(lp2981
Vint
p2982
asVname
p2983
(lp2984
Vcounter
p2985
asVdescription
p2986
(lp2987
VUser counter for each rule
p2988
assba(ipoplib
MultiDict
p2989
(dp2990
g23
I0
sg24
(dp2991
Vtype
p2992
(lp2993
Vdouble
p2994
asVname
p2995
(lp2996
Vperformance
p2997
asVdescription
p2998
(lp2999
VTotal performance for each rule
p3000
assba(ipoplib
MultiDict
p3001
(dp3002
g23
I0
sg24
(dp3003
Vtype
p3004
(lp3005
Vdouble
p3006
asVname
p3007
(lp3008
Vavg_performance
p3009
asVdescription
p3010
(lp3011
VAverage performance for each rule (=total performance/counter)
p3012
assba(ipoplib
MultiDict
p3013
(dp3014
g23
I0
sg24
(dp3015
Vtype
p3016
(lp3017
Vdouble
p3018
asVname
p3019
(lp3020
Vselection_prob
p3021
asVdescription
p3022
(lp3023
VSelection probability for the rule
p3024
assba(ipoplib
MultiDict
p3025
(dp3026
g23
I0
sg24
(dp3027
Vtype
p3028
(lp3029
Vdouble
p3030
asVname
p3031
(lp3032
Vparameters[10]
p3033
asVdescription
p3034
(lp3035
VParameter values encoding the rule
p3036
assbassbasVname
p3037
(lp3038
VPublicClassifierRule
p3039
asVdescription
p3040
(lp3041
VDatatype for the central classifier system. The system is a dynamic array of PublicClassifierRules !Subject to change!
p3042
assba(ipoplib
MultiDict
p3043
(dp3044
g23
I0
sg24
(dp3045
N(lp3046
V***************************** Struct for the Private Classifier Rule *****************************
p3047
asVvariables
p3048
(lp3049
(ipoplib
MultiDict
p3050
(dp3051
g23
I0
sg24
(dp3052
Vvariable
p3053
(lp3054
(ipoplib
MultiDict
p3055
(dp3056
g23
I0
sg24
(dp3057
Vtype
p3058
(lp3059
Vint
p3060
asVname
p3061
(lp3062
Vid
p3063
asVdescription
p3064
(lp3065
Vid for each rule
p3066
assba(ipoplib
MultiDict
p3067
(dp3068
g23
I0
sg24
(dp3069
Vtype
p3070
(lp3071
Vdouble
p3072
asVname
p3073
(lp3074
Vmy_performance
p3075
asVdescription
p3076
(lp3077
VAgent performance with current_rule (0.0 if this rule is not currently used)
p3078
assba(ipoplib
MultiDict
p3079
(dp3080
g23
I0
sg24
(dp3081
Vtype
p3082
(lp3083
Vdouble
p3084
asVname
p3085
(lp3086
Vavg_performance
p3087
asVdescription
p3088
(lp3089
VAverage performance for this rule across population (copied from Central CS)
p3090
assba(ipoplib
MultiDict
p3091
(dp3092
g23
I0
sg24
(dp3093
Vtype
p3094
(lp3095
Vdouble
p3096
asVname
p3097
(lp3098
Vattraction
p3099
asVdescription
p3100
(lp3101
VAgent attractions
p3102
assba(ipoplib
MultiDict
p3103
(dp3104
g23
I0
sg24
(dp3105
Vtype
p3106
(lp3107
Vdouble
p3108
asVname
p3109
(lp3110
Vchoiceprob
p3111
asVdescription
p3112
(lp3113
VAgent choice probabilities
p3114
assba(ipoplib
MultiDict
p3115
(dp3116
g23
I0
sg24
(dp3117
Vtype
p3118
(lp3119
Vdouble
p3120
asVname
p3121
(lp3122
Vparameters[10]
p3123
asVdescription
p3124
(lp3125
VParameter values encoding the rule
p3126
assbassbasVname
p3127
(lp3128
VPrivateClassifierRule
p3129
asVdescription
p3130
(lp3131
VDatatype for the private classifier system inside each agent. The system is a dynamic array of PrivateClassifierRule.  !Subject to change!
p3132
assba(ipoplib
MultiDict
p3133
(dp3134
g23
I0
sg24
(dp3135
N(lp3136
V***************************** Struct for the Simple Public Classifier System *****************************
p3137
asVvariables
p3138
(lp3139
(ipoplib
MultiDict
p3140
(dp3141
g23
I0
sg24
(dp3142
Vvariable
p3143
(lp3144
(ipoplib
MultiDict
p3145
(dp3146
g23
I0
sg24
(dp3147
Vtype
p3148
(lp3149
Vint
p3150
asVname
p3151
(lp3152
Vnr_rules
p3153
asVdescription
p3154
(lp3155
VTotal number of rules in the rule set
p3156
assba(ipoplib
MultiDict
p3157
(dp3158
g23
I0
sg24
(dp3159
Vtype
p3160
(lp3161
VPublicClassifierRule
p3162
asVname
p3163
(lp3164
Vruletable[100]
p3165
asVdescription
p3166
(lp3167
VStatic array of 100 public classifier rules of homogeneous type
p3168
assbassbasVname
p3169
(lp3170
VSimplePublicClassifierSystem
p3171
asVdescription
p3172
(lp3173
VDatatype for the central classifier system. Simple version allows for rules of the same strategy type (all rules use the same function). !Subject to change!
p3174
assba(ipoplib
MultiDict
p3175
(dp3176
g23
I0
sg24
(dp3177
N(lp3178
V***************************** Struct for the Simple Private Classifier System *****************************
p3179
asVvariables
p3180
(lp3181
(ipoplib
MultiDict
p3182
(dp3183
g23
I0
sg24
(dp3184
Vvariable
p3185
(lp3186
(ipoplib
MultiDict
p3187
(dp3188
g23
I0
sg24
(dp3189
Vtype
p3190
(lp3191
Vint
p3192
asVname
p3193
(lp3194
Vnr_rules
p3195
asVdescription
p3196
(lp3197
VTotal number of rules in the rule set
p3198
assba(ipoplib
MultiDict
p3199
(dp3200
g23
I0
sg24
(dp3201
Vtype
p3202
(lp3203
Vdouble
p3204
asVname
p3205
(lp3206
Vexperience
p3207
asVdescription
p3208
(lp3209
VExperience variable for EWA learning
p3210
assba(ipoplib
MultiDict
p3211
(dp3212
g23
I0
sg24
(dp3213
Vtype
p3214
(lp3215
Vint
p3216
asVname
p3217
(lp3218
Vcurrent_rule
p3219
asVdescription
p3220
(lp3221
VCurrent rule in use by the agent
p3222
assba(ipoplib
MultiDict
p3223
(dp3224
g23
I0
sg24
(dp3225
Vtype
p3226
(lp3227
VPrivateClassifierRule
p3228
asVname
p3229
(lp3230
Vruletable[100]
p3231
asVdescription
p3232
(lp3233
VStatic array of 100 private classifier rules of homogeneous type
p3234
assbassbasVname
p3235
(lp3236
VSimplePrivateClassifierSystem
p3237
asVdescription
p3238
(lp3239
VDatatype for the private classifier system inside each agent. Simple version allows for rules of the same strategy type (all rules use the same function). !Subject to change!
p3240
assba(ipoplib
MultiDict
p3241
(dp3242
g23
I0
sg24
(dp3243
N(lp3244
V***************************** Struct for the Complex Public Classifier System *****************************
p3245
asVvariables
p3246
(lp3247
(ipoplib
MultiDict
p3248
(dp3249
g23
I0
sg24
(dp3250
Vvariable
p3251
(lp3252
(ipoplib
MultiDict
p3253
(dp3254
g23
I0
sg24
(dp3255
Vtype
p3256
(lp3257
Vint
p3258
asVname
p3259
(lp3260
Vnr_types
p3261
asVdescription
p3262
(lp3263
VNumber of subpopulations (different types of rules)
p3264
assba(ipoplib
MultiDict
p3265
(dp3266
g23
I0
sg24
(dp3267
Vtype
p3268
(lp3269
Vint_array
p3270
asVname
p3271
(lp3272
Vnr_rules_per_type
p3273
asVdescription
p3274
(lp3275
VNr_rules_per_type may differ per type: size of subpopulations
p3276
assba(ipoplib
MultiDict
p3277
(dp3278
g23
I0
sg24
(dp3279
Vtype
p3280
(lp3281
Vint
p3282
asVname
p3283
(lp3284
Vnr_rules
p3285
asVdescription
p3286
(lp3287
VTotal number of rules in the rule set
p3288
assba(ipoplib
MultiDict
p3289
(dp3290
g23
I0
sg24
(dp3291
Vtype
p3292
(lp3293
VPublicClassifierRule
p3294
asVname
p3295
(lp3296
Vruletable[100]
p3297
asVdescription
p3298
(lp3299
VStatic array of 100 public classifier rules of heterogenous type
p3300
assbassbasVname
p3301
(lp3302
VComplexPublicClassifierSystem
p3303
asVdescription
p3304
(lp3305
VDatatype for the central classifier system. This complex version allows for heterogeneous rule sets. !Subject to change!
p3306
assbasN(lp3307
V***************************** GA Datastructure *****************************
p3308
assbasN(lp3309
V***************************** EWA Datastructures *****************************
p3310
asVconstants
p3311
(lp3312
(ipoplib
MultiDict
p3313
(dp3314
g23
I0
sg24
(dp3315
Vvariable
p3316
(lp3317
(ipoplib
MultiDict
p3318
(dp3319
g23
I0
sg24
(dp3320
Vtype
p3321
(lp3322
Vint
p3323
asVname
p3324
(lp3325
Vnr_params
p3326
asVdescription
p3327
(lp3328
V10, Number of parameters in a portfolio rule.
p3329
assba(ipoplib
MultiDict
p3330
(dp3331
g23
I0
sg24
(dp3332
Vtype
p3333
(lp3334
Vint
p3335
asVname
p3336
(lp3337
Vprint_debug
p3338
asVdescription
p3339
(lp3340
V0 or 1, Boolean for debugging print statements.
p3341
assba(ipoplib
MultiDict
p3342
(dp3343
g23
I0
sg24
(dp3344
Vtype
p3345
(lp3346
Vint
p3347
asVname
p3348
(lp3349
Vprint_log
p3350
asVdescription
p3351
(lp3352
V0 or 1, A flag to print logging output to terminal or to file.
p3353
assbassbassbasVname
p3354
(lp3355
g2641
asVmodels
p3356
(lp3357
(ipoplib
MultiDict
p3358
(dp3359
g23
I0
sg24
(dp3360
sbasVmessages
p3361
(lp3362
(ipoplib
MultiDict
p3363
(dp3364
g23
I0
sg24
(dp3365
Vmessage
p3366
(lp3367
(ipoplib
MultiDict
p3368
(dp3369
g23
I0
sg24
(dp3370
Vvariables
p3371
(lp3372
(ipoplib
MultiDict
p3373
(dp3374
g23
I0
sg24
(dp3375
Vvariable
p3376
(lp3377
(ipoplib
MultiDict
p3378
(dp3379
g23
I0
sg24
(dp3380
Vtype
p3381
(lp3382
Vint
p3383
asVname
p3384
(lp3385
Vrule_id
p3386
assba(ipoplib
MultiDict
p3387
(dp3388
g23
I0
sg24
(dp3389
Vtype
p3390
(lp3391
Vdouble
p3392
asVname
p3393
(lp3394
Vrule_performance
p3395
assbassbasVname
p3396
(lp3397
Vrule_performance
p3398
assba(ipoplib
MultiDict
p3399
(dp3400
g23
I0
sg24
(dp3401
Vvariables
p3402
(lp3403
(ipoplib
MultiDict
p3404
(dp3405
g23
I0
sg24
(dp3406
Vvariable
p3407
(lp3408
(ipoplib
MultiDict
p3409
(dp3410
g23
I0
sg24
(dp3411
Vtype
p3412
(lp3413
Vint
p3414
asVname
p3415
(lp3416
Vrule_id
p3417
assba(ipoplib
MultiDict
p3418
(dp3419
g23
I0
sg24
(dp3420
Vtype
p3421
(lp3422
Vdouble
p3423
asVname
p3424
(lp3425
Vavg_performance
p3426
assbassbasVname
p3427
(lp3428
Vnew_performances
p3429
assba(ipoplib
MultiDict
p3430
(dp3431
g23
I0
sg24
(dp3432
Vvariables
p3433
(lp3434
(ipoplib
MultiDict
p3435
(dp3436
g23
I0
sg24
(dp3437
Vvariable
p3438
(lp3439
(ipoplib
MultiDict
p3440
(dp3441
g23
I0
sg24
(dp3442
Vtype
p3443
(lp3444
Vint
p3445
asVname
p3446
(lp3447
Vrule_id
p3448
assba(ipoplib
MultiDict
p3449
(dp3450
g23
I0
sg24
(dp3451
Vtype
p3452
(lp3453
Vdouble
p3454
asVname
p3455
(lp3456
Vparameters[10]
p3457
assbassbasVname
p3458
(lp3459
Vinitial_rule_details
p3460
assba(ipoplib
MultiDict
p3461
(dp3462
g23
I0
sg24
(dp3463
Vvariables
p3464
(lp3465
(ipoplib
MultiDict
p3466
(dp3467
g23
I0
sg24
(dp3468
Vvariable
p3469
(lp3470
(ipoplib
MultiDict
p3471
(dp3472
g23
I0
sg24
(dp3473
Vtype
p3474
(lp3475
Vint
p3476
asVname
p3477
(lp3478
Vrule_id
p3479
assba(ipoplib
MultiDict
p3480
(dp3481
g23
I0
sg24
(dp3482
Vtype
p3483
(lp3484
Vdouble
p3485
asVname
p3486
(lp3487
Vparameters[10]
p3488
assbassbasVname
p3489
(lp3490
Vrule_details
p3491
assbassbasN(lp3492
V************************* NOTES ***************************************
p3493
aVThis is the main description file for EWA learning in the financial market model
p3494
aVAgents involved: Household, FinancialAgent
p3495
aV***************** Environment values and functions **********************
p3496
asVversion
p3497
(lp3498
V3
p3499
asVagents
p3500
(lp3501
(ipoplib
MultiDict
p3502
(dp3503
g23
I0
sg24
(dp3504
N(lp3505
V********************* X-machine Agent - Household ****************************
p3506
aV*********************** End of Agent - Household *****************************
p3507
aV********************* X-machine Agent - FinancialAgent ****************************
p3508
aV*********************** End of Agent - FinancialAgent ****************************
p3509
asVxagent
p3510
(lp3511
(ipoplib
MultiDict
p3512
(dp3513
g23
I0
sg24
(dp3514
Vfunctions
p3515
(lp3516
(ipoplib
MultiDict
p3517
(dp3518
g23
I0
sg24
(dp3519
N(lp3520
VIdle bypassing the Initialization phase
p3521
aVInitialization phase
p3522
aVIdle bypassing the GA
p3523
aVIdle bypassing the EWA
p3524
asVfunction
p3525
(lp3526
(ipoplib
MultiDict
p3527
(dp3528
g23
I0
sg24
(dp3529
Vnextstate
p3530
(lp3531
VStart_GA
p3532
asVcondition
p3533
(lp3534
(ipoplib
MultiDict
p3535
(dp3536
g23
I0
sg24
(dp3537
Vnot
p3538
(lp3539
(ipoplib
MultiDict
p3540
(dp3541
g23
I0
sg24
(dp3542
Vtime
p3543
(lp3544
(ipoplib
MultiDict
p3545
(dp3546
g23
I0
sg24
(dp3547
Vphase
p3548
(lp3549
V1
p3550
asVperiod
p3551
(lp3552
Viteration
p3553
assbassbassbasVname
p3554
(lp3555
Vidle
p3556
asVcurrentstate
p3557
(lp3558
VStart_Household_EWA_Learning
p3559
asVdescription
p3560
(lp3561
VIdle bypassing Initialization phase
p3562
assba(ipoplib
MultiDict
p3563
(dp3564
g23
I0
sg24
(dp3565
Vinputs
p3566
(lp3567
(ipoplib
MultiDict
p3568
(dp3569
g23
I0
sg24
(dp3570
Vinput
p3571
(lp3572
(ipoplib
MultiDict
p3573
(dp3574
g23
I0
sg24
(dp3575
Vmessagename
p3576
(lp3577
Vinitial_rule_details
p3578
assbassbasVcondition
p3579
(lp3580
(ipoplib
MultiDict
p3581
(dp3582
g23
I0
sg24
(dp3583
Vtime
p3584
(lp3585
(ipoplib
MultiDict
p3586
(dp3587
g23
I0
sg24
(dp3588
Vphase
p3589
(lp3590
V1
p3591
asVperiod
p3592
(lp3593
Viteration
p3594
assbassbasVname
p3595
(lp3596
VHousehold_initialize_rule_details
p3597
asVcurrentstate
p3598
(lp3599
VStart_Household_EWA_Learning
p3600
asVnextstate
p3601
(lp3602
VStart_GA
p3603
assba(ipoplib
MultiDict
p3604
(dp3605
g23
I0
sg24
(dp3606
Vnextstate
p3607
(lp3608
VEnd_GA
p3609
asVcondition
p3610
(lp3611
(ipoplib
MultiDict
p3612
(dp3613
g23
I0
sg24
(dp3614
Vrhs
p3615
(lp3616
(ipoplib
MultiDict
p3617
(dp3618
g23
I0
sg24
(dp3619
Vtime
p3620
(lp3621
(ipoplib
MultiDict
p3622
(dp3623
g23
I0
sg24
(dp3624
Vphase
p3625
(lp3626
V1
p3627
asVperiod
p3628
(lp3629
Viteration
p3630
assbassbasVlhs
p3631
(lp3632
(ipoplib
MultiDict
p3633
(dp3634
g23
I0
sg24
(dp3635
Vnot
p3636
(lp3637
(ipoplib
MultiDict
p3638
(dp3639
g23
I0
sg24
(dp3640
Vtime
p3641
(lp3642
(ipoplib
MultiDict
p3643
(dp3644
g23
I0
sg24
(dp3645
Vphase
p3646
(lp3647
V1
p3648
asVperiod
p3649
(lp3650
Vyearly
p3651
assbassbassbasVop
p3652
(lp3653
VOR
p3654
assbasVname
p3655
(lp3656
Vidle
p3657
asVcurrentstate
p3658
(lp3659
VStart_GA
p3660
asVdescription
p3661
(lp3662
VIdle bypassing the GA
p3663
assba(ipoplib
MultiDict
p3664
(dp3665
g23
I0
sg24
(dp3666
Vcondition
p3667
(lp3668
(ipoplib
MultiDict
p3669
(dp3670
g23
I0
sg24
(dp3671
Vrhs
p3672
(lp3673
(ipoplib
MultiDict
p3674
(dp3675
g23
I0
sg24
(dp3676
Vnot
p3677
(lp3678
(ipoplib
MultiDict
p3679
(dp3680
g23
I0
sg24
(dp3681
Vtime
p3682
(lp3683
(ipoplib
MultiDict
p3684
(dp3685
g23
I0
sg24
(dp3686
Vphase
p3687
(lp3688
V1
p3689
asVperiod
p3690
(lp3691
Viteration
p3692
assbassbassbasVlhs
p3693
(lp3694
(ipoplib
MultiDict
p3695
(dp3696
g23
I0
sg24
(dp3697
Vtime
p3698
(lp3699
(ipoplib
MultiDict
p3700
(dp3701
g23
I0
sg24
(dp3702
Vphase
p3703
(lp3704
V1
p3705
asVperiod
p3706
(lp3707
Vyearly
p3708
assbassbasVop
p3709
(lp3710
VAND
p3711
assbasVname
p3712
(lp3713
VHousehold_print_private_classifiersystem
p3714
asVcurrentstate
p3715
(lp3716
VStart_GA
p3717
asVnextstate
p3718
(lp3719
V01
p3720
assba(ipoplib
MultiDict
p3721
(dp3722
g23
I0
sg24
(dp3723
Vname
p3724
(lp3725
VHousehold_reset_private_classifiersystem
p3726
asVcurrentstate
p3727
(lp3728
V01
p3729
asVnextstate
p3730
(lp3731
V02
p3732
assba(ipoplib
MultiDict
p3733
(dp3734
g23
I0
sg24
(dp3735
Vinputs
p3736
(lp3737
(ipoplib
MultiDict
p3738
(dp3739
g23
I0
sg24
(dp3740
Vinput
p3741
(lp3742
(ipoplib
MultiDict
p3743
(dp3744
g23
I0
sg24
(dp3745
Vmessagename
p3746
(lp3747
Vrule_details
p3748
assbassbasVname
p3749
(lp3750
VHousehold_read_and_update_rule_details
p3751
asVcurrentstate
p3752
(lp3753
V02
p3754
asVnextstate
p3755
(lp3756
VEnd_GA
p3757
assba(ipoplib
MultiDict
p3758
(dp3759
g23
I0
sg24
(dp3760
Vnextstate
p3761
(lp3762
VEnd_Household_EWA_Learning
p3763
asVcondition
p3764
(lp3765
(ipoplib
MultiDict
p3766
(dp3767
g23
I0
sg24
(dp3768
Vrhs
p3769
(lp3770
(ipoplib
MultiDict
p3771
(dp3772
g23
I0
sg24
(dp3773
Vtime
p3774
(lp3775
(ipoplib
MultiDict
p3776
(dp3777
g23
I0
sg24
(dp3778
Vphase
p3779
(lp3780
V1
p3781
asVperiod
p3782
(lp3783
Viteration
p3784
assbassbasVlhs
p3785
(lp3786
(ipoplib
MultiDict
p3787
(dp3788
g23
I0
sg24
(dp3789
Vnot
p3790
(lp3791
(ipoplib
MultiDict
p3792
(dp3793
g23
I0
sg24
(dp3794
Vtime
p3795
(lp3796
(ipoplib
MultiDict
p3797
(dp3798
g23
I0
sg24
(dp3799
Vphase
p3800
(lp3801
Va.day_of_month_to_act
p3802
asVperiod
p3803
(lp3804
Vmonthly
p3805
assbassbassbasVop
p3806
(lp3807
VOR
p3808
assbasVname
p3809
(lp3810
Vidle
p3811
asVcurrentstate
p3812
(lp3813
VEnd_GA
p3814
asVdescription
p3815
(lp3816
VIdle bypassing the EWA
p3817
assba(ipoplib
MultiDict
p3818
(dp3819
g23
I0
sg24
(dp3820
Voutputs
p3821
(lp3822
(ipoplib
MultiDict
p3823
(dp3824
g23
I0
sg24
(dp3825
Voutput
p3826
(lp3827
(ipoplib
MultiDict
p3828
(dp3829
g23
I0
sg24
(dp3830
Vmessagename
p3831
(lp3832
Vrule_performance
p3833
assbassbasVcondition
p3834
(lp3835
(ipoplib
MultiDict
p3836
(dp3837
g23
I0
sg24
(dp3838
Vrhs
p3839
(lp3840
(ipoplib
MultiDict
p3841
(dp3842
g23
I0
sg24
(dp3843
Vnot
p3844
(lp3845
(ipoplib
MultiDict
p3846
(dp3847
g23
I0
sg24
(dp3848
Vtime
p3849
(lp3850
(ipoplib
MultiDict
p3851
(dp3852
g23
I0
sg24
(dp3853
Vphase
p3854
(lp3855
V1
p3856
asVperiod
p3857
(lp3858
Viteration
p3859
assbassbassbasVlhs
p3860
(lp3861
(ipoplib
MultiDict
p3862
(dp3863
g23
I0
sg24
(dp3864
Vtime
p3865
(lp3866
(ipoplib
MultiDict
p3867
(dp3868
g23
I0
sg24
(dp3869
Vphase
p3870
(lp3871
Va.day_of_month_to_act
p3872
asVperiod
p3873
(lp3874
Vmonthly
p3875
assbassbasVop
p3876
(lp3877
VAND
p3878
assbasVname
p3879
(lp3880
VHousehold_send_rule_performance
p3881
asVcurrentstate
p3882
(lp3883
VEnd_GA
p3884
asVnextstate
p3885
(lp3886
V03
p3887
assba(ipoplib
MultiDict
p3888
(dp3889
g23
I0
sg24
(dp3890
Vinputs
p3891
(lp3892
(ipoplib
MultiDict
p3893
(dp3894
g23
I0
sg24
(dp3895
Vinput
p3896
(lp3897
(ipoplib
MultiDict
p3898
(dp3899
g23
I0
sg24
(dp3900
Vmessagename
p3901
(lp3902
Vnew_performances
p3903
assbassbasVname
p3904
(lp3905
VHousehold_read_all_performances
p3906
asVcurrentstate
p3907
(lp3908
V03
p3909
asVnextstate
p3910
(lp3911
V04
p3912
assba(ipoplib
MultiDict
p3913
(dp3914
g23
I0
sg24
(dp3915
Vname
p3916
(lp3917
VHousehold_select_rule
p3918
asVcurrentstate
p3919
(lp3920
V04
p3921
asVnextstate
p3922
(lp3923
VEnd_Household_EWA_Learning
p3924
assbassbasVname
p3925
(lp3926
g2001
asVmemory
p3927
(lp3928
(ipoplib
MultiDict
p3929
(dp3930
g23
I0
sg24
(dp3931
Vvariable
p3932
(lp3933
(ipoplib
MultiDict
p3934
(dp3935
g23
I0
sg24
(dp3936
Vtype
p3937
(lp3938
Vint
p3939
asVname
p3940
(lp3941
Vid
p3942
assba(ipoplib
MultiDict
p3943
(dp3944
g23
I0
sg24
(dp3945
Vtype
p3946
(lp3947
Vint
p3948
asVname
p3949
(lp3950
Vday_of_month_to_act
p3951
assba(ipoplib
MultiDict
p3952
(dp3953
g23
I0
sg24
(dp3954
Vtype
p3955
(lp3956
VEWAParameterStruct
p3957
asVname
p3958
(lp3959
VEWA_parameters
p3960
assba(ipoplib
MultiDict
p3961
(dp3962
g23
I0
sg24
(dp3963
Vtype
p3964
(lp3965
VSimplePrivateClassifierSystem
p3966
asVname
p3967
(lp3968
Vprivate_classifiersystem
p3969
assbassbassba(ipoplib
MultiDict
p3970
(dp3971
g23
I0
sg24
(dp3972
Vfunctions
p3973
(lp3974
(ipoplib
MultiDict
p3975
(dp3976
g23
I0
sg24
(dp3977
N(lp3978
VIdle bypassing the Initialization phase
p3979
aVInitialisation phase of FA
p3980
aVIdle bypassing the GA
p3981
asVfunction
p3982
(lp3983
(ipoplib
MultiDict
p3984
(dp3985
g23
I0
sg24
(dp3986
Vnextstate
p3987
(lp3988
VStart_GA
p3989
asVcondition
p3990
(lp3991
(ipoplib
MultiDict
p3992
(dp3993
g23
I0
sg24
(dp3994
Vnot
p3995
(lp3996
(ipoplib
MultiDict
p3997
(dp3998
g23
I0
sg24
(dp3999
Vtime
p4000
(lp4001
(ipoplib
MultiDict
p4002
(dp4003
g23
I0
sg24
(dp4004
Vphase
p4005
(lp4006
V1
p4007
asVperiod
p4008
(lp4009
Viteration
p4010
assbassbassbasVname
p4011
(lp4012
Vidle
p4013
asVcurrentstate
p4014
(lp4015
VStart_FinancialAgent
p4016
asVdescription
p4017
(lp4018
VIdle bypassing Initialization phase
p4019
assba(ipoplib
MultiDict
p4020
(dp4021
g23
I0
sg24
(dp4022
Voutput
p4023
(lp4024
(ipoplib
MultiDict
p4025
(dp4026
g23
I0
sg24
(dp4027
Vmessagename
p4028
(lp4029
Vinitial_rule_details
p4030
assbasVcondition
p4031
(lp4032
(ipoplib
MultiDict
p4033
(dp4034
g23
I0
sg24
(dp4035
Vtime
p4036
(lp4037
(ipoplib
MultiDict
p4038
(dp4039
g23
I0
sg24
(dp4040
Vphase
p4041
(lp4042
V1
p4043
asVperiod
p4044
(lp4045
Viteration
p4046
assbassbasVname
p4047
(lp4048
VFinancialAgent_initialize_rule_details
p4049
asVcurrentstate
p4050
(lp4051
VStart_FinancialAgent
p4052
asVnextstate
p4053
(lp4054
VStart_GA
p4055
assba(ipoplib
MultiDict
p4056
(dp4057
g23
I0
sg24
(dp4058
Vnextstate
p4059
(lp4060
VEnd_GA
p4061
asVcondition
p4062
(lp4063
(ipoplib
MultiDict
p4064
(dp4065
g23
I0
sg24
(dp4066
Vrhs
p4067
(lp4068
(ipoplib
MultiDict
p4069
(dp4070
g23
I0
sg24
(dp4071
Vtime
p4072
(lp4073
(ipoplib
MultiDict
p4074
(dp4075
g23
I0
sg24
(dp4076
Vphase
p4077
(lp4078
V1
p4079
asVperiod
p4080
(lp4081
Viteration
p4082
assbassbasVlhs
p4083
(lp4084
(ipoplib
MultiDict
p4085
(dp4086
g23
I0
sg24
(dp4087
Vnot
p4088
(lp4089
(ipoplib
MultiDict
p4090
(dp4091
g23
I0
sg24
(dp4092
Vtime
p4093
(lp4094
(ipoplib
MultiDict
p4095
(dp4096
g23
I0
sg24
(dp4097
Vphase
p4098
(lp4099
V1
p4100
asVperiod
p4101
(lp4102
Vyearly
p4103
assbassbassbasVop
p4104
(lp4105
VOR
p4106
assbasVname
p4107
(lp4108
Vidle
p4109
asVcurrentstate
p4110
(lp4111
VStart_GA
p4112
asVdescription
p4113
(lp4114
VIdle bypassing the GA
p4115
assba(ipoplib
MultiDict
p4116
(dp4117
g23
I0
sg24
(dp4118
Vcondition
p4119
(lp4120
(ipoplib
MultiDict
p4121
(dp4122
g23
I0
sg24
(dp4123
Vrhs
p4124
(lp4125
(ipoplib
MultiDict
p4126
(dp4127
g23
I0
sg24
(dp4128
Vnot
p4129
(lp4130
(ipoplib
MultiDict
p4131
(dp4132
g23
I0
sg24
(dp4133
Vtime
p4134
(lp4135
(ipoplib
MultiDict
p4136
(dp4137
g23
I0
sg24
(dp4138
Vphase
p4139
(lp4140
V1
p4141
asVperiod
p4142
(lp4143
Viteration
p4144
assbassbassbasVlhs
p4145
(lp4146
(ipoplib
MultiDict
p4147
(dp4148
g23
I0
sg24
(dp4149
Vtime
p4150
(lp4151
(ipoplib
MultiDict
p4152
(dp4153
g23
I0
sg24
(dp4154
Vphase
p4155
(lp4156
V1
p4157
asVperiod
p4158
(lp4159
Vyearly
p4160
assbassbasVop
p4161
(lp4162
VAND
p4163
assbasVname
p4164
(lp4165
VFinancialAgent_apply_GA
p4166
asVcurrentstate
p4167
(lp4168
VStart_GA
p4169
asVnextstate
p4170
(lp4171
V01
p4172
assba(ipoplib
MultiDict
p4173
(dp4174
g23
I0
sg24
(dp4175
Voutputs
p4176
(lp4177
(ipoplib
MultiDict
p4178
(dp4179
g23
I0
sg24
(dp4180
Voutput
p4181
(lp4182
(ipoplib
MultiDict
p4183
(dp4184
g23
I0
sg24
(dp4185
Vmessagename
p4186
(lp4187
Vrule_details
p4188
assbassbasVname
p4189
(lp4190
VFinancialAgent_send_rule_details
p4191
asVcurrentstate
p4192
(lp4193
V01
p4194
asVnextstate
p4195
(lp4196
V02
p4197
assba(ipoplib
MultiDict
p4198
(dp4199
g23
I0
sg24
(dp4200
Voutputs
p4201
(lp4202
(ipoplib
MultiDict
p4203
(dp4204
g23
I0
sg24
(dp4205
sbasVname
p4206
(lp4207
VFinancialAgent_print_public_classifiersystem
p4208
asVcurrentstate
p4209
(lp4210
V02
p4211
asVnextstate
p4212
(lp4213
V03
p4214
assba(ipoplib
MultiDict
p4215
(dp4216
g23
I0
sg24
(dp4217
Vnextstate
p4218
(lp4219
VEnd_GA
p4220
asVname
p4221
(lp4222
VFinancialAgent_reset_public_classifiersystem
p4223
asVcurrentstate
p4224
(lp4225
V03
p4226
asVdescription
p4227
(lp4228
VResetting user counter, performance sum, avg_performance
p4229
assba(ipoplib
MultiDict
p4230
(dp4231
g23
I0
sg24
(dp4232
Vinputs
p4233
(lp4234
(ipoplib
MultiDict
p4235
(dp4236
g23
I0
sg24
(dp4237
Vinput
p4238
(lp4239
(ipoplib
MultiDict
p4240
(dp4241
g23
I0
sg24
(dp4242
Vmessagename
p4243
(lp4244
Vrule_performance
p4245
assbassbasVname
p4246
(lp4247
VFinancialAgent_read_rule_performance_and_update_classifiersystem
p4248
asVcurrentstate
p4249
(lp4250
VEnd_GA
p4251
asVnextstate
p4252
(lp4253
V04
p4254
assba(ipoplib
MultiDict
p4255
(dp4256
g23
I0
sg24
(dp4257
Voutputs
p4258
(lp4259
(ipoplib
MultiDict
p4260
(dp4261
g23
I0
sg24
(dp4262
Voutput
p4263
(lp4264
(ipoplib
MultiDict
p4265
(dp4266
g23
I0
sg24
(dp4267
Vmessagename
p4268
(lp4269
Vnew_performances
p4270
assbassbasVname
p4271
(lp4272
VFinancialAgent_send_all_performances
p4273
asVcurrentstate
p4274
(lp4275
V04
p4276
asVnextstate
p4277
(lp4278
Vend_FinancialAgent
p4279
assbassbasVname
p4280
(lp4281
g2002
asVmemory
p4282
(lp4283
(ipoplib
MultiDict
p4284
(dp4285
g23
I0
sg24
(dp4286
Vvariable
p4287
(lp4288
(ipoplib
MultiDict
p4289
(dp4290
g23
I0
sg24
(dp4291
Vtype
p4292
(lp4293
Vint
p4294
asVname
p4295
(lp4296
Vid
p4297
assba(ipoplib
MultiDict
p4298
(dp4299
g23
I0
sg24
(dp4300
Vtype
p4301
(lp4302
VSimplePublicClassifierSystem
p4303
asVname
p4304
(lp4305
Vpublic_classifiersystem
p4306
assba(ipoplib
MultiDict
p4307
(dp4308
g23
I0
sg24
(dp4309
Vtype
p4310
(lp4311
VGAParameterStruct
p4312
asVname
p4313
(lp4314
VGA_parameters
p4315
assba(ipoplib
MultiDict
p4316
(dp4317
g23
I0
sg24
(dp4318
Vtype
p4319
(lp4320
VEWAParameterStruct
p4321
asVname
p4322
(lp4323
VEWA_parameters
p4324
assbassbassbassbasVdescription
p4325
(lp4326
VAuthor: Sander van der Hoog, 01/06/2007, 05/03/2008, 22/05/2008, Converted from old XMML 1.0
p4327
assbassbsg1711
g18
ssg1712
(lp4328
(ipoplib
DataType
p4329
(dp4330
g1716
(lp4331
g2760
ag2769
ag2778
ag2787
asg4
g2790
sg1718
(dp4332
g2769
(dp4333
g1721
g2766
sg1722
g1723
ssg2787
(dp4334
g1721
g2784
sg1722
g1723
ssg2760
(dp4335
g1721
g2757
sg1722
g1723
ssg2778
(dp4336
g1721
g2775
sg1722
g1723
sssg1722
g2793
sba(ipoplib
DataType
p4337
(dp4338
g1716
(lp4339
g2814
ag2826
ag2838
ag2847
ag2859
ag2871
ag2883
ag2895
ag2907
ag2919
ag2931
ag2943
asg4
g2949
sg1718
(dp4340
g2907
(dp4341
g1721
g2904
sg1722
g2910
ssg2814
(dp4342
g1721
g2811
sg1722
g2817
ssg2895
(dp4343
g1721
g2892
sg1722
g2898
ssg2943
(dp4344
g1721
g2940
sg1722
g2946
ssg2871
(dp4345
g1721
g2868
sg1722
g2874
ssg2826
(dp4346
g1721
g2823
sg1722
g2829
ssg2919
(dp4347
g1721
g2916
sg1722
g2922
ssg2838
(dp4348
g1721
g2835
sg1722
g1723
ssg2883
(dp4349
g1721
g2880
sg1722
g2886
ssg2859
(dp4350
g1721
g2856
sg1722
g2862
ssg2931
(dp4351
g1721
g2928
sg1722
g2934
ssg2847
(dp4352
g1721
g2844
sg1722
g2850
sssg1722
g2952
sba(ipoplib
DataType
p4353
(dp4354
g1716
(lp4355
g2973
ag2985
ag2997
ag3009
ag3021
ag3033
asg4
g3039
sg1718
(dp4356
g3021
(dp4357
g1721
g3018
sg1722
g3024
ssg2985
(dp4358
g1721
g2982
sg1722
g2988
ssg3033
(dp4359
g1721
g3030
sg1722
g3036
ssg3009
(dp4360
g1721
g3006
sg1722
g3012
ssg2997
(dp4361
g1721
g2994
sg1722
g3000
ssg2973
(dp4362
g1721
g2970
sg1722
g2976
sssg1722
g3042
sba(ipoplib
DataType
p4363
(dp4364
g1716
(lp4365
g3063
ag3075
ag3087
ag3099
ag3111
ag3123
asg4
g3129
sg1718
(dp4366
g3111
(dp4367
g1721
g3108
sg1722
g3114
ssg3123
(dp4368
g1721
g3120
sg1722
g3126
ssg3099
(dp4369
g1721
g3096
sg1722
g3102
ssg3087
(dp4370
g1721
g3084
sg1722
g3090
ssg3075
(dp4371
g1721
g3072
sg1722
g3078
ssg3063
(dp4372
g1721
g3060
sg1722
g3066
sssg1722
g3132
sba(ipoplib
DataType
p4373
(dp4374
g1716
(lp4375
g3153
ag3165
asg4
g3171
sg1718
(dp4376
g3153
(dp4377
g1721
g3150
sg1722
g3156
ssg3165
(dp4378
g1721
g3162
sg1722
g3168
sssg1722
g3174
sba(ipoplib
DataType
p4379
(dp4380
g1716
(lp4381
g3195
ag3207
ag3219
ag3231
asg4
g3237
sg1718
(dp4382
g3195
(dp4383
g1721
g3192
sg1722
g3198
ssg3219
(dp4384
g1721
g3216
sg1722
g3222
ssg3231
(dp4385
g1721
g3228
sg1722
g3234
ssg3207
(dp4386
g1721
g3204
sg1722
g3210
sssg1722
g3240
sba(ipoplib
DataType
p4387
(dp4388
g1716
(lp4389
g3261
ag3273
ag3285
ag3297
asg4
g3303
sg1718
(dp4390
g3285
(dp4391
g1721
g3282
sg1722
g3288
ssg3273
(dp4392
g1721
g3270
sg1722
g3276
ssg3297
(dp4393
g1721
g3294
sg1722
g3300
ssg3261
(dp4394
g1721
g3258
sg1722
g3264
sssg1722
g3306
sbasg1785
(lp4395
(ipoplib
Agent
p4396
(dp4397
g1789
(lp4398
g3942
ag3951
ag3960
ag3969
asg4
g2001
sg1791
(lp4399
(ipoplib
MemVar
p4400
(dp4401
g1795
I0
sg1796
g3939
sg4
g3942
sg1797
Nsg1798
g4396
sg1799
I0
sg1800
(dp4402
g3942
(ipoplib
BaseForm
p4403
(dp4404
g1804
g18
sg1797
g4400
sg1805
g1819
sbssg1807
g3942
sg12
g2638
sg1721
g3939
sg1722
g1723
sba(ipoplib
MemVar
p4405
(dp4406
g1795
I0
sg1796
g3948
sg4
g3951
sg1797
Nsg1798
g4396
sg1799
I0
sg1800
(dp4407
g3951
(ipoplib
BaseForm
p4408
(dp4409
g1804
g3948
sg1797
g4405
sg1805
g1819
sbssg1807
g3951
sg12
g2638
sg1721
g3948
sg1722
g1723
sba(ipoplib
MemVar
p4410
(dp4411
g1795
I0
sg1796
g3957
sg4
g3960
sg1797
Nsg1798
g4396
sg1799
I0
sg1800
(dp4412
g2769
(ipoplib
BaseForm
p4413
(dp4414
g1804
g2766
sg1797
g4410
sg1805
g1819
sbsg2787
(ipoplib
BaseForm
p4415
(dp4416
g1804
g2784
sg1797
g4410
sg1805
g1819
sbsg2760
(ipoplib
BaseForm
p4417
(dp4418
g1804
g2757
sg1797
g4410
sg1805
g1819
sbsg2778
(ipoplib
BaseForm
p4419
(dp4420
g1804
g2775
sg1797
g4410
sg1805
g1819
sbssg1807
g3960
sg12
g2638
sg1721
g3957
sg1722
g1723
sba(ipoplib
MemVar
p4421
(dp4422
g1795
I0
sg1796
g3966
sg4
g3969
sg1797
Nsg1798
g4396
sg1799
I0
sg1800
(dp4423
g3195
(ipoplib
BaseForm
p4424
(dp4425
g1804
g3192
sg1797
g4421
sg1805
g1819
sbsg3219
(ipoplib
BaseForm
p4426
(dp4427
g1804
g3216
sg1797
g4421
sg1805
g1819
sbsg3231
(ipoplib
MemVar
p4428
(dp4429
g1795
I1
sg1796
g3228
sg4
Vruletable
p4430
sg1797
g4421
sg1798
g4396
sg1799
V100
p4431
sg1800
(dp4432
g3099
(ipoplib
BaseForm
p4433
(dp4434
g1804
g3096
sg1797
g4428
sg1805
g1819
sbsg3111
(ipoplib
BaseForm
p4435
(dp4436
g1804
g3108
sg1797
g4428
sg1805
g1819
sbsg3075
(ipoplib
BaseForm
p4437
(dp4438
g1804
g3072
sg1797
g4428
sg1805
g1819
sbsg1849
(ipoplib
BaseFormStatic
p4439
(dp4440
g1804
g18
sg1797
g4428
sg1805
g1819
sbsg3087
(ipoplib
BaseForm
p4441
(dp4442
g1804
g3084
sg1797
g4428
sg1805
g1819
sbsg3123
(ipoplib
MemVar
p4443
(dp4444
g1795
I1
sg1796
g3120
sg4
Vparameters
p4445
sg1797
g4428
sg1798
g4396
sg1799
V10
p4446
sg1800
(dp4447
g1849
(ipoplib
BaseFormStatic
p4448
(dp4449
g1804
g18
sg1797
g4443
sg1805
g1819
sbsg4445
(ipoplib
BaseForm
p4450
(dp4451
g1804
g3120
sg1797
g4443
sg1805
g1819
sbssg1807
g3123
sg12
g2638
sg1721
g3120
sg1722
g1866
sbsg3063
(ipoplib
BaseForm
p4452
(dp4453
g1804
g3060
sg1797
g4428
sg1805
g1819
sbssg1807
g3231
sg12
g2638
sg1721
g3228
sg1722
g1866
sbsg3207
(ipoplib
BaseForm
p4454
(dp4455
g1804
g3204
sg1797
g4421
sg1805
g1819
sbssg1807
g3969
sg12
g2638
sg1721
g3966
sg1722
g1723
sbasg1722
g1723
sba(ipoplib
Agent
p4456
(dp4457
g1789
(lp4458
g4297
ag4306
ag4315
ag4324
asg4
g2002
sg1791
(lp4459
(ipoplib
MemVar
p4460
(dp4461
g1795
I0
sg1796
g4294
sg4
g4297
sg1797
Nsg1798
g4456
sg1799
I0
sg1800
(dp4462
g4297
(ipoplib
BaseForm
p4463
(dp4464
g1804
g18
sg1797
g4460
sg1805
g1819
sbssg1807
g4297
sg12
g2638
sg1721
g4294
sg1722
g1723
sba(ipoplib
MemVar
p4465
(dp4466
g1795
I0
sg1796
g4303
sg4
g4306
sg1797
Nsg1798
g4456
sg1799
I0
sg1800
(dp4467
g3153
(ipoplib
BaseForm
p4468
(dp4469
g1804
g3150
sg1797
g4465
sg1805
g1819
sbsg3165
(ipoplib
MemVar
p4470
(dp4471
g1795
I1
sg1796
g3162
sg4
Vruletable
p4472
sg1797
g4465
sg1798
g4456
sg1799
V100
p4473
sg1800
(dp4474
g3021
(ipoplib
BaseForm
p4475
(dp4476
g1804
g3018
sg1797
g4470
sg1805
g1819
sbsg2985
(ipoplib
BaseForm
p4477
(dp4478
g1804
g2982
sg1797
g4470
sg1805
g1819
sbsg3033
(ipoplib
MemVar
p4479
(dp4480
g1795
I1
sg1796
g3030
sg4
Vparameters
p4481
sg1797
g4470
sg1798
g4456
sg1799
V10
p4482
sg1800
(dp4483
g1849
(ipoplib
BaseFormStatic
p4484
(dp4485
g1804
g18
sg1797
g4479
sg1805
g1819
sbsg4481
(ipoplib
BaseForm
p4486
(dp4487
g1804
g3030
sg1797
g4479
sg1805
g1819
sbssg1807
g3033
sg12
g2638
sg1721
g3030
sg1722
g1866
sbsg1849
(ipoplib
BaseFormStatic
p4488
(dp4489
g1804
g18
sg1797
g4470
sg1805
g1819
sbsg3009
(ipoplib
BaseForm
p4490
(dp4491
g1804
g3006
sg1797
g4470
sg1805
g1819
sbsg2997
(ipoplib
BaseForm
p4492
(dp4493
g1804
g2994
sg1797
g4470
sg1805
g1819
sbsg2973
(ipoplib
BaseForm
p4494
(dp4495
g1804
g2970
sg1797
g4470
sg1805
g1819
sbssg1807
g3165
sg12
g2638
sg1721
g3162
sg1722
g1866
sbssg1807
g4306
sg12
g2638
sg1721
g4303
sg1722
g1723
sba(ipoplib
MemVar
p4496
(dp4497
g1795
I0
sg1796
g4312
sg4
g4315
sg1797
Nsg1798
g4456
sg1799
I0
sg1800
(dp4498
g2907
(ipoplib
BaseForm
p4499
(dp4500
g1804
g2904
sg1797
g4496
sg1805
g1819
sbsg2814
(ipoplib
BaseForm
p4501
(dp4502
g1804
g2811
sg1797
g4496
sg1805
g1819
sbsg2895
(ipoplib
MemVar
p4503
(dp4504
g1795
I1
sg1796
g2892
sg4
Vstepsize
p4505
sg1797
g4496
sg1798
g4456
sg1799
V10
p4506
sg1800
(dp4507
g1849
(ipoplib
BaseFormStatic
p4508
(dp4509
g1804
g18
sg1797
g4503
sg1805
g1819
sbsg4505
(ipoplib
BaseForm
p4510
(dp4511
g1804
g2892
sg1797
g4503
sg1805
g1819
sbssg1807
g2895
sg12
g2638
sg1721
g2892
sg1722
g1866
sbsg2943
(ipoplib
MemVar
p4512
(dp4513
g1795
I1
sg1796
g2940
sg4
Vmax_values
p4514
sg1797
g4496
sg1798
g4456
sg1799
V10
p4515
sg1800
(dp4516
g1849
(ipoplib
BaseFormStatic
p4517
(dp4518
g1804
g18
sg1797
g4512
sg1805
g1819
sbsg4514
(ipoplib
BaseForm
p4519
(dp4520
g1804
g2940
sg1797
g4512
sg1805
g1819
sbssg1807
g2943
sg12
g2638
sg1721
g2940
sg1722
g1866
sbsg2871
(ipoplib
BaseForm
p4521
(dp4522
g1804
g2868
sg1797
g4496
sg1805
g1819
sbsg2826
(ipoplib
BaseForm
p4523
(dp4524
g1804
g2823
sg1797
g4496
sg1805
g1819
sbsg2919
(ipoplib
BaseForm
p4525
(dp4526
g1804
g2916
sg1797
g4496
sg1805
g1819
sbsg2838
(ipoplib
BaseForm
p4527
(dp4528
g1804
g2835
sg1797
g4496
sg1805
g1819
sbsg2883
(ipoplib
BaseForm
p4529
(dp4530
g1804
g2880
sg1797
g4496
sg1805
g1819
sbsg2859
(ipoplib
BaseForm
p4531
(dp4532
g1804
g2856
sg1797
g4496
sg1805
g1819
sbsg2931
(ipoplib
MemVar
p4533
(dp4534
g1795
I1
sg1796
g2928
sg4
Vmin_values
p4535
sg1797
g4496
sg1798
g4456
sg1799
V10
p4536
sg1800
(dp4537
g1849
(ipoplib
BaseFormStatic
p4538
(dp4539
g1804
g18
sg1797
g4533
sg1805
g1819
sbsg4535
(ipoplib
BaseForm
p4540
(dp4541
g1804
g2928
sg1797
g4533
sg1805
g1819
sbssg1807
g2931
sg12
g2638
sg1721
g2928
sg1722
g1866
sbsg2847
(ipoplib
BaseForm
p4542
(dp4543
g1804
g2844
sg1797
g4496
sg1805
g1819
sbssg1807
g4315
sg12
g2638
sg1721
g4312
sg1722
g1723
sba(ipoplib
MemVar
p4544
(dp4545
g1795
I0
sg1796
g4321
sg4
g4324
sg1797
Nsg1798
g4456
sg1799
I0
sg1800
(dp4546
g2769
(ipoplib
BaseForm
p4547
(dp4548
g1804
g2766
sg1797
g4544
sg1805
g1819
sbsg2787
(ipoplib
BaseForm
p4549
(dp4550
g1804
g2784
sg1797
g4544
sg1805
g1819
sbsg2760
(ipoplib
BaseForm
p4551
(dp4552
g1804
g2757
sg1797
g4544
sg1805
g1819
sbsg2778
(ipoplib
BaseForm
p4553
(dp4554
g1804
g2775
sg1797
g4544
sg1805
g1819
sbssg1807
g4324
sg12
g2638
sg1721
g4321
sg1722
g1723
sbasg1722
g1723
sbasg1989
(lp4555
(ipoplib
Constant
p4556
(dp4557
g1993
I10
sg4
g3326
sg1994
g3323
sg1722
g3329
sba(ipoplib
Constant
p4558
(dp4559
g1993
I0
sg4
g3338
sg1994
g3335
sg1722
g3341
sba(ipoplib
Constant
p4560
(dp4561
g1993
I1
sg4
g3350
sg1994
g3347
sg1722
g3353
sbasbsb.