(ipoplib
Population
p0
(dp1
S'modelfile'
p2
S'D:/Docs/EURACE/X-models/SVN/eurace/AFM/afm_branches/initial/ewa_learning/model.xml'
p3
sS'name'
p4
S'EWA'
p5
sS'popmap'
p6
(dp7
VHousehold
p8
(lp9
(ipoplib
AgentInstance
p10
(dp11
S'exclusivelytaken'
p12
I0
sS'varreg'
p13
(ipoplib
MemVarRegistry
p14
(dp15
S'depmap'
p16
(dp17
sS'relaxed'
p18
I0
sS'valmap'
p19
(dp20
Vprivate_classifiersystem
p21
ccopy_reg
_reconstructor
p22
(cpoplib
OrderedDict
p23
c__builtin__
dict
p24
(dp25
Vnr_rules
p26
I100
sVcurrent_rule
p27
I15
sVruletable[100]
p28
(lp29
(lp30
I0
aF0.0
aF0.0
aF0.0
aF0.01
a(lp31
F0.0
aF0.0
aF0.0
aF0.0
aF0.0
aaa(lp32
I1
aF0.0
aF0.0
aF0.0
aF0.01
a(lp33
F0.0
aF0.0
aF0.0
aF0.0
aF0.0
aaa(lp34
I2
aF0.0
aF0.0
aF0.0
aF0.01
a(lp35
F0.0
aF0.0
aF0.0
aF0.0
aF0.0
aaa(lp36
I3
aF0.0
aF0.0
aF0.0
aF0.01
a(lp37
F0.0
aF0.0
aF0.0
aF0.0
aF0.0
aaa(lp38
I4
aF0.0
aF0.0
aF0.0
aF0.01
a(lp39
F0.0
aF0.0
aF0.0
aF0.0
aF0.0
aaa(lp40
I5
aF0.0
aF0.0
aF0.0
aF0.01
a(lp41
F0.0
aF0.0
aF0.0
aF0.0
aF0.0
aaa(lp42
I6
aF0.0
aF0.0
aF0.0
aF0.01
a(lp43
F0.0
aF0.0
aF0.0
aF0.0
aF0.0
aaa(lp44
I7
aF0.0
aF0.0
aF0.0
aF0.01
a(lp45
F0.0
aF0.0
aF0.0
aF0.0
aF0.0
aaa(lp46
I8
aF0.0
aF0.0
aF0.0
aF0.01
a(lp47
F0.0
aF0.0
aF0.0
aF0.0
aF0.0
aaa(lp48
I9
aF0.0
aF0.0
aF0.0
aF0.01
a(lp49
F0.0
aF0.0
aF0.0
aF0.0
aF0.0
aaa(lp50
I10
aF0.0
aF0.0
aF0.0
aF0.01
a(lp51
F0.0
aF0.0
aF0.0
aF0.0
aF0.0
aaa(lp52
I11
aF0.0
aF0.0
aF0.0
aF0.01
a(lp53
F0.0
aF0.0
aF0.0
aF0.0
aF0.0
aaa(lp54
I12
aF0.0
aF0.0
aF0.0
aF0.01
a(lp55
F0.0
aF0.0
aF0.0
aF0.0
aF0.0
aaa(lp56
I13
aF0.0
aF0.0
aF0.0
aF0.01
a(lp57
F0.0
aF0.0
aF0.0
aF0.0
aF0.0
aaa(lp58
I14
aF0.0
aF0.0
aF0.0
aF0.01
a(lp59
F0.0
aF0.0
aF0.0
aF0.0
aF0.0
aaa(lp60
I15
aF0.0
aF0.0
aF0.0
aF0.01
a(lp61
F0.0
aF0.0
aF0.0
aF0.0
aF0.0
aaa(lp62
I16
aF0.0
aF0.0
aF0.0
aF0.01
a(lp63
F0.0
aF0.0
aF0.0
aF0.0
aF0.0
aaa(lp64
I17
aF0.0
aF0.0
aF0.0
aF0.01
a(lp65
F0.0
aF0.0
aF0.0
aF0.0
aF0.0
aaa(lp66
I18
aF0.0
aF0.0
aF0.0
aF0.01
a(lp67
F0.0
aF0.0
aF0.0
aF0.0
aF0.0
aaa(lp68
I19
aF0.0
aF0.0
aF0.0
aF0.01
a(lp69
F0.0
aF0.0
aF0.0
aF0.0
aF0.0
aaa(lp70
I20
aF0.0
aF0.0
aF0.0
aF0.01
a(lp71
F0.0
aF0.0
aF0.0
aF0.0
aF0.0
aaa(lp72
I21
aF0.0
aF0.0
aF0.0
aF0.01
a(lp73
F0.0
aF0.0
aF0.0
aF0.0
aF0.0
aaa(lp74
I22
aF0.0
aF0.0
aF0.0
aF0.01
a(lp75
F0.0
aF0.0
aF0.0
aF0.0
aF0.0
aaa(lp76
I23
aF0.0
aF0.0
aF0.0
aF0.01
a(lp77
F0.0
aF0.0
aF0.0
aF0.0
aF0.0
aaa(lp78
I24
aF0.0
aF0.0
aF0.0
aF0.01
a(lp79
F0.0
aF0.0
aF0.0
aF0.0
aF0.0
aaa(lp80
I25
aF0.0
aF0.0
aF0.0
aF0.01
a(lp81
F0.0
aF0.0
aF0.0
aF0.0
aF0.0
aaa(lp82
I26
aF0.0
aF0.0
aF0.0
aF0.01
a(lp83
F0.0
aF0.0
aF0.0
aF0.0
aF0.0
aaa(lp84
I27
aF0.0
aF0.0
aF0.0
aF0.01
a(lp85
F0.0
aF0.0
aF0.0
aF0.0
aF0.0
aaa(lp86
I28
aF0.0
aF0.0
aF0.0
aF0.01
a(lp87
F0.0
aF0.0
aF0.0
aF0.0
aF0.0
aaa(lp88
I29
aF0.0
aF0.0
aF0.0
aF0.01
a(lp89
F0.0
aF0.0
aF0.0
aF0.0
aF0.0
aaa(lp90
I30
aF0.0
aF0.0
aF0.0
aF0.01
a(lp91
F0.0
aF0.0
aF0.0
aF0.0
aF0.0
aaa(lp92
I31
aF0.0
aF0.0
aF0.0
aF0.01
a(lp93
F0.0
aF0.0
aF0.0
aF0.0
aF0.0
aaa(lp94
I32
aF0.0
aF0.0
aF0.0
aF0.01
a(lp95
F0.0
aF0.0
aF0.0
aF0.0
aF0.0
aaa(lp96
I33
aF0.0
aF0.0
aF0.0
aF0.01
a(lp97
F0.0
aF0.0
aF0.0
aF0.0
aF0.0
aaa(lp98
I34
aF0.0
aF0.0
aF0.0
aF0.01
a(lp99
F0.0
aF0.0
aF0.0
aF0.0
aF0.0
aaa(lp100
I35
aF0.0
aF0.0
aF0.0
aF0.01
a(lp101
F0.0
aF0.0
aF0.0
aF0.0
aF0.0
aaa(lp102
I36
aF0.0
aF0.0
aF0.0
aF0.01
a(lp103
F0.0
aF0.0
aF0.0
aF0.0
aF0.0
aaa(lp104
I37
aF0.0
aF0.0
aF0.0
aF0.01
a(lp105
F0.0
aF0.0
aF0.0
aF0.0
aF0.0
aaa(lp106
I38
aF0.0
aF0.0
aF0.0
aF0.01
a(lp107
F0.0
aF0.0
aF0.0
aF0.0
aF0.0
aaa(lp108
I39
aF0.0
aF0.0
aF0.0
aF0.01
a(lp109
F0.0
aF0.0
aF0.0
aF0.0
aF0.0
aaa(lp110
I40
aF0.0
aF0.0
aF0.0
aF0.01
a(lp111
F0.0
aF0.0
aF0.0
aF0.0
aF0.0
aaa(lp112
I41
aF0.0
aF0.0
aF0.0
aF0.01
a(lp113
F0.0
aF0.0
aF0.0
aF0.0
aF0.0
aaa(lp114
I42
aF0.0
aF0.0
aF0.0
aF0.01
a(lp115
F0.0
aF0.0
aF0.0
aF0.0
aF0.0
aaa(lp116
I43
aF0.0
aF0.0
aF0.0
aF0.01
a(lp117
F0.0
aF0.0
aF0.0
aF0.0
aF0.0
aaa(lp118
I44
aF0.0
aF0.0
aF0.0
aF0.01
a(lp119
F0.0
aF0.0
aF0.0
aF0.0
aF0.0
aaa(lp120
I45
aF0.0
aF0.0
aF0.0
aF0.01
a(lp121
F0.0
aF0.0
aF0.0
aF0.0
aF0.0
aaa(lp122
I46
aF0.0
aF0.0
aF0.0
aF0.01
a(lp123
F0.0
aF0.0
aF0.0
aF0.0
aF0.0
aaa(lp124
I47
aF0.0
aF0.0
aF0.0
aF0.01
a(lp125
F0.0
aF0.0
aF0.0
aF0.0
aF0.0
aaa(lp126
I48
aF0.0
aF0.0
aF0.0
aF0.01
a(lp127
F0.0
aF0.0
aF0.0
aF0.0
aF0.0
aaa(lp128
I49
aF0.0
aF0.0
aF0.0
aF0.01
a(lp129
F0.0
aF0.0
aF0.0
aF0.0
aF0.0
aaa(lp130
I50
aF0.0
aF0.0
aF0.0
aF0.01
a(lp131
F0.0
aF0.0
aF0.0
aF0.0
aF0.0
aaa(lp132
I51
aF0.0
aF0.0
aF0.0
aF0.01
a(lp133
F0.0
aF0.0
aF0.0
aF0.0
aF0.0
aaa(lp134
I52
aF0.0
aF0.0
aF0.0
aF0.01
a(lp135
F0.0
aF0.0
aF0.0
aF0.0
aF0.0
aaa(lp136
I53
aF0.0
aF0.0
aF0.0
aF0.01
a(lp137
F0.0
aF0.0
aF0.0
aF0.0
aF0.0
aaa(lp138
I54
aF0.0
aF0.0
aF0.0
aF0.01
a(lp139
F0.0
aF0.0
aF0.0
aF0.0
aF0.0
aaa(lp140
I55
aF0.0
aF0.0
aF0.0
aF0.01
a(lp141
F0.0
aF0.0
aF0.0
aF0.0
aF0.0
aaa(lp142
I56
aF0.0
aF0.0
aF0.0
aF0.01
a(lp143
F0.0
aF0.0
aF0.0
aF0.0
aF0.0
aaa(lp144
I57
aF0.0
aF0.0
aF0.0
aF0.01
a(lp145
F0.0
aF0.0
aF0.0
aF0.0
aF0.0
aaa(lp146
I58
aF0.0
aF0.0
aF0.0
aF0.01
a(lp147
F0.0
aF0.0
aF0.0
aF0.0
aF0.0
aaa(lp148
I59
aF0.0
aF0.0
aF0.0
aF0.01
a(lp149
F0.0
aF0.0
aF0.0
aF0.0
aF0.0
aaa(lp150
I60
aF0.0
aF0.0
aF0.0
aF0.01
a(lp151
F0.0
aF0.0
aF0.0
aF0.0
aF0.0
aaa(lp152
I61
aF0.0
aF0.0
aF0.0
aF0.01
a(lp153
F0.0
aF0.0
aF0.0
aF0.0
aF0.0
aaa(lp154
I62
aF0.0
aF0.0
aF0.0
aF0.01
a(lp155
F0.0
aF0.0
aF0.0
aF0.0
aF0.0
aaa(lp156
I63
aF0.0
aF0.0
aF0.0
aF0.01
a(lp157
F0.0
aF0.0
aF0.0
aF0.0
aF0.0
aaa(lp158
I64
aF0.0
aF0.0
aF0.0
aF0.01
a(lp159
F0.0
aF0.0
aF0.0
aF0.0
aF0.0
aaa(lp160
I65
aF0.0
aF0.0
aF0.0
aF0.01
a(lp161
F0.0
aF0.0
aF0.0
aF0.0
aF0.0
aaa(lp162
I66
aF0.0
aF0.0
aF0.0
aF0.01
a(lp163
F0.0
aF0.0
aF0.0
aF0.0
aF0.0
aaa(lp164
I67
aF0.0
aF0.0
aF0.0
aF0.01
a(lp165
F0.0
aF0.0
aF0.0
aF0.0
aF0.0
aaa(lp166
I68
aF0.0
aF0.0
aF0.0
aF0.01
a(lp167
F0.0
aF0.0
aF0.0
aF0.0
aF0.0
aaa(lp168
I69
aF0.0
aF0.0
aF0.0
aF0.01
a(lp169
F0.0
aF0.0
aF0.0
aF0.0
aF0.0
aaa(lp170
I70
aF0.0
aF0.0
aF0.0
aF0.01
a(lp171
F0.0
aF0.0
aF0.0
aF0.0
aF0.0
aaa(lp172
I71
aF0.0
aF0.0
aF0.0
aF0.01
a(lp173
F0.0
aF0.0
aF0.0
aF0.0
aF0.0
aaa(lp174
I72
aF0.0
aF0.0
aF0.0
aF0.01
a(lp175
F0.0
aF0.0
aF0.0
aF0.0
aF0.0
aaa(lp176
I73
aF0.0
aF0.0
aF0.0
aF0.01
a(lp177
F0.0
aF0.0
aF0.0
aF0.0
aF0.0
aaa(lp178
I74
aF0.0
aF0.0
aF0.0
aF0.01
a(lp179
F0.0
aF0.0
aF0.0
aF0.0
aF0.0
aaa(lp180
I75
aF0.0
aF0.0
aF0.0
aF0.01
a(lp181
F0.0
aF0.0
aF0.0
aF0.0
aF0.0
aaa(lp182
I76
aF0.0
aF0.0
aF0.0
aF0.01
a(lp183
F0.0
aF0.0
aF0.0
aF0.0
aF0.0
aaa(lp184
I77
aF0.0
aF0.0
aF0.0
aF0.01
a(lp185
F0.0
aF0.0
aF0.0
aF0.0
aF0.0
aaa(lp186
I78
aF0.0
aF0.0
aF0.0
aF0.01
a(lp187
F0.0
aF0.0
aF0.0
aF0.0
aF0.0
aaa(lp188
I79
aF0.0
aF0.0
aF0.0
aF0.01
a(lp189
F0.0
aF0.0
aF0.0
aF0.0
aF0.0
aaa(lp190
I80
aF0.0
aF0.0
aF0.0
aF0.01
a(lp191
F0.0
aF0.0
aF0.0
aF0.0
aF0.0
aaa(lp192
I81
aF0.0
aF0.0
aF0.0
aF0.01
a(lp193
F0.0
aF0.0
aF0.0
aF0.0
aF0.0
aaa(lp194
I82
aF0.0
aF0.0
aF0.0
aF0.01
a(lp195
F0.0
aF0.0
aF0.0
aF0.0
aF0.0
aaa(lp196
I83
aF0.0
aF0.0
aF0.0
aF0.01
a(lp197
F0.0
aF0.0
aF0.0
aF0.0
aF0.0
aaa(lp198
I84
aF0.0
aF0.0
aF0.0
aF0.01
a(lp199
F0.0
aF0.0
aF0.0
aF0.0
aF0.0
aaa(lp200
I85
aF0.0
aF0.0
aF0.0
aF0.01
a(lp201
F0.0
aF0.0
aF0.0
aF0.0
aF0.0
aaa(lp202
I86
aF0.0
aF0.0
aF0.0
aF0.01
a(lp203
F0.0
aF0.0
aF0.0
aF0.0
aF0.0
aaa(lp204
I87
aF0.0
aF0.0
aF0.0
aF0.01
a(lp205
F0.0
aF0.0
aF0.0
aF0.0
aF0.0
aaa(lp206
I88
aF0.0
aF0.0
aF0.0
aF0.01
a(lp207
F0.0
aF0.0
aF0.0
aF0.0
aF0.0
aaa(lp208
I89
aF0.0
aF0.0
aF0.0
aF0.01
a(lp209
F0.0
aF0.0
aF0.0
aF0.0
aF0.0
aaa(lp210
I90
aF0.0
aF0.0
aF0.0
aF0.01
a(lp211
F0.0
aF0.0
aF0.0
aF0.0
aF0.0
aaa(lp212
I91
aF0.0
aF0.0
aF0.0
aF0.01
a(lp213
F0.0
aF0.0
aF0.0
aF0.0
aF0.0
aaa(lp214
I92
aF0.0
aF0.0
aF0.0
aF0.01
a(lp215
F0.0
aF0.0
aF0.0
aF0.0
aF0.0
aaa(lp216
I93
aF0.0
aF0.0
aF0.0
aF0.01
a(lp217
F0.0
aF0.0
aF0.0
aF0.0
aF0.0
aaa(lp218
I94
aF0.0
aF0.0
aF0.0
aF0.01
a(lp219
F0.0
aF0.0
aF0.0
aF0.0
aF0.0
aaa(lp220
I95
aF0.0
aF0.0
aF0.0
aF0.01
a(lp221
F0.0
aF0.0
aF0.0
aF0.0
aF0.0
aaa(lp222
I96
aF0.0
aF0.0
aF0.0
aF0.01
a(lp223
F0.0
aF0.0
aF0.0
aF0.0
aF0.0
aaa(lp224
I97
aF0.0
aF0.0
aF0.0
aF0.01
a(lp225
F0.0
aF0.0
aF0.0
aF0.0
aF0.0
aaa(lp226
I98
aF0.0
aF0.0
aF0.0
aF0.01
a(lp227
F0.0
aF0.0
aF0.0
aF0.0
aF0.0
aaa(lp228
I99
aF0.0
aF0.0
aF0.0
aF0.01
a(lp229
F0.0
aF0.0
aF0.0
aF0.0
aF0.0
aaasVexperience
p230
F0.0
stp231
Rp232
(dp233
S'keyorder'
p234
(lp235
g26
ag230
ag27
ag28
asbsVEWA_parameters
p236
g22
(g23
g24
(dp237
VEWA_phi
p238
F0.0
sVEWA_beta
p239
F1.0
sVEWA_rho
p240
F1.0
sVEWA_delta
p241
F1.0
stp242
Rp243
(dp244
g234
(lp245
g240
ag238
ag241
ag239
asbssS'agent'
p246
(ipoplib
Agent
p247
(dp248
g4
VHousehold
p249
sS'varinitorder'
p250
(lp251
g236
ag21
asS'memvars'
p252
(lp253
(ipoplib
MemVar
p254
(dp255
S'isarray'
p256
I0
sS'originaltype'
p257
VEWAParameterStruct
p258
sg4
g236
sS'parent'
p259
Nsg246
g247
sS'static'
p260
I0
sS'initforms'
p261
(dp262
g238
(ipoplib
BaseForm
p263
(dp264
S'vtype'
p265
Vdouble
p266
sg259
g254
sS'form'
p267
S'0'
p268
sbsg239
(ipoplib
BaseForm
p269
(dp270
g265
Vdouble
p271
sg259
g254
sg267
S'1'
p272
sbsg240
(ipoplib
BaseForm
p273
(dp274
g265
Vdouble
p275
sg259
g254
sg267
g272
sbsg241
(ipoplib
BaseForm
p276
(dp277
g265
Vdouble
p278
sg259
g254
sg267
g272
sbssS'originalname'
p279
g236
sS'candidates'
p280
(dp281
VEWA_beta
p282
g272
sVEWA_phi
p283
g268
sVEWA_rho
p284
g272
sVEWA_delta
p285
g272
ssS'model'
p286
(ipoplib
Model
p287
(dp288
S'info'
p289
(dp290
S'date'
p291
S''
p292
sg4
VFinancial Market Model - EWA learning module
p293
sS'domdic'
p294
(ipoplib
MultiDict
p295
(dp296
S'cs'
p297
I0
sS'dic'
p298
(dp299
Vxmodel
p300
(lp301
(ipoplib
MultiDict
p302
(dp303
g297
I0
sg298
(dp304
Venvironment
p305
(lp306
(ipoplib
MultiDict
p307
(dp308
g297
I0
sg298
(dp309
Vfunctionfiles
p310
(lp311
(ipoplib
MultiDict
p312
(dp313
g297
I0
sg298
(dp314
N(lp315
V<file>Household_aux_functions.c</file>
p316
asVfile
p317
(lp318
VHousehold_ewa_functions.c
p319
aVFinancialAgent_ewa_functions.c
p320
aVFinancialAgent_aux_functions.c
p321
aVsome_new_functions.c
p322
assbasVtimeunits
p323
(lp324
(ipoplib
MultiDict
p325
(dp326
g297
I0
sg298
(dp327
Vtimeunit
p328
(lp329
(ipoplib
MultiDict
p330
(dp331
g297
I0
sg298
(dp332
Vname
p333
(lp334
Vdaily
p335
asVunit
p336
(lp337
Viteration
p338
asVperiod
p339
(lp340
V1
p341
assba(ipoplib
MultiDict
p342
(dp343
g297
I0
sg298
(dp344
Vname
p345
(lp346
Vweekly
p347
asVunit
p348
(lp349
Vdaily
p350
asVperiod
p351
(lp352
V5
p353
assba(ipoplib
MultiDict
p354
(dp355
g297
I0
sg298
(dp356
Vname
p357
(lp358
Vmonthly
p359
asVunit
p360
(lp361
Vweekly
p362
asVperiod
p363
(lp364
V4
p365
assba(ipoplib
MultiDict
p366
(dp367
g297
I0
sg298
(dp368
Vname
p369
(lp370
Vquarterly
p371
asVunit
p372
(lp373
Vmonthly
p374
asVperiod
p375
(lp376
V3
p377
assba(ipoplib
MultiDict
p378
(dp379
g297
I0
sg298
(dp380
Vname
p381
(lp382
Vyearly
p383
asVunit
p384
(lp385
Vmonthly
p386
asVperiod
p387
(lp388
V12
p389
assba(ipoplib
MultiDict
p390
(dp391
g297
I0
sg298
(dp392
Vname
p393
(lp394
Vmillionyearly
p395
asVunit
p396
(lp397
Vyearly
p398
asVperiod
p399
(lp400
V1000000
p401
assbassbasVdatatypes
p402
(lp403
(ipoplib
MultiDict
p404
(dp405
g297
I0
sg298
(dp406
Vdatatype
p407
(lp408
(ipoplib
MultiDict
p409
(dp410
g297
I0
sg298
(dp411
N(lp412
V***************************** Struct for the EWA Parameters *****************************
p413
asVvariables
p414
(lp415
(ipoplib
MultiDict
p416
(dp417
g297
I0
sg298
(dp418
Vvariable
p419
(lp420
(ipoplib
MultiDict
p421
(dp422
g297
I0
sg298
(dp423
Vtype
p424
(lp425
g275
asVname
p426
(lp427
g240
assba(ipoplib
MultiDict
p428
(dp429
g297
I0
sg298
(dp430
Vtype
p431
(lp432
g266
asVname
p433
(lp434
g238
assba(ipoplib
MultiDict
p435
(dp436
g297
I0
sg298
(dp437
Vtype
p438
(lp439
g278
asVname
p440
(lp441
g241
assba(ipoplib
MultiDict
p442
(dp443
g297
I0
sg298
(dp444
Vtype
p445
(lp446
g271
asVname
p447
(lp448
g239
assbassbasVname
p449
(lp450
VEWAParameterStruct
p451
asVdescription
p452
(lp453
VStruct for the EWA Parameters
p454
assba(ipoplib
MultiDict
p455
(dp456
g297
I0
sg298
(dp457
N(lp458
V***************************** Struct for the GA Parameters *****************************
p459
asVvariables
p460
(lp461
(ipoplib
MultiDict
p462
(dp463
g297
I0
sg298
(dp464
Vvariable
p465
(lp466
(ipoplib
MultiDict
p467
(dp468
g297
I0
sg298
(dp469
Vtype
p470
(lp471
Vdouble
p472
asVname
p473
(lp474
Vprob_cross
p475
asVdescription
p476
(lp477
VCrossover probability
p478
assba(ipoplib
MultiDict
p479
(dp480
g297
I0
sg298
(dp481
Vtype
p482
(lp483
Vdouble
p484
asVname
p485
(lp486
Vprob_mut
p487
asVdescription
p488
(lp489
VMutation probability
p490
assba(ipoplib
MultiDict
p491
(dp492
g297
I0
sg298
(dp493
Vtype
p494
(lp495
Vint
p496
asVname
p497
(lp498
Vstring_size
p499
assba(ipoplib
MultiDict
p500
(dp501
g297
I0
sg298
(dp502
Vtype
p503
(lp504
Vint
p505
asVname
p506
(lp507
Vpop_size
p508
asVdescription
p509
(lp510
VSize of the rule population
p511
assba(ipoplib
MultiDict
p512
(dp513
g297
I0
sg298
(dp514
Vtype
p515
(lp516
Vdouble
p517
asVname
p518
(lp519
Vreproduction_proportion
p520
asVdescription
p521
(lp522
VProportion of population that reproduces
p523
assba(ipoplib
MultiDict
p524
(dp525
g297
I0
sg298
(dp526
Vtype
p527
(lp528
Vint
p529
asVname
p530
(lp531
Vsingle_point_cross_over
p532
asVdescription
p533
(lp534
VDummy for single-point crossover operator (1: use single-point; 0: use 2-point cross-over)
p535
assba(ipoplib
MultiDict
p536
(dp537
g297
I0
sg298
(dp538
Vtype
p539
(lp540
Vint
p541
asVname
p542
(lp543
Velection
p544
asVdescription
p545
(lp546
VDummy for election operator
p547
assba(ipoplib
MultiDict
p548
(dp549
g297
I0
sg298
(dp550
Vtype
p551
(lp552
Vdouble
p553
asVname
p554
(lp555
Vstepsize[5]
p556
asVdescription
p557
(lp558
VMutation stepsize for each parameter
p559
assba(ipoplib
MultiDict
p560
(dp561
g297
I0
sg298
(dp562
Vtype
p563
(lp564
Vint
p565
asVname
p566
(lp567
Vdelta_min
p568
asVdescription
p569
(lp570
VLower bound on number of units to mutate inside the mutation range: delta_min can be negative or positive.
p571
assba(ipoplib
MultiDict
p572
(dp573
g297
I0
sg298
(dp574
Vtype
p575
(lp576
Vint
p577
asVname
p578
(lp579
Vdelta_max
p580
asVdescription
p581
(lp582
VUpper bound on number of units to mutate inside the mutation range: delta_max should be positive.
p583
assba(ipoplib
MultiDict
p584
(dp585
g297
I0
sg298
(dp586
Vtype
p587
(lp588
Vdouble
p589
asVname
p590
(lp591
Vmin_values[5]
p592
asVdescription
p593
(lp594
VMinimum values for each parameter
p595
assba(ipoplib
MultiDict
p596
(dp597
g297
I0
sg298
(dp598
Vtype
p599
(lp600
Vdouble
p601
asVname
p602
(lp603
Vmax_values[5]
p604
asVdescription
p605
(lp606
VMaximum values for each parameter
p607
assbassbasVname
p608
(lp609
VGAParameterStruct
p610
asVdescription
p611
(lp612
VStruct for the GA Parameters
p613
assba(ipoplib
MultiDict
p614
(dp615
g297
I0
sg298
(dp616
N(lp617
V***************************** Struct for the PublicClassifierRule *****************************
p618
asVvariables
p619
(lp620
(ipoplib
MultiDict
p621
(dp622
g297
I0
sg298
(dp623
Vvariable
p624
(lp625
(ipoplib
MultiDict
p626
(dp627
g297
I0
sg298
(dp628
Vtype
p629
(lp630
Vint
p631
asVname
p632
(lp633
Vid
p634
asVdescription
p635
(lp636
Vid for the rule
p637
assba(ipoplib
MultiDict
p638
(dp639
g297
I0
sg298
(dp640
Vtype
p641
(lp642
Vint
p643
asVname
p644
(lp645
Vcounter
p646
asVdescription
p647
(lp648
VUser counter for each rule
p649
assba(ipoplib
MultiDict
p650
(dp651
g297
I0
sg298
(dp652
Vtype
p653
(lp654
Vdouble
p655
asVname
p656
(lp657
Vperformance
p658
asVdescription
p659
(lp660
VTotal performance for each rule
p661
assba(ipoplib
MultiDict
p662
(dp663
g297
I0
sg298
(dp664
Vtype
p665
(lp666
Vdouble
p667
asVname
p668
(lp669
Vavg_performance
p670
asVdescription
p671
(lp672
VAverage performance for each rule (=total performance/counter)
p673
assba(ipoplib
MultiDict
p674
(dp675
g297
I0
sg298
(dp676
Vtype
p677
(lp678
Vdouble
p679
asVname
p680
(lp681
Vselection_prob
p682
asVdescription
p683
(lp684
VSelection probability for the rule
p685
assba(ipoplib
MultiDict
p686
(dp687
g297
I0
sg298
(dp688
Vtype
p689
(lp690
Vdouble
p691
asVname
p692
(lp693
Vparameters[5]
p694
asVdescription
p695
(lp696
VParameter values encoding the rule
p697
assbassbasVname
p698
(lp699
VPublicClassifierRule
p700
asVdescription
p701
(lp702
VDatatype for the central classifier system. The system is a dynamic array of PublicClassifierRules !Subject to change!
p703
assba(ipoplib
MultiDict
p704
(dp705
g297
I0
sg298
(dp706
N(lp707
V***************************** Struct for the Private Classifier Rule *****************************
p708
asVvariables
p709
(lp710
(ipoplib
MultiDict
p711
(dp712
g297
I0
sg298
(dp713
Vvariable
p714
(lp715
(ipoplib
MultiDict
p716
(dp717
g297
I0
sg298
(dp718
Vtype
p719
(lp720
Vint
p721
asVname
p722
(lp723
Vid
p724
asVdescription
p725
(lp726
Vid for each rule
p727
assba(ipoplib
MultiDict
p728
(dp729
g297
I0
sg298
(dp730
Vtype
p731
(lp732
Vdouble
p733
asVname
p734
(lp735
Vmy_performance
p736
asVdescription
p737
(lp738
VAgent performance with current_rule (0.0 if this rule is not currently used)
p739
assba(ipoplib
MultiDict
p740
(dp741
g297
I0
sg298
(dp742
Vtype
p743
(lp744
Vdouble
p745
asVname
p746
(lp747
Vavg_performance
p748
asVdescription
p749
(lp750
VAverage performance for this rule across population (copied from Central CS)
p751
assba(ipoplib
MultiDict
p752
(dp753
g297
I0
sg298
(dp754
Vtype
p755
(lp756
Vdouble
p757
asVname
p758
(lp759
Vattraction
p760
asVdescription
p761
(lp762
VAgent attractions
p763
assba(ipoplib
MultiDict
p764
(dp765
g297
I0
sg298
(dp766
Vtype
p767
(lp768
Vdouble
p769
asVname
p770
(lp771
Vchoiceprob
p772
asVdescription
p773
(lp774
VAgent choice probabilities
p775
assba(ipoplib
MultiDict
p776
(dp777
g297
I0
sg298
(dp778
Vtype
p779
(lp780
Vdouble
p781
asVname
p782
(lp783
Vparameters[5]
p784
asVdescription
p785
(lp786
VParameter values encoding the rule
p787
assbassbasVname
p788
(lp789
VPrivateClassifierRule
p790
asVdescription
p791
(lp792
VDatatype for the private classifier system inside each agent. The system is a dynamic array of PrivateClassifierRule.  !Subject to change!
p793
assba(ipoplib
MultiDict
p794
(dp795
g297
I0
sg298
(dp796
N(lp797
V***************************** Struct for the Simple Public Classifier System *****************************
p798
asVvariables
p799
(lp800
(ipoplib
MultiDict
p801
(dp802
g297
I0
sg298
(dp803
Vvariable
p804
(lp805
(ipoplib
MultiDict
p806
(dp807
g297
I0
sg298
(dp808
Vtype
p809
(lp810
Vint
p811
asVname
p812
(lp813
Vnr_rules
p814
asVdescription
p815
(lp816
VTotal number of rules in the rule set
p817
assba(ipoplib
MultiDict
p818
(dp819
g297
I0
sg298
(dp820
Vtype
p821
(lp822
VPublicClassifierRule
p823
asVname
p824
(lp825
Vruletable[100]
p826
asVdescription
p827
(lp828
VStatic array of 100 public classifier rules of homogeneous type
p829
assbassbasVname
p830
(lp831
VSimplePublicClassifierSystem
p832
asVdescription
p833
(lp834
VDatatype for the central classifier system. Simple version allows for rules of the same strategy type (all rules use the same function). !Subject to change!
p835
assba(ipoplib
MultiDict
p836
(dp837
g297
I0
sg298
(dp838
N(lp839
V***************************** Struct for the Simple Private Classifier System *****************************
p840
asVvariables
p841
(lp842
(ipoplib
MultiDict
p843
(dp844
g297
I0
sg298
(dp845
Vvariable
p846
(lp847
(ipoplib
MultiDict
p848
(dp849
g297
I0
sg298
(dp850
Vtype
p851
(lp852
Vint
p853
asVname
p854
(lp855
g26
asVdescription
p856
(lp857
VTotal number of rules in the rule set
p858
assba(ipoplib
MultiDict
p859
(dp860
g297
I0
sg298
(dp861
Vtype
p862
(lp863
Vdouble
p864
asVname
p865
(lp866
g230
asVdescription
p867
(lp868
VExperience variable for EWA learning
p869
assba(ipoplib
MultiDict
p870
(dp871
g297
I0
sg298
(dp872
Vtype
p873
(lp874
Vint
p875
asVname
p876
(lp877
g27
asVdescription
p878
(lp879
VCurrent rule in use by the agent
p880
assba(ipoplib
MultiDict
p881
(dp882
g297
I0
sg298
(dp883
Vtype
p884
(lp885
VPrivateClassifierRule
p886
asVname
p887
(lp888
g28
asVdescription
p889
(lp890
VStatic array of 100 private classifier rules of homogeneous type
p891
assbassbasVname
p892
(lp893
VSimplePrivateClassifierSystem
p894
asVdescription
p895
(lp896
VDatatype for the private classifier system inside each agent. Simple version allows for rules of the same strategy type (all rules use the same function). !Subject to change!
p897
assba(ipoplib
MultiDict
p898
(dp899
g297
I0
sg298
(dp900
N(lp901
V***************************** Struct for the Complex Public Classifier System *****************************
p902
asVvariables
p903
(lp904
(ipoplib
MultiDict
p905
(dp906
g297
I0
sg298
(dp907
Vvariable
p908
(lp909
(ipoplib
MultiDict
p910
(dp911
g297
I0
sg298
(dp912
Vtype
p913
(lp914
Vint
p915
asVname
p916
(lp917
Vnr_types
p918
asVdescription
p919
(lp920
VNumber of subpopulations (different types of rules)
p921
assba(ipoplib
MultiDict
p922
(dp923
g297
I0
sg298
(dp924
Vtype
p925
(lp926
Vint_array
p927
asVname
p928
(lp929
Vnr_rules_per_type
p930
asVdescription
p931
(lp932
VNr_rules_per_type may differ per type: size of subpopulations
p933
assba(ipoplib
MultiDict
p934
(dp935
g297
I0
sg298
(dp936
Vtype
p937
(lp938
Vint
p939
asVname
p940
(lp941
Vnr_rules
p942
asVdescription
p943
(lp944
VTotal number of rules in the rule set
p945
assba(ipoplib
MultiDict
p946
(dp947
g297
I0
sg298
(dp948
Vtype
p949
(lp950
VPublicClassifierRule
p951
asVname
p952
(lp953
Vruletable[100]
p954
asVdescription
p955
(lp956
VStatic array of 100 public classifier rules of heterogenous type
p957
assbassbasVname
p958
(lp959
VComplexPublicClassifierSystem
p960
asVdescription
p961
(lp962
VDatatype for the central classifier system. This complex version allows for heterogeneous rule sets. !Subject to change!
p963
assbasN(lp964
V***************************** GA Datastructure *****************************
p965
assbasN(lp966
V***************************** EWA Datastructures *****************************
p967
asVconstants
p968
(lp969
(ipoplib
MultiDict
p970
(dp971
g297
I0
sg298
(dp972
Vvariable
p973
(lp974
(ipoplib
MultiDict
p975
(dp976
g297
I0
sg298
(dp977
Vtype
p978
(lp979
Vint
p980
asVname
p981
(lp982
Vnr_params
p983
asVdescription
p984
(lp985
V10, Number of parameters in a portfolio rule.
p986
assba(ipoplib
MultiDict
p987
(dp988
g297
I0
sg298
(dp989
Vtype
p990
(lp991
Vint
p992
asVname
p993
(lp994
Vprint_debug
p995
asVdescription
p996
(lp997
V0 or 1, Boolean for debugging print statements.
p998
assba(ipoplib
MultiDict
p999
(dp1000
g297
I0
sg298
(dp1001
Vtype
p1002
(lp1003
Vint
p1004
asVname
p1005
(lp1006
Vprint_log
p1007
asVdescription
p1008
(lp1009
V0 or 1, A flag to print logging output to terminal or to file.
p1010
assbassbassbasVname
p1011
(lp1012
g293
asVmodels
p1013
(lp1014
(ipoplib
MultiDict
p1015
(dp1016
g297
I0
sg298
(dp1017
sbasVmessages
p1018
(lp1019
(ipoplib
MultiDict
p1020
(dp1021
g297
I0
sg298
(dp1022
Vmessage
p1023
(lp1024
(ipoplib
MultiDict
p1025
(dp1026
g297
I0
sg298
(dp1027
Vvariables
p1028
(lp1029
(ipoplib
MultiDict
p1030
(dp1031
g297
I0
sg298
(dp1032
Vvariable
p1033
(lp1034
(ipoplib
MultiDict
p1035
(dp1036
g297
I0
sg298
(dp1037
Vtype
p1038
(lp1039
Vint
p1040
asVname
p1041
(lp1042
Vrule_id
p1043
assba(ipoplib
MultiDict
p1044
(dp1045
g297
I0
sg298
(dp1046
Vtype
p1047
(lp1048
Vdouble
p1049
asVname
p1050
(lp1051
Vrule_performance
p1052
assbassbasVname
p1053
(lp1054
Vrule_performance
p1055
assba(ipoplib
MultiDict
p1056
(dp1057
g297
I0
sg298
(dp1058
Vvariables
p1059
(lp1060
(ipoplib
MultiDict
p1061
(dp1062
g297
I0
sg298
(dp1063
Vvariable
p1064
(lp1065
(ipoplib
MultiDict
p1066
(dp1067
g297
I0
sg298
(dp1068
Vtype
p1069
(lp1070
Vint
p1071
asVname
p1072
(lp1073
Vrule_id
p1074
assba(ipoplib
MultiDict
p1075
(dp1076
g297
I0
sg298
(dp1077
Vtype
p1078
(lp1079
Vdouble
p1080
asVname
p1081
(lp1082
Vavg_performance
p1083
assbassbasVname
p1084
(lp1085
Vnew_performances
p1086
assba(ipoplib
MultiDict
p1087
(dp1088
g297
I0
sg298
(dp1089
Vvariables
p1090
(lp1091
(ipoplib
MultiDict
p1092
(dp1093
g297
I0
sg298
(dp1094
Vvariable
p1095
(lp1096
(ipoplib
MultiDict
p1097
(dp1098
g297
I0
sg298
(dp1099
Vtype
p1100
(lp1101
Vint
p1102
asVname
p1103
(lp1104
Vrule_id
p1105
assba(ipoplib
MultiDict
p1106
(dp1107
g297
I0
sg298
(dp1108
Vtype
p1109
(lp1110
Vdouble
p1111
asVname
p1112
(lp1113
Vparameters[5]
p1114
assbassbasVname
p1115
(lp1116
Vinitial_rule_details
p1117
assba(ipoplib
MultiDict
p1118
(dp1119
g297
I0
sg298
(dp1120
Vvariables
p1121
(lp1122
(ipoplib
MultiDict
p1123
(dp1124
g297
I0
sg298
(dp1125
Vvariable
p1126
(lp1127
(ipoplib
MultiDict
p1128
(dp1129
g297
I0
sg298
(dp1130
Vtype
p1131
(lp1132
Vint
p1133
asVname
p1134
(lp1135
Vrule_id
p1136
assba(ipoplib
MultiDict
p1137
(dp1138
g297
I0
sg298
(dp1139
Vtype
p1140
(lp1141
Vdouble
p1142
asVname
p1143
(lp1144
Vparameters[5]
p1145
assbassbasVname
p1146
(lp1147
Vrule_details
p1148
assbassbasN(lp1149
V************************* NOTES ***************************************
p1150
aVThis is the main description file for EWA learning in the financial market model
p1151
aVAgents involved: Household, FinancialAgent
p1152
aV***************** Environment values and functions **********************
p1153
asVversion
p1154
(lp1155
V3
p1156
asVagents
p1157
(lp1158
(ipoplib
MultiDict
p1159
(dp1160
g297
I0
sg298
(dp1161
N(lp1162
V********************* X-machine Agent - Household ****************************
p1163
aV*********************** End of Agent - Household *****************************
p1164
aV********************* X-machine Agent - FinancialAgent ****************************
p1165
aV*********************** End of Agent - FinancialAgent ****************************
p1166
asVxagent
p1167
(lp1168
(ipoplib
MultiDict
p1169
(dp1170
g297
I0
sg298
(dp1171
Vfunctions
p1172
(lp1173
(ipoplib
MultiDict
p1174
(dp1175
g297
I0
sg298
(dp1176
N(lp1177
VIdle bypassing the Initialization phase
p1178
aVInitialization phase
p1179
aVIdle bypassing the GA
p1180
aVIdle bypassing the EWA
p1181
asVfunction
p1182
(lp1183
(ipoplib
MultiDict
p1184
(dp1185
g297
I0
sg298
(dp1186
Vnextstate
p1187
(lp1188
VStart_GA
p1189
asVcondition
p1190
(lp1191
(ipoplib
MultiDict
p1192
(dp1193
g297
I0
sg298
(dp1194
Vnot
p1195
(lp1196
(ipoplib
MultiDict
p1197
(dp1198
g297
I0
sg298
(dp1199
Vtime
p1200
(lp1201
(ipoplib
MultiDict
p1202
(dp1203
g297
I0
sg298
(dp1204
Vphase
p1205
(lp1206
V1
p1207
asVperiod
p1208
(lp1209
Vmillionyearly
p1210
assbassbassbasVname
p1211
(lp1212
Vidle
p1213
asVcurrentstate
p1214
(lp1215
VStart_Household_EWA_Learning
p1216
asVdescription
p1217
(lp1218
VIdle bypassing Initialization phase
p1219
assba(ipoplib
MultiDict
p1220
(dp1221
g297
I0
sg298
(dp1222
Vinputs
p1223
(lp1224
(ipoplib
MultiDict
p1225
(dp1226
g297
I0
sg298
(dp1227
Vinput
p1228
(lp1229
(ipoplib
MultiDict
p1230
(dp1231
g297
I0
sg298
(dp1232
Vmessagename
p1233
(lp1234
Vinitial_rule_details
p1235
assbassbasVcondition
p1236
(lp1237
(ipoplib
MultiDict
p1238
(dp1239
g297
I0
sg298
(dp1240
Vtime
p1241
(lp1242
(ipoplib
MultiDict
p1243
(dp1244
g297
I0
sg298
(dp1245
Vphase
p1246
(lp1247
V1
p1248
asVperiod
p1249
(lp1250
Vmillionyearly
p1251
assbassbasVname
p1252
(lp1253
VHousehold_initialize_rule_details
p1254
asVcurrentstate
p1255
(lp1256
VStart_Household_EWA_Learning
p1257
asVnextstate
p1258
(lp1259
V001
p1260
assba(ipoplib
MultiDict
p1261
(dp1262
g297
I0
sg298
(dp1263
Vname
p1264
(lp1265
VHousehold_portfolio_strategy_interface
p1266
asVcurrentstate
p1267
(lp1268
V001
p1269
asVnextstate
p1270
(lp1271
VStart_GA
p1272
assba(ipoplib
MultiDict
p1273
(dp1274
g297
I0
sg298
(dp1275
Vnextstate
p1276
(lp1277
VEnd_GA
p1278
asVcondition
p1279
(lp1280
(ipoplib
MultiDict
p1281
(dp1282
g297
I0
sg298
(dp1283
Vrhs
p1284
(lp1285
(ipoplib
MultiDict
p1286
(dp1287
g297
I0
sg298
(dp1288
Vtime
p1289
(lp1290
(ipoplib
MultiDict
p1291
(dp1292
g297
I0
sg298
(dp1293
Vphase
p1294
(lp1295
V1
p1296
asVperiod
p1297
(lp1298
Vmillionyearly
p1299
assbassbasVlhs
p1300
(lp1301
(ipoplib
MultiDict
p1302
(dp1303
g297
I0
sg298
(dp1304
Vnot
p1305
(lp1306
(ipoplib
MultiDict
p1307
(dp1308
g297
I0
sg298
(dp1309
Vtime
p1310
(lp1311
(ipoplib
MultiDict
p1312
(dp1313
g297
I0
sg298
(dp1314
Vphase
p1315
(lp1316
V1
p1317
asVperiod
p1318
(lp1319
Vyearly
p1320
assbassbassbasVop
p1321
(lp1322
VOR
p1323
assbasVname
p1324
(lp1325
Vidle
p1326
asVcurrentstate
p1327
(lp1328
VStart_GA
p1329
asVdescription
p1330
(lp1331
VIdle bypassing the GA
p1332
assba(ipoplib
MultiDict
p1333
(dp1334
g297
I0
sg298
(dp1335
Vcondition
p1336
(lp1337
(ipoplib
MultiDict
p1338
(dp1339
g297
I0
sg298
(dp1340
Vrhs
p1341
(lp1342
(ipoplib
MultiDict
p1343
(dp1344
g297
I0
sg298
(dp1345
Vnot
p1346
(lp1347
(ipoplib
MultiDict
p1348
(dp1349
g297
I0
sg298
(dp1350
Vtime
p1351
(lp1352
(ipoplib
MultiDict
p1353
(dp1354
g297
I0
sg298
(dp1355
Vphase
p1356
(lp1357
V1
p1358
asVperiod
p1359
(lp1360
Vmillionyearly
p1361
assbassbassbasVlhs
p1362
(lp1363
(ipoplib
MultiDict
p1364
(dp1365
g297
I0
sg298
(dp1366
Vtime
p1367
(lp1368
(ipoplib
MultiDict
p1369
(dp1370
g297
I0
sg298
(dp1371
Vphase
p1372
(lp1373
V1
p1374
asVperiod
p1375
(lp1376
Vyearly
p1377
assbassbasVop
p1378
(lp1379
VAND
p1380
assbasVname
p1381
(lp1382
VHousehold_print_private_classifiersystem
p1383
asVcurrentstate
p1384
(lp1385
VStart_GA
p1386
asVnextstate
p1387
(lp1388
V01
p1389
assba(ipoplib
MultiDict
p1390
(dp1391
g297
I0
sg298
(dp1392
Vname
p1393
(lp1394
VHousehold_reset_private_classifiersystem
p1395
asVcurrentstate
p1396
(lp1397
V01
p1398
asVnextstate
p1399
(lp1400
V02
p1401
assba(ipoplib
MultiDict
p1402
(dp1403
g297
I0
sg298
(dp1404
Vinputs
p1405
(lp1406
(ipoplib
MultiDict
p1407
(dp1408
g297
I0
sg298
(dp1409
Vinput
p1410
(lp1411
(ipoplib
MultiDict
p1412
(dp1413
g297
I0
sg298
(dp1414
Vmessagename
p1415
(lp1416
Vrule_details
p1417
assbassbasVname
p1418
(lp1419
VHousehold_read_and_update_rule_details
p1420
asVcurrentstate
p1421
(lp1422
V02
p1423
asVnextstate
p1424
(lp1425
VEnd_GA
p1426
assba(ipoplib
MultiDict
p1427
(dp1428
g297
I0
sg298
(dp1429
Vnextstate
p1430
(lp1431
VEnd_Household_EWA_Learning
p1432
asVcondition
p1433
(lp1434
(ipoplib
MultiDict
p1435
(dp1436
g297
I0
sg298
(dp1437
Vrhs
p1438
(lp1439
(ipoplib
MultiDict
p1440
(dp1441
g297
I0
sg298
(dp1442
Vtime
p1443
(lp1444
(ipoplib
MultiDict
p1445
(dp1446
g297
I0
sg298
(dp1447
Vphase
p1448
(lp1449
V1
p1450
asVperiod
p1451
(lp1452
Vmillionyearly
p1453
assbassbasVlhs
p1454
(lp1455
(ipoplib
MultiDict
p1456
(dp1457
g297
I0
sg298
(dp1458
Vnot
p1459
(lp1460
(ipoplib
MultiDict
p1461
(dp1462
g297
I0
sg298
(dp1463
Vtime
p1464
(lp1465
(ipoplib
MultiDict
p1466
(dp1467
g297
I0
sg298
(dp1468
Vphase
p1469
(lp1470
Va.day_of_month_to_act
p1471
asVperiod
p1472
(lp1473
Vmonthly
p1474
assbassbassbasVop
p1475
(lp1476
VOR
p1477
assbasVname
p1478
(lp1479
Vidle
p1480
asVcurrentstate
p1481
(lp1482
VEnd_GA
p1483
asVdescription
p1484
(lp1485
VIdle bypassing the EWA
p1486
assba(ipoplib
MultiDict
p1487
(dp1488
g297
I0
sg298
(dp1489
Voutputs
p1490
(lp1491
(ipoplib
MultiDict
p1492
(dp1493
g297
I0
sg298
(dp1494
Voutput
p1495
(lp1496
(ipoplib
MultiDict
p1497
(dp1498
g297
I0
sg298
(dp1499
Vmessagename
p1500
(lp1501
Vrule_performance
p1502
assbassbasVcondition
p1503
(lp1504
(ipoplib
MultiDict
p1505
(dp1506
g297
I0
sg298
(dp1507
Vrhs
p1508
(lp1509
(ipoplib
MultiDict
p1510
(dp1511
g297
I0
sg298
(dp1512
Vnot
p1513
(lp1514
(ipoplib
MultiDict
p1515
(dp1516
g297
I0
sg298
(dp1517
Vtime
p1518
(lp1519
(ipoplib
MultiDict
p1520
(dp1521
g297
I0
sg298
(dp1522
Vphase
p1523
(lp1524
V1
p1525
asVperiod
p1526
(lp1527
Vmillionyearly
p1528
assbassbassbasVlhs
p1529
(lp1530
(ipoplib
MultiDict
p1531
(dp1532
g297
I0
sg298
(dp1533
Vtime
p1534
(lp1535
(ipoplib
MultiDict
p1536
(dp1537
g297
I0
sg298
(dp1538
Vphase
p1539
(lp1540
Va.day_of_month_to_act
p1541
asVperiod
p1542
(lp1543
Vmonthly
p1544
assbassbasVop
p1545
(lp1546
VAND
p1547
assbasVname
p1548
(lp1549
VHousehold_send_rule_performance
p1550
asVcurrentstate
p1551
(lp1552
VEnd_GA
p1553
asVnextstate
p1554
(lp1555
V03
p1556
assba(ipoplib
MultiDict
p1557
(dp1558
g297
I0
sg298
(dp1559
Vinputs
p1560
(lp1561
(ipoplib
MultiDict
p1562
(dp1563
g297
I0
sg298
(dp1564
Vinput
p1565
(lp1566
(ipoplib
MultiDict
p1567
(dp1568
g297
I0
sg298
(dp1569
Vmessagename
p1570
(lp1571
Vnew_performances
p1572
assbassbasVname
p1573
(lp1574
VHousehold_read_all_performances
p1575
asVcurrentstate
p1576
(lp1577
V03
p1578
asVnextstate
p1579
(lp1580
V04
p1581
assba(ipoplib
MultiDict
p1582
(dp1583
g297
I0
sg298
(dp1584
Vname
p1585
(lp1586
VHousehold_select_rule
p1587
asVcurrentstate
p1588
(lp1589
V04
p1590
asVnextstate
p1591
(lp1592
V05
p1593
assba(ipoplib
MultiDict
p1594
(dp1595
g297
I0
sg298
(dp1596
Vname
p1597
(lp1598
VHousehold_portfolio_strategy_interface
p1599
asVcurrentstate
p1600
(lp1601
V05
p1602
asVnextstate
p1603
(lp1604
VEnd_Household_EWA_Learning
p1605
assbassbasVname
p1606
(lp1607
g249
asVmemory
p1608
(lp1609
(ipoplib
MultiDict
p1610
(dp1611
g297
I0
sg298
(dp1612
N(lp1613
V<variable><type>int</type><name>id</name><description></description></variable>
p1614
aV<variable><type>int</type><name>day_of_month_to_act</name><description></description></variable>
p1615
asVvariable
p1616
(lp1617
(ipoplib
MultiDict
p1618
(dp1619
g297
I0
sg298
(dp1620
Vtype
p1621
(lp1622
g258
asVname
p1623
(lp1624
g236
assba(ipoplib
MultiDict
p1625
(dp1626
g297
I0
sg298
(dp1627
Vtype
p1628
(lp1629
VSimplePrivateClassifierSystem
p1630
asVname
p1631
(lp1632
g21
assbassbassba(ipoplib
MultiDict
p1633
(dp1634
g297
I0
sg298
(dp1635
Vfunctions
p1636
(lp1637
(ipoplib
MultiDict
p1638
(dp1639
g297
I0
sg298
(dp1640
N(lp1641
VIdle bypassing the Initialization phase
p1642
aVInitialisation phase of FA
p1643
aVIdle bypassing the GA
p1644
asVfunction
p1645
(lp1646
(ipoplib
MultiDict
p1647
(dp1648
g297
I0
sg298
(dp1649
Vnextstate
p1650
(lp1651
VStart_GA
p1652
asVcondition
p1653
(lp1654
(ipoplib
MultiDict
p1655
(dp1656
g297
I0
sg298
(dp1657
Vnot
p1658
(lp1659
(ipoplib
MultiDict
p1660
(dp1661
g297
I0
sg298
(dp1662
Vtime
p1663
(lp1664
(ipoplib
MultiDict
p1665
(dp1666
g297
I0
sg298
(dp1667
Vphase
p1668
(lp1669
V1
p1670
asVperiod
p1671
(lp1672
Vmillionyearly
p1673
assbassbassbasVname
p1674
(lp1675
Vidle
p1676
asVcurrentstate
p1677
(lp1678
VStart_FinancialAgent
p1679
asVdescription
p1680
(lp1681
VIdle bypassing Initialization phase
p1682
assba(ipoplib
MultiDict
p1683
(dp1684
g297
I0
sg298
(dp1685
Voutputs
p1686
(lp1687
(ipoplib
MultiDict
p1688
(dp1689
g297
I0
sg298
(dp1690
Voutput
p1691
(lp1692
(ipoplib
MultiDict
p1693
(dp1694
g297
I0
sg298
(dp1695
Vmessagename
p1696
(lp1697
Vinitial_rule_details
p1698
assbassbasVcondition
p1699
(lp1700
(ipoplib
MultiDict
p1701
(dp1702
g297
I0
sg298
(dp1703
Vtime
p1704
(lp1705
(ipoplib
MultiDict
p1706
(dp1707
g297
I0
sg298
(dp1708
Vphase
p1709
(lp1710
V1
p1711
asVperiod
p1712
(lp1713
Vmillionyearly
p1714
assbassbasVname
p1715
(lp1716
VFinancialAgent_initialize_rule_details
p1717
asVcurrentstate
p1718
(lp1719
VStart_FinancialAgent
p1720
asVnextstate
p1721
(lp1722
VStart_GA
p1723
assba(ipoplib
MultiDict
p1724
(dp1725
g297
I0
sg298
(dp1726
Vnextstate
p1727
(lp1728
VEnd_GA
p1729
asVcondition
p1730
(lp1731
(ipoplib
MultiDict
p1732
(dp1733
g297
I0
sg298
(dp1734
Vrhs
p1735
(lp1736
(ipoplib
MultiDict
p1737
(dp1738
g297
I0
sg298
(dp1739
Vtime
p1740
(lp1741
(ipoplib
MultiDict
p1742
(dp1743
g297
I0
sg298
(dp1744
Vphase
p1745
(lp1746
V1
p1747
asVperiod
p1748
(lp1749
Vmillionyearly
p1750
assbassbasVlhs
p1751
(lp1752
(ipoplib
MultiDict
p1753
(dp1754
g297
I0
sg298
(dp1755
Vnot
p1756
(lp1757
(ipoplib
MultiDict
p1758
(dp1759
g297
I0
sg298
(dp1760
Vtime
p1761
(lp1762
(ipoplib
MultiDict
p1763
(dp1764
g297
I0
sg298
(dp1765
Vphase
p1766
(lp1767
V1
p1768
asVperiod
p1769
(lp1770
Vyearly
p1771
assbassbassbasVop
p1772
(lp1773
VOR
p1774
assbasVname
p1775
(lp1776
Vidle
p1777
asVcurrentstate
p1778
(lp1779
VStart_GA
p1780
asVdescription
p1781
(lp1782
VIdle bypassing the GA
p1783
assba(ipoplib
MultiDict
p1784
(dp1785
g297
I0
sg298
(dp1786
Vcondition
p1787
(lp1788
(ipoplib
MultiDict
p1789
(dp1790
g297
I0
sg298
(dp1791
Vrhs
p1792
(lp1793
(ipoplib
MultiDict
p1794
(dp1795
g297
I0
sg298
(dp1796
Vnot
p1797
(lp1798
(ipoplib
MultiDict
p1799
(dp1800
g297
I0
sg298
(dp1801
Vtime
p1802
(lp1803
(ipoplib
MultiDict
p1804
(dp1805
g297
I0
sg298
(dp1806
Vphase
p1807
(lp1808
V1
p1809
asVperiod
p1810
(lp1811
Vmillionyearly
p1812
assbassbassbasVlhs
p1813
(lp1814
(ipoplib
MultiDict
p1815
(dp1816
g297
I0
sg298
(dp1817
Vtime
p1818
(lp1819
(ipoplib
MultiDict
p1820
(dp1821
g297
I0
sg298
(dp1822
Vphase
p1823
(lp1824
V1
p1825
asVperiod
p1826
(lp1827
Vyearly
p1828
assbassbasVop
p1829
(lp1830
VAND
p1831
assbasVname
p1832
(lp1833
VFinancialAgent_apply_GA
p1834
asVcurrentstate
p1835
(lp1836
VStart_GA
p1837
asVnextstate
p1838
(lp1839
V01
p1840
assba(ipoplib
MultiDict
p1841
(dp1842
g297
I0
sg298
(dp1843
Voutputs
p1844
(lp1845
(ipoplib
MultiDict
p1846
(dp1847
g297
I0
sg298
(dp1848
Voutput
p1849
(lp1850
(ipoplib
MultiDict
p1851
(dp1852
g297
I0
sg298
(dp1853
Vmessagename
p1854
(lp1855
Vrule_details
p1856
assbassbasVname
p1857
(lp1858
VFinancialAgent_send_rule_details
p1859
asVcurrentstate
p1860
(lp1861
V01
p1862
asVnextstate
p1863
(lp1864
V02
p1865
assba(ipoplib
MultiDict
p1866
(dp1867
g297
I0
sg298
(dp1868
Voutputs
p1869
(lp1870
(ipoplib
MultiDict
p1871
(dp1872
g297
I0
sg298
(dp1873
sbasVname
p1874
(lp1875
VFinancialAgent_print_public_classifiersystem
p1876
asVcurrentstate
p1877
(lp1878
V02
p1879
asVnextstate
p1880
(lp1881
V03
p1882
assba(ipoplib
MultiDict
p1883
(dp1884
g297
I0
sg298
(dp1885
Vnextstate
p1886
(lp1887
VEnd_GA
p1888
asVname
p1889
(lp1890
VFinancialAgent_reset_public_classifiersystem
p1891
asVcurrentstate
p1892
(lp1893
V03
p1894
asVdescription
p1895
(lp1896
VResetting user counter, performance sum, avg_performance
p1897
assba(ipoplib
MultiDict
p1898
(dp1899
g297
I0
sg298
(dp1900
Vinputs
p1901
(lp1902
(ipoplib
MultiDict
p1903
(dp1904
g297
I0
sg298
(dp1905
Vinput
p1906
(lp1907
(ipoplib
MultiDict
p1908
(dp1909
g297
I0
sg298
(dp1910
Vmessagename
p1911
(lp1912
Vrule_performance
p1913
assbassbasVname
p1914
(lp1915
VFinancialAgent_read_rule_performance_and_update_classifiersystem
p1916
asVcurrentstate
p1917
(lp1918
VEnd_GA
p1919
asVnextstate
p1920
(lp1921
V04
p1922
assba(ipoplib
MultiDict
p1923
(dp1924
g297
I0
sg298
(dp1925
Voutputs
p1926
(lp1927
(ipoplib
MultiDict
p1928
(dp1929
g297
I0
sg298
(dp1930
Voutput
p1931
(lp1932
(ipoplib
MultiDict
p1933
(dp1934
g297
I0
sg298
(dp1935
Vmessagename
p1936
(lp1937
Vnew_performances
p1938
assbassbasVname
p1939
(lp1940
VFinancialAgent_send_all_performances
p1941
asVcurrentstate
p1942
(lp1943
V04
p1944
asVnextstate
p1945
(lp1946
Vend_FinancialAgent
p1947
assbassbasVname
p1948
(lp1949
VFinancialAgent
p1950
asVmemory
p1951
(lp1952
(ipoplib
MultiDict
p1953
(dp1954
g297
I0
sg298
(dp1955
N(lp1956
V<variable><type>int</type><name>id</name><description></description></variable>
p1957
asVvariable
p1958
(lp1959
(ipoplib
MultiDict
p1960
(dp1961
g297
I0
sg298
(dp1962
Vtype
p1963
(lp1964
VSimplePublicClassifierSystem
p1965
asVname
p1966
(lp1967
Vpublic_classifiersystem
p1968
asVdescription
p1969
(lp1970
VPublic classifiersystem holding the rule table.
p1971
assba(ipoplib
MultiDict
p1972
(dp1973
g297
I0
sg298
(dp1974
Vtype
p1975
(lp1976
VSimplePublicClassifierSystem
p1977
asVname
p1978
(lp1979
Vpublic_classifiersystem_candidates
p1980
asVdescription
p1981
(lp1982
VPublic classifiersystem to hold the candidate offspring bitstrings, before copying them into the parent population.
p1983
assba(ipoplib
MultiDict
p1984
(dp1985
g297
I0
sg298
(dp1986
Vtype
p1987
(lp1988
VGAParameterStruct
p1989
asVname
p1990
(lp1991
VGA_parameters
p1992
assba(ipoplib
MultiDict
p1993
(dp1994
g297
I0
sg298
(dp1995
Vtype
p1996
(lp1997
VEWAParameterStruct
p1998
asVname
p1999
(lp2000
VEWA_parameters
p2001
assbassbassbassbasVdescription
p2002
(lp2003
VAuthor: Sander van der Hoog, 01/06/2007, 05/03/2008, 22/05/2008, Converted from old XMML 1.0
p2004
assbassbsS'author'
p2005
g292
ssS'toplevelpop'
p2006
g0
sS'submodels'
p2007
(dp2008
sS'region'
p2009
(ipoplib
PopRegion
p2010
(dp2011
S'numAgents'
p2012
(dp2013
g8
I5
sVFinancialAgent
p2014
I1
ssS'parentpop'
p2015
g0
sg6
(dp2016
g8
(lp2017
g10
a(ipoplib
AgentInstance
p2018
(dp2019
g12
I0
sg13
(ipoplib
MemVarRegistry
p2020
(dp2021
g16
(dp2022
sg18
I0
sg19
(dp2023
g21
g22
(g23
g24
(dp2024
g26
I100
sg27
I46
sg28
(lp2025
(lp2026
I0
aF0.0
aF0.0
aF0.0
aF0.01
a(lp2027
F0.0
aF0.0
aF0.0
aF0.0
aF0.0
aaa(lp2028
I1
aF0.0
aF0.0
aF0.0
aF0.01
a(lp2029
F0.0
aF0.0
aF0.0
aF0.0
aF0.0
aaa(lp2030
I2
aF0.0
aF0.0
aF0.0
aF0.01
a(lp2031
F0.0
aF0.0
aF0.0
aF0.0
aF0.0
aaa(lp2032
I3
aF0.0
aF0.0
aF0.0
aF0.01
a(lp2033
F0.0
aF0.0
aF0.0
aF0.0
aF0.0
aaa(lp2034
I4
aF0.0
aF0.0
aF0.0
aF0.01
a(lp2035
F0.0
aF0.0
aF0.0
aF0.0
aF0.0
aaa(lp2036
I5
aF0.0
aF0.0
aF0.0
aF0.01
a(lp2037
F0.0
aF0.0
aF0.0
aF0.0
aF0.0
aaa(lp2038
I6
aF0.0
aF0.0
aF0.0
aF0.01
a(lp2039
F0.0
aF0.0
aF0.0
aF0.0
aF0.0
aaa(lp2040
I7
aF0.0
aF0.0
aF0.0
aF0.01
a(lp2041
F0.0
aF0.0
aF0.0
aF0.0
aF0.0
aaa(lp2042
I8
aF0.0
aF0.0
aF0.0
aF0.01
a(lp2043
F0.0
aF0.0
aF0.0
aF0.0
aF0.0
aaa(lp2044
I9
aF0.0
aF0.0
aF0.0
aF0.01
a(lp2045
F0.0
aF0.0
aF0.0
aF0.0
aF0.0
aaa(lp2046
I10
aF0.0
aF0.0
aF0.0
aF0.01
a(lp2047
F0.0
aF0.0
aF0.0
aF0.0
aF0.0
aaa(lp2048
I11
aF0.0
aF0.0
aF0.0
aF0.01
a(lp2049
F0.0
aF0.0
aF0.0
aF0.0
aF0.0
aaa(lp2050
I12
aF0.0
aF0.0
aF0.0
aF0.01
a(lp2051
F0.0
aF0.0
aF0.0
aF0.0
aF0.0
aaa(lp2052
I13
aF0.0
aF0.0
aF0.0
aF0.01
a(lp2053
F0.0
aF0.0
aF0.0
aF0.0
aF0.0
aaa(lp2054
I14
aF0.0
aF0.0
aF0.0
aF0.01
a(lp2055
F0.0
aF0.0
aF0.0
aF0.0
aF0.0
aaa(lp2056
I15
aF0.0
aF0.0
aF0.0
aF0.01
a(lp2057
F0.0
aF0.0
aF0.0
aF0.0
aF0.0
aaa(lp2058
I16
aF0.0
aF0.0
aF0.0
aF0.01
a(lp2059
F0.0
aF0.0
aF0.0
aF0.0
aF0.0
aaa(lp2060
I17
aF0.0
aF0.0
aF0.0
aF0.01
a(lp2061
F0.0
aF0.0
aF0.0
aF0.0
aF0.0
aaa(lp2062
I18
aF0.0
aF0.0
aF0.0
aF0.01
a(lp2063
F0.0
aF0.0
aF0.0
aF0.0
aF0.0
aaa(lp2064
I19
aF0.0
aF0.0
aF0.0
aF0.01
a(lp2065
F0.0
aF0.0
aF0.0
aF0.0
aF0.0
aaa(lp2066
I20
aF0.0
aF0.0
aF0.0
aF0.01
a(lp2067
F0.0
aF0.0
aF0.0
aF0.0
aF0.0
aaa(lp2068
I21
aF0.0
aF0.0
aF0.0
aF0.01
a(lp2069
F0.0
aF0.0
aF0.0
aF0.0
aF0.0
aaa(lp2070
I22
aF0.0
aF0.0
aF0.0
aF0.01
a(lp2071
F0.0
aF0.0
aF0.0
aF0.0
aF0.0
aaa(lp2072
I23
aF0.0
aF0.0
aF0.0
aF0.01
a(lp2073
F0.0
aF0.0
aF0.0
aF0.0
aF0.0
aaa(lp2074
I24
aF0.0
aF0.0
aF0.0
aF0.01
a(lp2075
F0.0
aF0.0
aF0.0
aF0.0
aF0.0
aaa(lp2076
I25
aF0.0
aF0.0
aF0.0
aF0.01
a(lp2077
F0.0
aF0.0
aF0.0
aF0.0
aF0.0
aaa(lp2078
I26
aF0.0
aF0.0
aF0.0
aF0.01
a(lp2079
F0.0
aF0.0
aF0.0
aF0.0
aF0.0
aaa(lp2080
I27
aF0.0
aF0.0
aF0.0
aF0.01
a(lp2081
F0.0
aF0.0
aF0.0
aF0.0
aF0.0
aaa(lp2082
I28
aF0.0
aF0.0
aF0.0
aF0.01
a(lp2083
F0.0
aF0.0
aF0.0
aF0.0
aF0.0
aaa(lp2084
I29
aF0.0
aF0.0
aF0.0
aF0.01
a(lp2085
F0.0
aF0.0
aF0.0
aF0.0
aF0.0
aaa(lp2086
I30
aF0.0
aF0.0
aF0.0
aF0.01
a(lp2087
F0.0
aF0.0
aF0.0
aF0.0
aF0.0
aaa(lp2088
I31
aF0.0
aF0.0
aF0.0
aF0.01
a(lp2089
F0.0
aF0.0
aF0.0
aF0.0
aF0.0
aaa(lp2090
I32
aF0.0
aF0.0
aF0.0
aF0.01
a(lp2091
F0.0
aF0.0
aF0.0
aF0.0
aF0.0
aaa(lp2092
I33
aF0.0
aF0.0
aF0.0
aF0.01
a(lp2093
F0.0
aF0.0
aF0.0
aF0.0
aF0.0
aaa(lp2094
I34
aF0.0
aF0.0
aF0.0
aF0.01
a(lp2095
F0.0
aF0.0
aF0.0
aF0.0
aF0.0
aaa(lp2096
I35
aF0.0
aF0.0
aF0.0
aF0.01
a(lp2097
F0.0
aF0.0
aF0.0
aF0.0
aF0.0
aaa(lp2098
I36
aF0.0
aF0.0
aF0.0
aF0.01
a(lp2099
F0.0
aF0.0
aF0.0
aF0.0
aF0.0
aaa(lp2100
I37
aF0.0
aF0.0
aF0.0
aF0.01
a(lp2101
F0.0
aF0.0
aF0.0
aF0.0
aF0.0
aaa(lp2102
I38
aF0.0
aF0.0
aF0.0
aF0.01
a(lp2103
F0.0
aF0.0
aF0.0
aF0.0
aF0.0
aaa(lp2104
I39
aF0.0
aF0.0
aF0.0
aF0.01
a(lp2105
F0.0
aF0.0
aF0.0
aF0.0
aF0.0
aaa(lp2106
I40
aF0.0
aF0.0
aF0.0
aF0.01
a(lp2107
F0.0
aF0.0
aF0.0
aF0.0
aF0.0
aaa(lp2108
I41
aF0.0
aF0.0
aF0.0
aF0.01
a(lp2109
F0.0
aF0.0
aF0.0
aF0.0
aF0.0
aaa(lp2110
I42
aF0.0
aF0.0
aF0.0
aF0.01
a(lp2111
F0.0
aF0.0
aF0.0
aF0.0
aF0.0
aaa(lp2112
I43
aF0.0
aF0.0
aF0.0
aF0.01
a(lp2113
F0.0
aF0.0
aF0.0
aF0.0
aF0.0
aaa(lp2114
I44
aF0.0
aF0.0
aF0.0
aF0.01
a(lp2115
F0.0
aF0.0
aF0.0
aF0.0
aF0.0
aaa(lp2116
I45
aF0.0
aF0.0
aF0.0
aF0.01
a(lp2117
F0.0
aF0.0
aF0.0
aF0.0
aF0.0
aaa(lp2118
I46
aF0.0
aF0.0
aF0.0
aF0.01
a(lp2119
F0.0
aF0.0
aF0.0
aF0.0
aF0.0
aaa(lp2120
I47
aF0.0
aF0.0
aF0.0
aF0.01
a(lp2121
F0.0
aF0.0
aF0.0
aF0.0
aF0.0
aaa(lp2122
I48
aF0.0
aF0.0
aF0.0
aF0.01
a(lp2123
F0.0
aF0.0
aF0.0
aF0.0
aF0.0
aaa(lp2124
I49
aF0.0
aF0.0
aF0.0
aF0.01
a(lp2125
F0.0
aF0.0
aF0.0
aF0.0
aF0.0
aaa(lp2126
I50
aF0.0
aF0.0
aF0.0
aF0.01
a(lp2127
F0.0
aF0.0
aF0.0
aF0.0
aF0.0
aaa(lp2128
I51
aF0.0
aF0.0
aF0.0
aF0.01
a(lp2129
F0.0
aF0.0
aF0.0
aF0.0
aF0.0
aaa(lp2130
I52
aF0.0
aF0.0
aF0.0
aF0.01
a(lp2131
F0.0
aF0.0
aF0.0
aF0.0
aF0.0
aaa(lp2132
I53
aF0.0
aF0.0
aF0.0
aF0.01
a(lp2133
F0.0
aF0.0
aF0.0
aF0.0
aF0.0
aaa(lp2134
I54
aF0.0
aF0.0
aF0.0
aF0.01
a(lp2135
F0.0
aF0.0
aF0.0
aF0.0
aF0.0
aaa(lp2136
I55
aF0.0
aF0.0
aF0.0
aF0.01
a(lp2137
F0.0
aF0.0
aF0.0
aF0.0
aF0.0
aaa(lp2138
I56
aF0.0
aF0.0
aF0.0
aF0.01
a(lp2139
F0.0
aF0.0
aF0.0
aF0.0
aF0.0
aaa(lp2140
I57
aF0.0
aF0.0
aF0.0
aF0.01
a(lp2141
F0.0
aF0.0
aF0.0
aF0.0
aF0.0
aaa(lp2142
I58
aF0.0
aF0.0
aF0.0
aF0.01
a(lp2143
F0.0
aF0.0
aF0.0
aF0.0
aF0.0
aaa(lp2144
I59
aF0.0
aF0.0
aF0.0
aF0.01
a(lp2145
F0.0
aF0.0
aF0.0
aF0.0
aF0.0
aaa(lp2146
I60
aF0.0
aF0.0
aF0.0
aF0.01
a(lp2147
F0.0
aF0.0
aF0.0
aF0.0
aF0.0
aaa(lp2148
I61
aF0.0
aF0.0
aF0.0
aF0.01
a(lp2149
F0.0
aF0.0
aF0.0
aF0.0
aF0.0
aaa(lp2150
I62
aF0.0
aF0.0
aF0.0
aF0.01
a(lp2151
F0.0
aF0.0
aF0.0
aF0.0
aF0.0
aaa(lp2152
I63
aF0.0
aF0.0
aF0.0
aF0.01
a(lp2153
F0.0
aF0.0
aF0.0
aF0.0
aF0.0
aaa(lp2154
I64
aF0.0
aF0.0
aF0.0
aF0.01
a(lp2155
F0.0
aF0.0
aF0.0
aF0.0
aF0.0
aaa(lp2156
I65
aF0.0
aF0.0
aF0.0
aF0.01
a(lp2157
F0.0
aF0.0
aF0.0
aF0.0
aF0.0
aaa(lp2158
I66
aF0.0
aF0.0
aF0.0
aF0.01
a(lp2159
F0.0
aF0.0
aF0.0
aF0.0
aF0.0
aaa(lp2160
I67
aF0.0
aF0.0
aF0.0
aF0.01
a(lp2161
F0.0
aF0.0
aF0.0
aF0.0
aF0.0
aaa(lp2162
I68
aF0.0
aF0.0
aF0.0
aF0.01
a(lp2163
F0.0
aF0.0
aF0.0
aF0.0
aF0.0
aaa(lp2164
I69
aF0.0
aF0.0
aF0.0
aF0.01
a(lp2165
F0.0
aF0.0
aF0.0
aF0.0
aF0.0
aaa(lp2166
I70
aF0.0
aF0.0
aF0.0
aF0.01
a(lp2167
F0.0
aF0.0
aF0.0
aF0.0
aF0.0
aaa(lp2168
I71
aF0.0
aF0.0
aF0.0
aF0.01
a(lp2169
F0.0
aF0.0
aF0.0
aF0.0
aF0.0
aaa(lp2170
I72
aF0.0
aF0.0
aF0.0
aF0.01
a(lp2171
F0.0
aF0.0
aF0.0
aF0.0
aF0.0
aaa(lp2172
I73
aF0.0
aF0.0
aF0.0
aF0.01
a(lp2173
F0.0
aF0.0
aF0.0
aF0.0
aF0.0
aaa(lp2174
I74
aF0.0
aF0.0
aF0.0
aF0.01
a(lp2175
F0.0
aF0.0
aF0.0
aF0.0
aF0.0
aaa(lp2176
I75
aF0.0
aF0.0
aF0.0
aF0.01
a(lp2177
F0.0
aF0.0
aF0.0
aF0.0
aF0.0
aaa(lp2178
I76
aF0.0
aF0.0
aF0.0
aF0.01
a(lp2179
F0.0
aF0.0
aF0.0
aF0.0
aF0.0
aaa(lp2180
I77
aF0.0
aF0.0
aF0.0
aF0.01
a(lp2181
F0.0
aF0.0
aF0.0
aF0.0
aF0.0
aaa(lp2182
I78
aF0.0
aF0.0
aF0.0
aF0.01
a(lp2183
F0.0
aF0.0
aF0.0
aF0.0
aF0.0
aaa(lp2184
I79
aF0.0
aF0.0
aF0.0
aF0.01
a(lp2185
F0.0
aF0.0
aF0.0
aF0.0
aF0.0
aaa(lp2186
I80
aF0.0
aF0.0
aF0.0
aF0.01
a(lp2187
F0.0
aF0.0
aF0.0
aF0.0
aF0.0
aaa(lp2188
I81
aF0.0
aF0.0
aF0.0
aF0.01
a(lp2189
F0.0
aF0.0
aF0.0
aF0.0
aF0.0
aaa(lp2190
I82
aF0.0
aF0.0
aF0.0
aF0.01
a(lp2191
F0.0
aF0.0
aF0.0
aF0.0
aF0.0
aaa(lp2192
I83
aF0.0
aF0.0
aF0.0
aF0.01
a(lp2193
F0.0
aF0.0
aF0.0
aF0.0
aF0.0
aaa(lp2194
I84
aF0.0
aF0.0
aF0.0
aF0.01
a(lp2195
F0.0
aF0.0
aF0.0
aF0.0
aF0.0
aaa(lp2196
I85
aF0.0
aF0.0
aF0.0
aF0.01
a(lp2197
F0.0
aF0.0
aF0.0
aF0.0
aF0.0
aaa(lp2198
I86
aF0.0
aF0.0
aF0.0
aF0.01
a(lp2199
F0.0
aF0.0
aF0.0
aF0.0
aF0.0
aaa(lp2200
I87
aF0.0
aF0.0
aF0.0
aF0.01
a(lp2201
F0.0
aF0.0
aF0.0
aF0.0
aF0.0
aaa(lp2202
I88
aF0.0
aF0.0
aF0.0
aF0.01
a(lp2203
F0.0
aF0.0
aF0.0
aF0.0
aF0.0
aaa(lp2204
I89
aF0.0
aF0.0
aF0.0
aF0.01
a(lp2205
F0.0
aF0.0
aF0.0
aF0.0
aF0.0
aaa(lp2206
I90
aF0.0
aF0.0
aF0.0
aF0.01
a(lp2207
F0.0
aF0.0
aF0.0
aF0.0
aF0.0
aaa(lp2208
I91
aF0.0
aF0.0
aF0.0
aF0.01
a(lp2209
F0.0
aF0.0
aF0.0
aF0.0
aF0.0
aaa(lp2210
I92
aF0.0
aF0.0
aF0.0
aF0.01
a(lp2211
F0.0
aF0.0
aF0.0
aF0.0
aF0.0
aaa(lp2212
I93
aF0.0
aF0.0
aF0.0
aF0.01
a(lp2213
F0.0
aF0.0
aF0.0
aF0.0
aF0.0
aaa(lp2214
I94
aF0.0
aF0.0
aF0.0
aF0.01
a(lp2215
F0.0
aF0.0
aF0.0
aF0.0
aF0.0
aaa(lp2216
I95
aF0.0
aF0.0
aF0.0
aF0.01
a(lp2217
F0.0
aF0.0
aF0.0
aF0.0
aF0.0
aaa(lp2218
I96
aF0.0
aF0.0
aF0.0
aF0.01
a(lp2219
F0.0
aF0.0
aF0.0
aF0.0
aF0.0
aaa(lp2220
I97
aF0.0
aF0.0
aF0.0
aF0.01
a(lp2221
F0.0
aF0.0
aF0.0
aF0.0
aF0.0
aaa(lp2222
I98
aF0.0
aF0.0
aF0.0
aF0.01
a(lp2223
F0.0
aF0.0
aF0.0
aF0.0
aF0.0
aaa(lp2224
I99
aF0.0
aF0.0
aF0.0
aF0.01
a(lp2225
F0.0
aF0.0
aF0.0
aF0.0
aF0.0
aaasg230
F0.0
stp2226
Rp2227
(dp2228
g234
(lp2229
g26
ag230
ag27
ag28
asbsg236
g22
(g23
g24
(dp2230
g238
F0.0
sg239
F1.0
sg240
F1.0
sg241
F1.0
stp2231
Rp2232
(dp2233
g234
(lp2234
g240
ag238
ag241
ag239
asbssg246
g247
sS'agentinstance'
p2235
g2018
sbsS'instantiated'
p2236
I1
sg2009
g2010
sS'sequenceno'
p2237
I1
sS'values'
p2238
(dp2239
g21
g2227
sg236
g2232
ssS'agentname'
p2240
g8
sg286
g287
sS'ID'
p2241
I14
sba(ipoplib
AgentInstance
p2242
(dp2243
g12
I0
sg13
(ipoplib
MemVarRegistry
p2244
(dp2245
g16
(dp2246
sg18
I0
sg19
(dp2247
g21
g22
(g23
g24
(dp2248
g26
I100
sg27
I98
sg28
(lp2249
(lp2250
I0
aF0.0
aF0.0
aF0.0
aF0.01
a(lp2251
F0.0
aF0.0
aF0.0
aF0.0
aF0.0
aaa(lp2252
I1
aF0.0
aF0.0
aF0.0
aF0.01
a(lp2253
F0.0
aF0.0
aF0.0
aF0.0
aF0.0
aaa(lp2254
I2
aF0.0
aF0.0
aF0.0
aF0.01
a(lp2255
F0.0
aF0.0
aF0.0
aF0.0
aF0.0
aaa(lp2256
I3
aF0.0
aF0.0
aF0.0
aF0.01
a(lp2257
F0.0
aF0.0
aF0.0
aF0.0
aF0.0
aaa(lp2258
I4
aF0.0
aF0.0
aF0.0
aF0.01
a(lp2259
F0.0
aF0.0
aF0.0
aF0.0
aF0.0
aaa(lp2260
I5
aF0.0
aF0.0
aF0.0
aF0.01
a(lp2261
F0.0
aF0.0
aF0.0
aF0.0
aF0.0
aaa(lp2262
I6
aF0.0
aF0.0
aF0.0
aF0.01
a(lp2263
F0.0
aF0.0
aF0.0
aF0.0
aF0.0
aaa(lp2264
I7
aF0.0
aF0.0
aF0.0
aF0.01
a(lp2265
F0.0
aF0.0
aF0.0
aF0.0
aF0.0
aaa(lp2266
I8
aF0.0
aF0.0
aF0.0
aF0.01
a(lp2267
F0.0
aF0.0
aF0.0
aF0.0
aF0.0
aaa(lp2268
I9
aF0.0
aF0.0
aF0.0
aF0.01
a(lp2269
F0.0
aF0.0
aF0.0
aF0.0
aF0.0
aaa(lp2270
I10
aF0.0
aF0.0
aF0.0
aF0.01
a(lp2271
F0.0
aF0.0
aF0.0
aF0.0
aF0.0
aaa(lp2272
I11
aF0.0
aF0.0
aF0.0
aF0.01
a(lp2273
F0.0
aF0.0
aF0.0
aF0.0
aF0.0
aaa(lp2274
I12
aF0.0
aF0.0
aF0.0
aF0.01
a(lp2275
F0.0
aF0.0
aF0.0
aF0.0
aF0.0
aaa(lp2276
I13
aF0.0
aF0.0
aF0.0
aF0.01
a(lp2277
F0.0
aF0.0
aF0.0
aF0.0
aF0.0
aaa(lp2278
I14
aF0.0
aF0.0
aF0.0
aF0.01
a(lp2279
F0.0
aF0.0
aF0.0
aF0.0
aF0.0
aaa(lp2280
I15
aF0.0
aF0.0
aF0.0
aF0.01
a(lp2281
F0.0
aF0.0
aF0.0
aF0.0
aF0.0
aaa(lp2282
I16
aF0.0
aF0.0
aF0.0
aF0.01
a(lp2283
F0.0
aF0.0
aF0.0
aF0.0
aF0.0
aaa(lp2284
I17
aF0.0
aF0.0
aF0.0
aF0.01
a(lp2285
F0.0
aF0.0
aF0.0
aF0.0
aF0.0
aaa(lp2286
I18
aF0.0
aF0.0
aF0.0
aF0.01
a(lp2287
F0.0
aF0.0
aF0.0
aF0.0
aF0.0
aaa(lp2288
I19
aF0.0
aF0.0
aF0.0
aF0.01
a(lp2289
F0.0
aF0.0
aF0.0
aF0.0
aF0.0
aaa(lp2290
I20
aF0.0
aF0.0
aF0.0
aF0.01
a(lp2291
F0.0
aF0.0
aF0.0
aF0.0
aF0.0
aaa(lp2292
I21
aF0.0
aF0.0
aF0.0
aF0.01
a(lp2293
F0.0
aF0.0
aF0.0
aF0.0
aF0.0
aaa(lp2294
I22
aF0.0
aF0.0
aF0.0
aF0.01
a(lp2295
F0.0
aF0.0
aF0.0
aF0.0
aF0.0
aaa(lp2296
I23
aF0.0
aF0.0
aF0.0
aF0.01
a(lp2297
F0.0
aF0.0
aF0.0
aF0.0
aF0.0
aaa(lp2298
I24
aF0.0
aF0.0
aF0.0
aF0.01
a(lp2299
F0.0
aF0.0
aF0.0
aF0.0
aF0.0
aaa(lp2300
I25
aF0.0
aF0.0
aF0.0
aF0.01
a(lp2301
F0.0
aF0.0
aF0.0
aF0.0
aF0.0
aaa(lp2302
I26
aF0.0
aF0.0
aF0.0
aF0.01
a(lp2303
F0.0
aF0.0
aF0.0
aF0.0
aF0.0
aaa(lp2304
I27
aF0.0
aF0.0
aF0.0
aF0.01
a(lp2305
F0.0
aF0.0
aF0.0
aF0.0
aF0.0
aaa(lp2306
I28
aF0.0
aF0.0
aF0.0
aF0.01
a(lp2307
F0.0
aF0.0
aF0.0
aF0.0
aF0.0
aaa(lp2308
I29
aF0.0
aF0.0
aF0.0
aF0.01
a(lp2309
F0.0
aF0.0
aF0.0
aF0.0
aF0.0
aaa(lp2310
I30
aF0.0
aF0.0
aF0.0
aF0.01
a(lp2311
F0.0
aF0.0
aF0.0
aF0.0
aF0.0
aaa(lp2312
I31
aF0.0
aF0.0
aF0.0
aF0.01
a(lp2313
F0.0
aF0.0
aF0.0
aF0.0
aF0.0
aaa(lp2314
I32
aF0.0
aF0.0
aF0.0
aF0.01
a(lp2315
F0.0
aF0.0
aF0.0
aF0.0
aF0.0
aaa(lp2316
I33
aF0.0
aF0.0
aF0.0
aF0.01
a(lp2317
F0.0
aF0.0
aF0.0
aF0.0
aF0.0
aaa(lp2318
I34
aF0.0
aF0.0
aF0.0
aF0.01
a(lp2319
F0.0
aF0.0
aF0.0
aF0.0
aF0.0
aaa(lp2320
I35
aF0.0
aF0.0
aF0.0
aF0.01
a(lp2321
F0.0
aF0.0
aF0.0
aF0.0
aF0.0
aaa(lp2322
I36
aF0.0
aF0.0
aF0.0
aF0.01
a(lp2323
F0.0
aF0.0
aF0.0
aF0.0
aF0.0
aaa(lp2324
I37
aF0.0
aF0.0
aF0.0
aF0.01
a(lp2325
F0.0
aF0.0
aF0.0
aF0.0
aF0.0
aaa(lp2326
I38
aF0.0
aF0.0
aF0.0
aF0.01
a(lp2327
F0.0
aF0.0
aF0.0
aF0.0
aF0.0
aaa(lp2328
I39
aF0.0
aF0.0
aF0.0
aF0.01
a(lp2329
F0.0
aF0.0
aF0.0
aF0.0
aF0.0
aaa(lp2330
I40
aF0.0
aF0.0
aF0.0
aF0.01
a(lp2331
F0.0
aF0.0
aF0.0
aF0.0
aF0.0
aaa(lp2332
I41
aF0.0
aF0.0
aF0.0
aF0.01
a(lp2333
F0.0
aF0.0
aF0.0
aF0.0
aF0.0
aaa(lp2334
I42
aF0.0
aF0.0
aF0.0
aF0.01
a(lp2335
F0.0
aF0.0
aF0.0
aF0.0
aF0.0
aaa(lp2336
I43
aF0.0
aF0.0
aF0.0
aF0.01
a(lp2337
F0.0
aF0.0
aF0.0
aF0.0
aF0.0
aaa(lp2338
I44
aF0.0
aF0.0
aF0.0
aF0.01
a(lp2339
F0.0
aF0.0
aF0.0
aF0.0
aF0.0
aaa(lp2340
I45
aF0.0
aF0.0
aF0.0
aF0.01
a(lp2341
F0.0
aF0.0
aF0.0
aF0.0
aF0.0
aaa(lp2342
I46
aF0.0
aF0.0
aF0.0
aF0.01
a(lp2343
F0.0
aF0.0
aF0.0
aF0.0
aF0.0
aaa(lp2344
I47
aF0.0
aF0.0
aF0.0
aF0.01
a(lp2345
F0.0
aF0.0
aF0.0
aF0.0
aF0.0
aaa(lp2346
I48
aF0.0
aF0.0
aF0.0
aF0.01
a(lp2347
F0.0
aF0.0
aF0.0
aF0.0
aF0.0
aaa(lp2348
I49
aF0.0
aF0.0
aF0.0
aF0.01
a(lp2349
F0.0
aF0.0
aF0.0
aF0.0
aF0.0
aaa(lp2350
I50
aF0.0
aF0.0
aF0.0
aF0.01
a(lp2351
F0.0
aF0.0
aF0.0
aF0.0
aF0.0
aaa(lp2352
I51
aF0.0
aF0.0
aF0.0
aF0.01
a(lp2353
F0.0
aF0.0
aF0.0
aF0.0
aF0.0
aaa(lp2354
I52
aF0.0
aF0.0
aF0.0
aF0.01
a(lp2355
F0.0
aF0.0
aF0.0
aF0.0
aF0.0
aaa(lp2356
I53
aF0.0
aF0.0
aF0.0
aF0.01
a(lp2357
F0.0
aF0.0
aF0.0
aF0.0
aF0.0
aaa(lp2358
I54
aF0.0
aF0.0
aF0.0
aF0.01
a(lp2359
F0.0
aF0.0
aF0.0
aF0.0
aF0.0
aaa(lp2360
I55
aF0.0
aF0.0
aF0.0
aF0.01
a(lp2361
F0.0
aF0.0
aF0.0
aF0.0
aF0.0
aaa(lp2362
I56
aF0.0
aF0.0
aF0.0
aF0.01
a(lp2363
F0.0
aF0.0
aF0.0
aF0.0
aF0.0
aaa(lp2364
I57
aF0.0
aF0.0
aF0.0
aF0.01
a(lp2365
F0.0
aF0.0
aF0.0
aF0.0
aF0.0
aaa(lp2366
I58
aF0.0
aF0.0
aF0.0
aF0.01
a(lp2367
F0.0
aF0.0
aF0.0
aF0.0
aF0.0
aaa(lp2368
I59
aF0.0
aF0.0
aF0.0
aF0.01
a(lp2369
F0.0
aF0.0
aF0.0
aF0.0
aF0.0
aaa(lp2370
I60
aF0.0
aF0.0
aF0.0
aF0.01
a(lp2371
F0.0
aF0.0
aF0.0
aF0.0
aF0.0
aaa(lp2372
I61
aF0.0
aF0.0
aF0.0
aF0.01
a(lp2373
F0.0
aF0.0
aF0.0
aF0.0
aF0.0
aaa(lp2374
I62
aF0.0
aF0.0
aF0.0
aF0.01
a(lp2375
F0.0
aF0.0
aF0.0
aF0.0
aF0.0
aaa(lp2376
I63
aF0.0
aF0.0
aF0.0
aF0.01
a(lp2377
F0.0
aF0.0
aF0.0
aF0.0
aF0.0
aaa(lp2378
I64
aF0.0
aF0.0
aF0.0
aF0.01
a(lp2379
F0.0
aF0.0
aF0.0
aF0.0
aF0.0
aaa(lp2380
I65
aF0.0
aF0.0
aF0.0
aF0.01
a(lp2381
F0.0
aF0.0
aF0.0
aF0.0
aF0.0
aaa(lp2382
I66
aF0.0
aF0.0
aF0.0
aF0.01
a(lp2383
F0.0
aF0.0
aF0.0
aF0.0
aF0.0
aaa(lp2384
I67
aF0.0
aF0.0
aF0.0
aF0.01
a(lp2385
F0.0
aF0.0
aF0.0
aF0.0
aF0.0
aaa(lp2386
I68
aF0.0
aF0.0
aF0.0
aF0.01
a(lp2387
F0.0
aF0.0
aF0.0
aF0.0
aF0.0
aaa(lp2388
I69
aF0.0
aF0.0
aF0.0
aF0.01
a(lp2389
F0.0
aF0.0
aF0.0
aF0.0
aF0.0
aaa(lp2390
I70
aF0.0
aF0.0
aF0.0
aF0.01
a(lp2391
F0.0
aF0.0
aF0.0
aF0.0
aF0.0
aaa(lp2392
I71
aF0.0
aF0.0
aF0.0
aF0.01
a(lp2393
F0.0
aF0.0
aF0.0
aF0.0
aF0.0
aaa(lp2394
I72
aF0.0
aF0.0
aF0.0
aF0.01
a(lp2395
F0.0
aF0.0
aF0.0
aF0.0
aF0.0
aaa(lp2396
I73
aF0.0
aF0.0
aF0.0
aF0.01
a(lp2397
F0.0
aF0.0
aF0.0
aF0.0
aF0.0
aaa(lp2398
I74
aF0.0
aF0.0
aF0.0
aF0.01
a(lp2399
F0.0
aF0.0
aF0.0
aF0.0
aF0.0
aaa(lp2400
I75
aF0.0
aF0.0
aF0.0
aF0.01
a(lp2401
F0.0
aF0.0
aF0.0
aF0.0
aF0.0
aaa(lp2402
I76
aF0.0
aF0.0
aF0.0
aF0.01
a(lp2403
F0.0
aF0.0
aF0.0
aF0.0
aF0.0
aaa(lp2404
I77
aF0.0
aF0.0
aF0.0
aF0.01
a(lp2405
F0.0
aF0.0
aF0.0
aF0.0
aF0.0
aaa(lp2406
I78
aF0.0
aF0.0
aF0.0
aF0.01
a(lp2407
F0.0
aF0.0
aF0.0
aF0.0
aF0.0
aaa(lp2408
I79
aF0.0
aF0.0
aF0.0
aF0.01
a(lp2409
F0.0
aF0.0
aF0.0
aF0.0
aF0.0
aaa(lp2410
I80
aF0.0
aF0.0
aF0.0
aF0.01
a(lp2411
F0.0
aF0.0
aF0.0
aF0.0
aF0.0
aaa(lp2412
I81
aF0.0
aF0.0
aF0.0
aF0.01
a(lp2413
F0.0
aF0.0
aF0.0
aF0.0
aF0.0
aaa(lp2414
I82
aF0.0
aF0.0
aF0.0
aF0.01
a(lp2415
F0.0
aF0.0
aF0.0
aF0.0
aF0.0
aaa(lp2416
I83
aF0.0
aF0.0
aF0.0
aF0.01
a(lp2417
F0.0
aF0.0
aF0.0
aF0.0
aF0.0
aaa(lp2418
I84
aF0.0
aF0.0
aF0.0
aF0.01
a(lp2419
F0.0
aF0.0
aF0.0
aF0.0
aF0.0
aaa(lp2420
I85
aF0.0
aF0.0
aF0.0
aF0.01
a(lp2421
F0.0
aF0.0
aF0.0
aF0.0
aF0.0
aaa(lp2422
I86
aF0.0
aF0.0
aF0.0
aF0.01
a(lp2423
F0.0
aF0.0
aF0.0
aF0.0
aF0.0
aaa(lp2424
I87
aF0.0
aF0.0
aF0.0
aF0.01
a(lp2425
F0.0
aF0.0
aF0.0
aF0.0
aF0.0
aaa(lp2426
I88
aF0.0
aF0.0
aF0.0
aF0.01
a(lp2427
F0.0
aF0.0
aF0.0
aF0.0
aF0.0
aaa(lp2428
I89
aF0.0
aF0.0
aF0.0
aF0.01
a(lp2429
F0.0
aF0.0
aF0.0
aF0.0
aF0.0
aaa(lp2430
I90
aF0.0
aF0.0
aF0.0
aF0.01
a(lp2431
F0.0
aF0.0
aF0.0
aF0.0
aF0.0
aaa(lp2432
I91
aF0.0
aF0.0
aF0.0
aF0.01
a(lp2433
F0.0
aF0.0
aF0.0
aF0.0
aF0.0
aaa(lp2434
I92
aF0.0
aF0.0
aF0.0
aF0.01
a(lp2435
F0.0
aF0.0
aF0.0
aF0.0
aF0.0
aaa(lp2436
I93
aF0.0
aF0.0
aF0.0
aF0.01
a(lp2437
F0.0
aF0.0
aF0.0
aF0.0
aF0.0
aaa(lp2438
I94
aF0.0
aF0.0
aF0.0
aF0.01
a(lp2439
F0.0
aF0.0
aF0.0
aF0.0
aF0.0
aaa(lp2440
I95
aF0.0
aF0.0
aF0.0
aF0.01
a(lp2441
F0.0
aF0.0
aF0.0
aF0.0
aF0.0
aaa(lp2442
I96
aF0.0
aF0.0
aF0.0
aF0.01
a(lp2443
F0.0
aF0.0
aF0.0
aF0.0
aF0.0
aaa(lp2444
I97
aF0.0
aF0.0
aF0.0
aF0.01
a(lp2445
F0.0
aF0.0
aF0.0
aF0.0
aF0.0
aaa(lp2446
I98
aF0.0
aF0.0
aF0.0
aF0.01
a(lp2447
F0.0
aF0.0
aF0.0
aF0.0
aF0.0
aaa(lp2448
I99
aF0.0
aF0.0
aF0.0
aF0.01
a(lp2449
F0.0
aF0.0
aF0.0
aF0.0
aF0.0
aaasg230
F0.0
stp2450
Rp2451
(dp2452
g234
(lp2453
g26
ag230
ag27
ag28
asbsg236
g22
(g23
g24
(dp2454
g238
F0.0
sg239
F1.0
sg240
F1.0
sg241
F1.0
stp2455
Rp2456
(dp2457
g234
(lp2458
g240
ag238
ag241
ag239
asbssg246
g247
sg2235
g2242
sbsg2236
I1
sg2009
g2010
sg2237
I2
sg2238
(dp2459
g21
g2451
sg236
g2456
ssg2240
g8
sg286
g287
sg2241
I15
sba(ipoplib
AgentInstance
p2460
(dp2461
g12
I0
sg13
(ipoplib
MemVarRegistry
p2462
(dp2463
g16
(dp2464
sg18
I0
sg19
(dp2465
g21
g22
(g23
g24
(dp2466
g26
I100
sg27
I88
sg28
(lp2467
(lp2468
I0
aF0.0
aF0.0
aF0.0
aF0.01
a(lp2469
F0.0
aF0.0
aF0.0
aF0.0
aF0.0
aaa(lp2470
I1
aF0.0
aF0.0
aF0.0
aF0.01
a(lp2471
F0.0
aF0.0
aF0.0
aF0.0
aF0.0
aaa(lp2472
I2
aF0.0
aF0.0
aF0.0
aF0.01
a(lp2473
F0.0
aF0.0
aF0.0
aF0.0
aF0.0
aaa(lp2474
I3
aF0.0
aF0.0
aF0.0
aF0.01
a(lp2475
F0.0
aF0.0
aF0.0
aF0.0
aF0.0
aaa(lp2476
I4
aF0.0
aF0.0
aF0.0
aF0.01
a(lp2477
F0.0
aF0.0
aF0.0
aF0.0
aF0.0
aaa(lp2478
I5
aF0.0
aF0.0
aF0.0
aF0.01
a(lp2479
F0.0
aF0.0
aF0.0
aF0.0
aF0.0
aaa(lp2480
I6
aF0.0
aF0.0
aF0.0
aF0.01
a(lp2481
F0.0
aF0.0
aF0.0
aF0.0
aF0.0
aaa(lp2482
I7
aF0.0
aF0.0
aF0.0
aF0.01
a(lp2483
F0.0
aF0.0
aF0.0
aF0.0
aF0.0
aaa(lp2484
I8
aF0.0
aF0.0
aF0.0
aF0.01
a(lp2485
F0.0
aF0.0
aF0.0
aF0.0
aF0.0
aaa(lp2486
I9
aF0.0
aF0.0
aF0.0
aF0.01
a(lp2487
F0.0
aF0.0
aF0.0
aF0.0
aF0.0
aaa(lp2488
I10
aF0.0
aF0.0
aF0.0
aF0.01
a(lp2489
F0.0
aF0.0
aF0.0
aF0.0
aF0.0
aaa(lp2490
I11
aF0.0
aF0.0
aF0.0
aF0.01
a(lp2491
F0.0
aF0.0
aF0.0
aF0.0
aF0.0
aaa(lp2492
I12
aF0.0
aF0.0
aF0.0
aF0.01
a(lp2493
F0.0
aF0.0
aF0.0
aF0.0
aF0.0
aaa(lp2494
I13
aF0.0
aF0.0
aF0.0
aF0.01
a(lp2495
F0.0
aF0.0
aF0.0
aF0.0
aF0.0
aaa(lp2496
I14
aF0.0
aF0.0
aF0.0
aF0.01
a(lp2497
F0.0
aF0.0
aF0.0
aF0.0
aF0.0
aaa(lp2498
I15
aF0.0
aF0.0
aF0.0
aF0.01
a(lp2499
F0.0
aF0.0
aF0.0
aF0.0
aF0.0
aaa(lp2500
I16
aF0.0
aF0.0
aF0.0
aF0.01
a(lp2501
F0.0
aF0.0
aF0.0
aF0.0
aF0.0
aaa(lp2502
I17
aF0.0
aF0.0
aF0.0
aF0.01
a(lp2503
F0.0
aF0.0
aF0.0
aF0.0
aF0.0
aaa(lp2504
I18
aF0.0
aF0.0
aF0.0
aF0.01
a(lp2505
F0.0
aF0.0
aF0.0
aF0.0
aF0.0
aaa(lp2506
I19
aF0.0
aF0.0
aF0.0
aF0.01
a(lp2507
F0.0
aF0.0
aF0.0
aF0.0
aF0.0
aaa(lp2508
I20
aF0.0
aF0.0
aF0.0
aF0.01
a(lp2509
F0.0
aF0.0
aF0.0
aF0.0
aF0.0
aaa(lp2510
I21
aF0.0
aF0.0
aF0.0
aF0.01
a(lp2511
F0.0
aF0.0
aF0.0
aF0.0
aF0.0
aaa(lp2512
I22
aF0.0
aF0.0
aF0.0
aF0.01
a(lp2513
F0.0
aF0.0
aF0.0
aF0.0
aF0.0
aaa(lp2514
I23
aF0.0
aF0.0
aF0.0
aF0.01
a(lp2515
F0.0
aF0.0
aF0.0
aF0.0
aF0.0
aaa(lp2516
I24
aF0.0
aF0.0
aF0.0
aF0.01
a(lp2517
F0.0
aF0.0
aF0.0
aF0.0
aF0.0
aaa(lp2518
I25
aF0.0
aF0.0
aF0.0
aF0.01
a(lp2519
F0.0
aF0.0
aF0.0
aF0.0
aF0.0
aaa(lp2520
I26
aF0.0
aF0.0
aF0.0
aF0.01
a(lp2521
F0.0
aF0.0
aF0.0
aF0.0
aF0.0
aaa(lp2522
I27
aF0.0
aF0.0
aF0.0
aF0.01
a(lp2523
F0.0
aF0.0
aF0.0
aF0.0
aF0.0
aaa(lp2524
I28
aF0.0
aF0.0
aF0.0
aF0.01
a(lp2525
F0.0
aF0.0
aF0.0
aF0.0
aF0.0
aaa(lp2526
I29
aF0.0
aF0.0
aF0.0
aF0.01
a(lp2527
F0.0
aF0.0
aF0.0
aF0.0
aF0.0
aaa(lp2528
I30
aF0.0
aF0.0
aF0.0
aF0.01
a(lp2529
F0.0
aF0.0
aF0.0
aF0.0
aF0.0
aaa(lp2530
I31
aF0.0
aF0.0
aF0.0
aF0.01
a(lp2531
F0.0
aF0.0
aF0.0
aF0.0
aF0.0
aaa(lp2532
I32
aF0.0
aF0.0
aF0.0
aF0.01
a(lp2533
F0.0
aF0.0
aF0.0
aF0.0
aF0.0
aaa(lp2534
I33
aF0.0
aF0.0
aF0.0
aF0.01
a(lp2535
F0.0
aF0.0
aF0.0
aF0.0
aF0.0
aaa(lp2536
I34
aF0.0
aF0.0
aF0.0
aF0.01
a(lp2537
F0.0
aF0.0
aF0.0
aF0.0
aF0.0
aaa(lp2538
I35
aF0.0
aF0.0
aF0.0
aF0.01
a(lp2539
F0.0
aF0.0
aF0.0
aF0.0
aF0.0
aaa(lp2540
I36
aF0.0
aF0.0
aF0.0
aF0.01
a(lp2541
F0.0
aF0.0
aF0.0
aF0.0
aF0.0
aaa(lp2542
I37
aF0.0
aF0.0
aF0.0
aF0.01
a(lp2543
F0.0
aF0.0
aF0.0
aF0.0
aF0.0
aaa(lp2544
I38
aF0.0
aF0.0
aF0.0
aF0.01
a(lp2545
F0.0
aF0.0
aF0.0
aF0.0
aF0.0
aaa(lp2546
I39
aF0.0
aF0.0
aF0.0
aF0.01
a(lp2547
F0.0
aF0.0
aF0.0
aF0.0
aF0.0
aaa(lp2548
I40
aF0.0
aF0.0
aF0.0
aF0.01
a(lp2549
F0.0
aF0.0
aF0.0
aF0.0
aF0.0
aaa(lp2550
I41
aF0.0
aF0.0
aF0.0
aF0.01
a(lp2551
F0.0
aF0.0
aF0.0
aF0.0
aF0.0
aaa(lp2552
I42
aF0.0
aF0.0
aF0.0
aF0.01
a(lp2553
F0.0
aF0.0
aF0.0
aF0.0
aF0.0
aaa(lp2554
I43
aF0.0
aF0.0
aF0.0
aF0.01
a(lp2555
F0.0
aF0.0
aF0.0
aF0.0
aF0.0
aaa(lp2556
I44
aF0.0
aF0.0
aF0.0
aF0.01
a(lp2557
F0.0
aF0.0
aF0.0
aF0.0
aF0.0
aaa(lp2558
I45
aF0.0
aF0.0
aF0.0
aF0.01
a(lp2559
F0.0
aF0.0
aF0.0
aF0.0
aF0.0
aaa(lp2560
I46
aF0.0
aF0.0
aF0.0
aF0.01
a(lp2561
F0.0
aF0.0
aF0.0
aF0.0
aF0.0
aaa(lp2562
I47
aF0.0
aF0.0
aF0.0
aF0.01
a(lp2563
F0.0
aF0.0
aF0.0
aF0.0
aF0.0
aaa(lp2564
I48
aF0.0
aF0.0
aF0.0
aF0.01
a(lp2565
F0.0
aF0.0
aF0.0
aF0.0
aF0.0
aaa(lp2566
I49
aF0.0
aF0.0
aF0.0
aF0.01
a(lp2567
F0.0
aF0.0
aF0.0
aF0.0
aF0.0
aaa(lp2568
I50
aF0.0
aF0.0
aF0.0
aF0.01
a(lp2569
F0.0
aF0.0
aF0.0
aF0.0
aF0.0
aaa(lp2570
I51
aF0.0
aF0.0
aF0.0
aF0.01
a(lp2571
F0.0
aF0.0
aF0.0
aF0.0
aF0.0
aaa(lp2572
I52
aF0.0
aF0.0
aF0.0
aF0.01
a(lp2573
F0.0
aF0.0
aF0.0
aF0.0
aF0.0
aaa(lp2574
I53
aF0.0
aF0.0
aF0.0
aF0.01
a(lp2575
F0.0
aF0.0
aF0.0
aF0.0
aF0.0
aaa(lp2576
I54
aF0.0
aF0.0
aF0.0
aF0.01
a(lp2577
F0.0
aF0.0
aF0.0
aF0.0
aF0.0
aaa(lp2578
I55
aF0.0
aF0.0
aF0.0
aF0.01
a(lp2579
F0.0
aF0.0
aF0.0
aF0.0
aF0.0
aaa(lp2580
I56
aF0.0
aF0.0
aF0.0
aF0.01
a(lp2581
F0.0
aF0.0
aF0.0
aF0.0
aF0.0
aaa(lp2582
I57
aF0.0
aF0.0
aF0.0
aF0.01
a(lp2583
F0.0
aF0.0
aF0.0
aF0.0
aF0.0
aaa(lp2584
I58
aF0.0
aF0.0
aF0.0
aF0.01
a(lp2585
F0.0
aF0.0
aF0.0
aF0.0
aF0.0
aaa(lp2586
I59
aF0.0
aF0.0
aF0.0
aF0.01
a(lp2587
F0.0
aF0.0
aF0.0
aF0.0
aF0.0
aaa(lp2588
I60
aF0.0
aF0.0
aF0.0
aF0.01
a(lp2589
F0.0
aF0.0
aF0.0
aF0.0
aF0.0
aaa(lp2590
I61
aF0.0
aF0.0
aF0.0
aF0.01
a(lp2591
F0.0
aF0.0
aF0.0
aF0.0
aF0.0
aaa(lp2592
I62
aF0.0
aF0.0
aF0.0
aF0.01
a(lp2593
F0.0
aF0.0
aF0.0
aF0.0
aF0.0
aaa(lp2594
I63
aF0.0
aF0.0
aF0.0
aF0.01
a(lp2595
F0.0
aF0.0
aF0.0
aF0.0
aF0.0
aaa(lp2596
I64
aF0.0
aF0.0
aF0.0
aF0.01
a(lp2597
F0.0
aF0.0
aF0.0
aF0.0
aF0.0
aaa(lp2598
I65
aF0.0
aF0.0
aF0.0
aF0.01
a(lp2599
F0.0
aF0.0
aF0.0
aF0.0
aF0.0
aaa(lp2600
I66
aF0.0
aF0.0
aF0.0
aF0.01
a(lp2601
F0.0
aF0.0
aF0.0
aF0.0
aF0.0
aaa(lp2602
I67
aF0.0
aF0.0
aF0.0
aF0.01
a(lp2603
F0.0
aF0.0
aF0.0
aF0.0
aF0.0
aaa(lp2604
I68
aF0.0
aF0.0
aF0.0
aF0.01
a(lp2605
F0.0
aF0.0
aF0.0
aF0.0
aF0.0
aaa(lp2606
I69
aF0.0
aF0.0
aF0.0
aF0.01
a(lp2607
F0.0
aF0.0
aF0.0
aF0.0
aF0.0
aaa(lp2608
I70
aF0.0
aF0.0
aF0.0
aF0.01
a(lp2609
F0.0
aF0.0
aF0.0
aF0.0
aF0.0
aaa(lp2610
I71
aF0.0
aF0.0
aF0.0
aF0.01
a(lp2611
F0.0
aF0.0
aF0.0
aF0.0
aF0.0
aaa(lp2612
I72
aF0.0
aF0.0
aF0.0
aF0.01
a(lp2613
F0.0
aF0.0
aF0.0
aF0.0
aF0.0
aaa(lp2614
I73
aF0.0
aF0.0
aF0.0
aF0.01
a(lp2615
F0.0
aF0.0
aF0.0
aF0.0
aF0.0
aaa(lp2616
I74
aF0.0
aF0.0
aF0.0
aF0.01
a(lp2617
F0.0
aF0.0
aF0.0
aF0.0
aF0.0
aaa(lp2618
I75
aF0.0
aF0.0
aF0.0
aF0.01
a(lp2619
F0.0
aF0.0
aF0.0
aF0.0
aF0.0
aaa(lp2620
I76
aF0.0
aF0.0
aF0.0
aF0.01
a(lp2621
F0.0
aF0.0
aF0.0
aF0.0
aF0.0
aaa(lp2622
I77
aF0.0
aF0.0
aF0.0
aF0.01
a(lp2623
F0.0
aF0.0
aF0.0
aF0.0
aF0.0
aaa(lp2624
I78
aF0.0
aF0.0
aF0.0
aF0.01
a(lp2625
F0.0
aF0.0
aF0.0
aF0.0
aF0.0
aaa(lp2626
I79
aF0.0
aF0.0
aF0.0
aF0.01
a(lp2627
F0.0
aF0.0
aF0.0
aF0.0
aF0.0
aaa(lp2628
I80
aF0.0
aF0.0
aF0.0
aF0.01
a(lp2629
F0.0
aF0.0
aF0.0
aF0.0
aF0.0
aaa(lp2630
I81
aF0.0
aF0.0
aF0.0
aF0.01
a(lp2631
F0.0
aF0.0
aF0.0
aF0.0
aF0.0
aaa(lp2632
I82
aF0.0
aF0.0
aF0.0
aF0.01
a(lp2633
F0.0
aF0.0
aF0.0
aF0.0
aF0.0
aaa(lp2634
I83
aF0.0
aF0.0
aF0.0
aF0.01
a(lp2635
F0.0
aF0.0
aF0.0
aF0.0
aF0.0
aaa(lp2636
I84
aF0.0
aF0.0
aF0.0
aF0.01
a(lp2637
F0.0
aF0.0
aF0.0
aF0.0
aF0.0
aaa(lp2638
I85
aF0.0
aF0.0
aF0.0
aF0.01
a(lp2639
F0.0
aF0.0
aF0.0
aF0.0
aF0.0
aaa(lp2640
I86
aF0.0
aF0.0
aF0.0
aF0.01
a(lp2641
F0.0
aF0.0
aF0.0
aF0.0
aF0.0
aaa(lp2642
I87
aF0.0
aF0.0
aF0.0
aF0.01
a(lp2643
F0.0
aF0.0
aF0.0
aF0.0
aF0.0
aaa(lp2644
I88
aF0.0
aF0.0
aF0.0
aF0.01
a(lp2645
F0.0
aF0.0
aF0.0
aF0.0
aF0.0
aaa(lp2646
I89
aF0.0
aF0.0
aF0.0
aF0.01
a(lp2647
F0.0
aF0.0
aF0.0
aF0.0
aF0.0
aaa(lp2648
I90
aF0.0
aF0.0
aF0.0
aF0.01
a(lp2649
F0.0
aF0.0
aF0.0
aF0.0
aF0.0
aaa(lp2650
I91
aF0.0
aF0.0
aF0.0
aF0.01
a(lp2651
F0.0
aF0.0
aF0.0
aF0.0
aF0.0
aaa(lp2652
I92
aF0.0
aF0.0
aF0.0
aF0.01
a(lp2653
F0.0
aF0.0
aF0.0
aF0.0
aF0.0
aaa(lp2654
I93
aF0.0
aF0.0
aF0.0
aF0.01
a(lp2655
F0.0
aF0.0
aF0.0
aF0.0
aF0.0
aaa(lp2656
I94
aF0.0
aF0.0
aF0.0
aF0.01
a(lp2657
F0.0
aF0.0
aF0.0
aF0.0
aF0.0
aaa(lp2658
I95
aF0.0
aF0.0
aF0.0
aF0.01
a(lp2659
F0.0
aF0.0
aF0.0
aF0.0
aF0.0
aaa(lp2660
I96
aF0.0
aF0.0
aF0.0
aF0.01
a(lp2661
F0.0
aF0.0
aF0.0
aF0.0
aF0.0
aaa(lp2662
I97
aF0.0
aF0.0
aF0.0
aF0.01
a(lp2663
F0.0
aF0.0
aF0.0
aF0.0
aF0.0
aaa(lp2664
I98
aF0.0
aF0.0
aF0.0
aF0.01
a(lp2665
F0.0
aF0.0
aF0.0
aF0.0
aF0.0
aaa(lp2666
I99
aF0.0
aF0.0
aF0.0
aF0.01
a(lp2667
F0.0
aF0.0
aF0.0
aF0.0
aF0.0
aaasg230
F0.0
stp2668
Rp2669
(dp2670
g234
(lp2671
g26
ag230
ag27
ag28
asbsg236
g22
(g23
g24
(dp2672
g238
F0.0
sg239
F1.0
sg240
F1.0
sg241
F1.0
stp2673
Rp2674
(dp2675
g234
(lp2676
g240
ag238
ag241
ag239
asbssg246
g247
sg2235
g2460
sbsg2236
I1
sg2009
g2010
sg2237
I3
sg2238
(dp2677
g21
g2669
sg236
g2674
ssg2240
g8
sg286
g287
sg2241
I16
sba(ipoplib
AgentInstance
p2678
(dp2679
g12
I0
sg13
(ipoplib
MemVarRegistry
p2680
(dp2681
g16
(dp2682
sg18
I0
sg19
(dp2683
g21
g22
(g23
g24
(dp2684
g26
I100
sg27
I45
sg28
(lp2685
(lp2686
I0
aF0.0
aF0.0
aF0.0
aF0.01
a(lp2687
F0.0
aF0.0
aF0.0
aF0.0
aF0.0
aaa(lp2688
I1
aF0.0
aF0.0
aF0.0
aF0.01
a(lp2689
F0.0
aF0.0
aF0.0
aF0.0
aF0.0
aaa(lp2690
I2
aF0.0
aF0.0
aF0.0
aF0.01
a(lp2691
F0.0
aF0.0
aF0.0
aF0.0
aF0.0
aaa(lp2692
I3
aF0.0
aF0.0
aF0.0
aF0.01
a(lp2693
F0.0
aF0.0
aF0.0
aF0.0
aF0.0
aaa(lp2694
I4
aF0.0
aF0.0
aF0.0
aF0.01
a(lp2695
F0.0
aF0.0
aF0.0
aF0.0
aF0.0
aaa(lp2696
I5
aF0.0
aF0.0
aF0.0
aF0.01
a(lp2697
F0.0
aF0.0
aF0.0
aF0.0
aF0.0
aaa(lp2698
I6
aF0.0
aF0.0
aF0.0
aF0.01
a(lp2699
F0.0
aF0.0
aF0.0
aF0.0
aF0.0
aaa(lp2700
I7
aF0.0
aF0.0
aF0.0
aF0.01
a(lp2701
F0.0
aF0.0
aF0.0
aF0.0
aF0.0
aaa(lp2702
I8
aF0.0
aF0.0
aF0.0
aF0.01
a(lp2703
F0.0
aF0.0
aF0.0
aF0.0
aF0.0
aaa(lp2704
I9
aF0.0
aF0.0
aF0.0
aF0.01
a(lp2705
F0.0
aF0.0
aF0.0
aF0.0
aF0.0
aaa(lp2706
I10
aF0.0
aF0.0
aF0.0
aF0.01
a(lp2707
F0.0
aF0.0
aF0.0
aF0.0
aF0.0
aaa(lp2708
I11
aF0.0
aF0.0
aF0.0
aF0.01
a(lp2709
F0.0
aF0.0
aF0.0
aF0.0
aF0.0
aaa(lp2710
I12
aF0.0
aF0.0
aF0.0
aF0.01
a(lp2711
F0.0
aF0.0
aF0.0
aF0.0
aF0.0
aaa(lp2712
I13
aF0.0
aF0.0
aF0.0
aF0.01
a(lp2713
F0.0
aF0.0
aF0.0
aF0.0
aF0.0
aaa(lp2714
I14
aF0.0
aF0.0
aF0.0
aF0.01
a(lp2715
F0.0
aF0.0
aF0.0
aF0.0
aF0.0
aaa(lp2716
I15
aF0.0
aF0.0
aF0.0
aF0.01
a(lp2717
F0.0
aF0.0
aF0.0
aF0.0
aF0.0
aaa(lp2718
I16
aF0.0
aF0.0
aF0.0
aF0.01
a(lp2719
F0.0
aF0.0
aF0.0
aF0.0
aF0.0
aaa(lp2720
I17
aF0.0
aF0.0
aF0.0
aF0.01
a(lp2721
F0.0
aF0.0
aF0.0
aF0.0
aF0.0
aaa(lp2722
I18
aF0.0
aF0.0
aF0.0
aF0.01
a(lp2723
F0.0
aF0.0
aF0.0
aF0.0
aF0.0
aaa(lp2724
I19
aF0.0
aF0.0
aF0.0
aF0.01
a(lp2725
F0.0
aF0.0
aF0.0
aF0.0
aF0.0
aaa(lp2726
I20
aF0.0
aF0.0
aF0.0
aF0.01
a(lp2727
F0.0
aF0.0
aF0.0
aF0.0
aF0.0
aaa(lp2728
I21
aF0.0
aF0.0
aF0.0
aF0.01
a(lp2729
F0.0
aF0.0
aF0.0
aF0.0
aF0.0
aaa(lp2730
I22
aF0.0
aF0.0
aF0.0
aF0.01
a(lp2731
F0.0
aF0.0
aF0.0
aF0.0
aF0.0
aaa(lp2732
I23
aF0.0
aF0.0
aF0.0
aF0.01
a(lp2733
F0.0
aF0.0
aF0.0
aF0.0
aF0.0
aaa(lp2734
I24
aF0.0
aF0.0
aF0.0
aF0.01
a(lp2735
F0.0
aF0.0
aF0.0
aF0.0
aF0.0
aaa(lp2736
I25
aF0.0
aF0.0
aF0.0
aF0.01
a(lp2737
F0.0
aF0.0
aF0.0
aF0.0
aF0.0
aaa(lp2738
I26
aF0.0
aF0.0
aF0.0
aF0.01
a(lp2739
F0.0
aF0.0
aF0.0
aF0.0
aF0.0
aaa(lp2740
I27
aF0.0
aF0.0
aF0.0
aF0.01
a(lp2741
F0.0
aF0.0
aF0.0
aF0.0
aF0.0
aaa(lp2742
I28
aF0.0
aF0.0
aF0.0
aF0.01
a(lp2743
F0.0
aF0.0
aF0.0
aF0.0
aF0.0
aaa(lp2744
I29
aF0.0
aF0.0
aF0.0
aF0.01
a(lp2745
F0.0
aF0.0
aF0.0
aF0.0
aF0.0
aaa(lp2746
I30
aF0.0
aF0.0
aF0.0
aF0.01
a(lp2747
F0.0
aF0.0
aF0.0
aF0.0
aF0.0
aaa(lp2748
I31
aF0.0
aF0.0
aF0.0
aF0.01
a(lp2749
F0.0
aF0.0
aF0.0
aF0.0
aF0.0
aaa(lp2750
I32
aF0.0
aF0.0
aF0.0
aF0.01
a(lp2751
F0.0
aF0.0
aF0.0
aF0.0
aF0.0
aaa(lp2752
I33
aF0.0
aF0.0
aF0.0
aF0.01
a(lp2753
F0.0
aF0.0
aF0.0
aF0.0
aF0.0
aaa(lp2754
I34
aF0.0
aF0.0
aF0.0
aF0.01
a(lp2755
F0.0
aF0.0
aF0.0
aF0.0
aF0.0
aaa(lp2756
I35
aF0.0
aF0.0
aF0.0
aF0.01
a(lp2757
F0.0
aF0.0
aF0.0
aF0.0
aF0.0
aaa(lp2758
I36
aF0.0
aF0.0
aF0.0
aF0.01
a(lp2759
F0.0
aF0.0
aF0.0
aF0.0
aF0.0
aaa(lp2760
I37
aF0.0
aF0.0
aF0.0
aF0.01
a(lp2761
F0.0
aF0.0
aF0.0
aF0.0
aF0.0
aaa(lp2762
I38
aF0.0
aF0.0
aF0.0
aF0.01
a(lp2763
F0.0
aF0.0
aF0.0
aF0.0
aF0.0
aaa(lp2764
I39
aF0.0
aF0.0
aF0.0
aF0.01
a(lp2765
F0.0
aF0.0
aF0.0
aF0.0
aF0.0
aaa(lp2766
I40
aF0.0
aF0.0
aF0.0
aF0.01
a(lp2767
F0.0
aF0.0
aF0.0
aF0.0
aF0.0
aaa(lp2768
I41
aF0.0
aF0.0
aF0.0
aF0.01
a(lp2769
F0.0
aF0.0
aF0.0
aF0.0
aF0.0
aaa(lp2770
I42
aF0.0
aF0.0
aF0.0
aF0.01
a(lp2771
F0.0
aF0.0
aF0.0
aF0.0
aF0.0
aaa(lp2772
I43
aF0.0
aF0.0
aF0.0
aF0.01
a(lp2773
F0.0
aF0.0
aF0.0
aF0.0
aF0.0
aaa(lp2774
I44
aF0.0
aF0.0
aF0.0
aF0.01
a(lp2775
F0.0
aF0.0
aF0.0
aF0.0
aF0.0
aaa(lp2776
I45
aF0.0
aF0.0
aF0.0
aF0.01
a(lp2777
F0.0
aF0.0
aF0.0
aF0.0
aF0.0
aaa(lp2778
I46
aF0.0
aF0.0
aF0.0
aF0.01
a(lp2779
F0.0
aF0.0
aF0.0
aF0.0
aF0.0
aaa(lp2780
I47
aF0.0
aF0.0
aF0.0
aF0.01
a(lp2781
F0.0
aF0.0
aF0.0
aF0.0
aF0.0
aaa(lp2782
I48
aF0.0
aF0.0
aF0.0
aF0.01
a(lp2783
F0.0
aF0.0
aF0.0
aF0.0
aF0.0
aaa(lp2784
I49
aF0.0
aF0.0
aF0.0
aF0.01
a(lp2785
F0.0
aF0.0
aF0.0
aF0.0
aF0.0
aaa(lp2786
I50
aF0.0
aF0.0
aF0.0
aF0.01
a(lp2787
F0.0
aF0.0
aF0.0
aF0.0
aF0.0
aaa(lp2788
I51
aF0.0
aF0.0
aF0.0
aF0.01
a(lp2789
F0.0
aF0.0
aF0.0
aF0.0
aF0.0
aaa(lp2790
I52
aF0.0
aF0.0
aF0.0
aF0.01
a(lp2791
F0.0
aF0.0
aF0.0
aF0.0
aF0.0
aaa(lp2792
I53
aF0.0
aF0.0
aF0.0
aF0.01
a(lp2793
F0.0
aF0.0
aF0.0
aF0.0
aF0.0
aaa(lp2794
I54
aF0.0
aF0.0
aF0.0
aF0.01
a(lp2795
F0.0
aF0.0
aF0.0
aF0.0
aF0.0
aaa(lp2796
I55
aF0.0
aF0.0
aF0.0
aF0.01
a(lp2797
F0.0
aF0.0
aF0.0
aF0.0
aF0.0
aaa(lp2798
I56
aF0.0
aF0.0
aF0.0
aF0.01
a(lp2799
F0.0
aF0.0
aF0.0
aF0.0
aF0.0
aaa(lp2800
I57
aF0.0
aF0.0
aF0.0
aF0.01
a(lp2801
F0.0
aF0.0
aF0.0
aF0.0
aF0.0
aaa(lp2802
I58
aF0.0
aF0.0
aF0.0
aF0.01
a(lp2803
F0.0
aF0.0
aF0.0
aF0.0
aF0.0
aaa(lp2804
I59
aF0.0
aF0.0
aF0.0
aF0.01
a(lp2805
F0.0
aF0.0
aF0.0
aF0.0
aF0.0
aaa(lp2806
I60
aF0.0
aF0.0
aF0.0
aF0.01
a(lp2807
F0.0
aF0.0
aF0.0
aF0.0
aF0.0
aaa(lp2808
I61
aF0.0
aF0.0
aF0.0
aF0.01
a(lp2809
F0.0
aF0.0
aF0.0
aF0.0
aF0.0
aaa(lp2810
I62
aF0.0
aF0.0
aF0.0
aF0.01
a(lp2811
F0.0
aF0.0
aF0.0
aF0.0
aF0.0
aaa(lp2812
I63
aF0.0
aF0.0
aF0.0
aF0.01
a(lp2813
F0.0
aF0.0
aF0.0
aF0.0
aF0.0
aaa(lp2814
I64
aF0.0
aF0.0
aF0.0
aF0.01
a(lp2815
F0.0
aF0.0
aF0.0
aF0.0
aF0.0
aaa(lp2816
I65
aF0.0
aF0.0
aF0.0
aF0.01
a(lp2817
F0.0
aF0.0
aF0.0
aF0.0
aF0.0
aaa(lp2818
I66
aF0.0
aF0.0
aF0.0
aF0.01
a(lp2819
F0.0
aF0.0
aF0.0
aF0.0
aF0.0
aaa(lp2820
I67
aF0.0
aF0.0
aF0.0
aF0.01
a(lp2821
F0.0
aF0.0
aF0.0
aF0.0
aF0.0
aaa(lp2822
I68
aF0.0
aF0.0
aF0.0
aF0.01
a(lp2823
F0.0
aF0.0
aF0.0
aF0.0
aF0.0
aaa(lp2824
I69
aF0.0
aF0.0
aF0.0
aF0.01
a(lp2825
F0.0
aF0.0
aF0.0
aF0.0
aF0.0
aaa(lp2826
I70
aF0.0
aF0.0
aF0.0
aF0.01
a(lp2827
F0.0
aF0.0
aF0.0
aF0.0
aF0.0
aaa(lp2828
I71
aF0.0
aF0.0
aF0.0
aF0.01
a(lp2829
F0.0
aF0.0
aF0.0
aF0.0
aF0.0
aaa(lp2830
I72
aF0.0
aF0.0
aF0.0
aF0.01
a(lp2831
F0.0
aF0.0
aF0.0
aF0.0
aF0.0
aaa(lp2832
I73
aF0.0
aF0.0
aF0.0
aF0.01
a(lp2833
F0.0
aF0.0
aF0.0
aF0.0
aF0.0
aaa(lp2834
I74
aF0.0
aF0.0
aF0.0
aF0.01
a(lp2835
F0.0
aF0.0
aF0.0
aF0.0
aF0.0
aaa(lp2836
I75
aF0.0
aF0.0
aF0.0
aF0.01
a(lp2837
F0.0
aF0.0
aF0.0
aF0.0
aF0.0
aaa(lp2838
I76
aF0.0
aF0.0
aF0.0
aF0.01
a(lp2839
F0.0
aF0.0
aF0.0
aF0.0
aF0.0
aaa(lp2840
I77
aF0.0
aF0.0
aF0.0
aF0.01
a(lp2841
F0.0
aF0.0
aF0.0
aF0.0
aF0.0
aaa(lp2842
I78
aF0.0
aF0.0
aF0.0
aF0.01
a(lp2843
F0.0
aF0.0
aF0.0
aF0.0
aF0.0
aaa(lp2844
I79
aF0.0
aF0.0
aF0.0
aF0.01
a(lp2845
F0.0
aF0.0
aF0.0
aF0.0
aF0.0
aaa(lp2846
I80
aF0.0
aF0.0
aF0.0
aF0.01
a(lp2847
F0.0
aF0.0
aF0.0
aF0.0
aF0.0
aaa(lp2848
I81
aF0.0
aF0.0
aF0.0
aF0.01
a(lp2849
F0.0
aF0.0
aF0.0
aF0.0
aF0.0
aaa(lp2850
I82
aF0.0
aF0.0
aF0.0
aF0.01
a(lp2851
F0.0
aF0.0
aF0.0
aF0.0
aF0.0
aaa(lp2852
I83
aF0.0
aF0.0
aF0.0
aF0.01
a(lp2853
F0.0
aF0.0
aF0.0
aF0.0
aF0.0
aaa(lp2854
I84
aF0.0
aF0.0
aF0.0
aF0.01
a(lp2855
F0.0
aF0.0
aF0.0
aF0.0
aF0.0
aaa(lp2856
I85
aF0.0
aF0.0
aF0.0
aF0.01
a(lp2857
F0.0
aF0.0
aF0.0
aF0.0
aF0.0
aaa(lp2858
I86
aF0.0
aF0.0
aF0.0
aF0.01
a(lp2859
F0.0
aF0.0
aF0.0
aF0.0
aF0.0
aaa(lp2860
I87
aF0.0
aF0.0
aF0.0
aF0.01
a(lp2861
F0.0
aF0.0
aF0.0
aF0.0
aF0.0
aaa(lp2862
I88
aF0.0
aF0.0
aF0.0
aF0.01
a(lp2863
F0.0
aF0.0
aF0.0
aF0.0
aF0.0
aaa(lp2864
I89
aF0.0
aF0.0
aF0.0
aF0.01
a(lp2865
F0.0
aF0.0
aF0.0
aF0.0
aF0.0
aaa(lp2866
I90
aF0.0
aF0.0
aF0.0
aF0.01
a(lp2867
F0.0
aF0.0
aF0.0
aF0.0
aF0.0
aaa(lp2868
I91
aF0.0
aF0.0
aF0.0
aF0.01
a(lp2869
F0.0
aF0.0
aF0.0
aF0.0
aF0.0
aaa(lp2870
I92
aF0.0
aF0.0
aF0.0
aF0.01
a(lp2871
F0.0
aF0.0
aF0.0
aF0.0
aF0.0
aaa(lp2872
I93
aF0.0
aF0.0
aF0.0
aF0.01
a(lp2873
F0.0
aF0.0
aF0.0
aF0.0
aF0.0
aaa(lp2874
I94
aF0.0
aF0.0
aF0.0
aF0.01
a(lp2875
F0.0
aF0.0
aF0.0
aF0.0
aF0.0
aaa(lp2876
I95
aF0.0
aF0.0
aF0.0
aF0.01
a(lp2877
F0.0
aF0.0
aF0.0
aF0.0
aF0.0
aaa(lp2878
I96
aF0.0
aF0.0
aF0.0
aF0.01
a(lp2879
F0.0
aF0.0
aF0.0
aF0.0
aF0.0
aaa(lp2880
I97
aF0.0
aF0.0
aF0.0
aF0.01
a(lp2881
F0.0
aF0.0
aF0.0
aF0.0
aF0.0
aaa(lp2882
I98
aF0.0
aF0.0
aF0.0
aF0.01
a(lp2883
F0.0
aF0.0
aF0.0
aF0.0
aF0.0
aaa(lp2884
I99
aF0.0
aF0.0
aF0.0
aF0.01
a(lp2885
F0.0
aF0.0
aF0.0
aF0.0
aF0.0
aaasg230
F0.0
stp2886
Rp2887
(dp2888
g234
(lp2889
g26
ag230
ag27
ag28
asbsg236
g22
(g23
g24
(dp2890
g238
F0.0
sg239
F1.0
sg240
F1.0
sg241
F1.0
stp2891
Rp2892
(dp2893
g234
(lp2894
g240
ag238
ag241
ag239
asbssg246
g247
sg2235
g2678
sbsg2236
I1
sg2009
g2010
sg2237
I4
sg2238
(dp2895
g21
g2887
sg236
g2892
ssg2240
g8
sg286
g287
sg2241
I17
sbasg2014
(lp2896
(ipoplib
AgentInstance
p2897
(dp2898
g12
I0
sg13
(ipoplib
MemVarRegistry
p2899
(dp2900
g16
(dp2901
sg18
I0
sg19
(dp2902
g1968
g22
(g23
g24
(dp2903
g814
I100
sg826
(lp2904
(lp2905
I0
aI0
aF0.0
aF0.0
aF0.01
a(lp2906
F0.0
aF0.0
aF0.0
aF0.0
aF0.0
aaa(lp2907
I1
aI0
aF0.0
aF0.0
aF0.01
a(lp2908
F0.0
aF0.0
aF0.0
aF0.0
aF0.0
aaa(lp2909
I2
aI0
aF0.0
aF0.0
aF0.01
a(lp2910
F0.0
aF0.0
aF0.0
aF0.0
aF0.0
aaa(lp2911
I3
aI0
aF0.0
aF0.0
aF0.01
a(lp2912
F0.0
aF0.0
aF0.0
aF0.0
aF0.0
aaa(lp2913
I4
aI0
aF0.0
aF0.0
aF0.01
a(lp2914
F0.0
aF0.0
aF0.0
aF0.0
aF0.0
aaa(lp2915
I5
aI0
aF0.0
aF0.0
aF0.01
a(lp2916
F0.0
aF0.0
aF0.0
aF0.0
aF0.0
aaa(lp2917
I6
aI0
aF0.0
aF0.0
aF0.01
a(lp2918
F0.0
aF0.0
aF0.0
aF0.0
aF0.0
aaa(lp2919
I7
aI0
aF0.0
aF0.0
aF0.01
a(lp2920
F0.0
aF0.0
aF0.0
aF0.0
aF0.0
aaa(lp2921
I8
aI0
aF0.0
aF0.0
aF0.01
a(lp2922
F0.0
aF0.0
aF0.0
aF0.0
aF0.0
aaa(lp2923
I9
aI0
aF0.0
aF0.0
aF0.01
a(lp2924
F0.0
aF0.0
aF0.0
aF0.0
aF0.0
aaa(lp2925
I10
aI0
aF0.0
aF0.0
aF0.01
a(lp2926
F0.0
aF0.0
aF0.0
aF0.0
aF0.0
aaa(lp2927
I11
aI0
aF0.0
aF0.0
aF0.01
a(lp2928
F0.0
aF0.0
aF0.0
aF0.0
aF0.0
aaa(lp2929
I12
aI0
aF0.0
aF0.0
aF0.01
a(lp2930
F0.0
aF0.0
aF0.0
aF0.0
aF0.0
aaa(lp2931
I13
aI0
aF0.0
aF0.0
aF0.01
a(lp2932
F0.0
aF0.0
aF0.0
aF0.0
aF0.0
aaa(lp2933
I14
aI0
aF0.0
aF0.0
aF0.01
a(lp2934
F0.0
aF0.0
aF0.0
aF0.0
aF0.0
aaa(lp2935
I15
aI0
aF0.0
aF0.0
aF0.01
a(lp2936
F0.0
aF0.0
aF0.0
aF0.0
aF0.0
aaa(lp2937
I16
aI0
aF0.0
aF0.0
aF0.01
a(lp2938
F0.0
aF0.0
aF0.0
aF0.0
aF0.0
aaa(lp2939
I17
aI0
aF0.0
aF0.0
aF0.01
a(lp2940
F0.0
aF0.0
aF0.0
aF0.0
aF0.0
aaa(lp2941
I18
aI0
aF0.0
aF0.0
aF0.01
a(lp2942
F0.0
aF0.0
aF0.0
aF0.0
aF0.0
aaa(lp2943
I19
aI0
aF0.0
aF0.0
aF0.01
a(lp2944
F0.0
aF0.0
aF0.0
aF0.0
aF0.0
aaa(lp2945
I20
aI0
aF0.0
aF0.0
aF0.01
a(lp2946
F0.0
aF0.0
aF0.0
aF0.0
aF0.0
aaa(lp2947
I21
aI0
aF0.0
aF0.0
aF0.01
a(lp2948
F0.0
aF0.0
aF0.0
aF0.0
aF0.0
aaa(lp2949
I22
aI0
aF0.0
aF0.0
aF0.01
a(lp2950
F0.0
aF0.0
aF0.0
aF0.0
aF0.0
aaa(lp2951
I23
aI0
aF0.0
aF0.0
aF0.01
a(lp2952
F0.0
aF0.0
aF0.0
aF0.0
aF0.0
aaa(lp2953
I24
aI0
aF0.0
aF0.0
aF0.01
a(lp2954
F0.0
aF0.0
aF0.0
aF0.0
aF0.0
aaa(lp2955
I25
aI0
aF0.0
aF0.0
aF0.01
a(lp2956
F0.0
aF0.0
aF0.0
aF0.0
aF0.0
aaa(lp2957
I26
aI0
aF0.0
aF0.0
aF0.01
a(lp2958
F0.0
aF0.0
aF0.0
aF0.0
aF0.0
aaa(lp2959
I27
aI0
aF0.0
aF0.0
aF0.01
a(lp2960
F0.0
aF0.0
aF0.0
aF0.0
aF0.0
aaa(lp2961
I28
aI0
aF0.0
aF0.0
aF0.01
a(lp2962
F0.0
aF0.0
aF0.0
aF0.0
aF0.0
aaa(lp2963
I29
aI0
aF0.0
aF0.0
aF0.01
a(lp2964
F0.0
aF0.0
aF0.0
aF0.0
aF0.0
aaa(lp2965
I30
aI0
aF0.0
aF0.0
aF0.01
a(lp2966
F0.0
aF0.0
aF0.0
aF0.0
aF0.0
aaa(lp2967
I31
aI0
aF0.0
aF0.0
aF0.01
a(lp2968
F0.0
aF0.0
aF0.0
aF0.0
aF0.0
aaa(lp2969
I32
aI0
aF0.0
aF0.0
aF0.01
a(lp2970
F0.0
aF0.0
aF0.0
aF0.0
aF0.0
aaa(lp2971
I33
aI0
aF0.0
aF0.0
aF0.01
a(lp2972
F0.0
aF0.0
aF0.0
aF0.0
aF0.0
aaa(lp2973
I34
aI0
aF0.0
aF0.0
aF0.01
a(lp2974
F0.0
aF0.0
aF0.0
aF0.0
aF0.0
aaa(lp2975
I35
aI0
aF0.0
aF0.0
aF0.01
a(lp2976
F0.0
aF0.0
aF0.0
aF0.0
aF0.0
aaa(lp2977
I36
aI0
aF0.0
aF0.0
aF0.01
a(lp2978
F0.0
aF0.0
aF0.0
aF0.0
aF0.0
aaa(lp2979
I37
aI0
aF0.0
aF0.0
aF0.01
a(lp2980
F0.0
aF0.0
aF0.0
aF0.0
aF0.0
aaa(lp2981
I38
aI0
aF0.0
aF0.0
aF0.01
a(lp2982
F0.0
aF0.0
aF0.0
aF0.0
aF0.0
aaa(lp2983
I39
aI0
aF0.0
aF0.0
aF0.01
a(lp2984
F0.0
aF0.0
aF0.0
aF0.0
aF0.0
aaa(lp2985
I40
aI0
aF0.0
aF0.0
aF0.01
a(lp2986
F0.0
aF0.0
aF0.0
aF0.0
aF0.0
aaa(lp2987
I41
aI0
aF0.0
aF0.0
aF0.01
a(lp2988
F0.0
aF0.0
aF0.0
aF0.0
aF0.0
aaa(lp2989
I42
aI0
aF0.0
aF0.0
aF0.01
a(lp2990
F0.0
aF0.0
aF0.0
aF0.0
aF0.0
aaa(lp2991
I43
aI0
aF0.0
aF0.0
aF0.01
a(lp2992
F0.0
aF0.0
aF0.0
aF0.0
aF0.0
aaa(lp2993
I44
aI0
aF0.0
aF0.0
aF0.01
a(lp2994
F0.0
aF0.0
aF0.0
aF0.0
aF0.0
aaa(lp2995
I45
aI0
aF0.0
aF0.0
aF0.01
a(lp2996
F0.0
aF0.0
aF0.0
aF0.0
aF0.0
aaa(lp2997
I46
aI0
aF0.0
aF0.0
aF0.01
a(lp2998
F0.0
aF0.0
aF0.0
aF0.0
aF0.0
aaa(lp2999
I47
aI0
aF0.0
aF0.0
aF0.01
a(lp3000
F0.0
aF0.0
aF0.0
aF0.0
aF0.0
aaa(lp3001
I48
aI0
aF0.0
aF0.0
aF0.01
a(lp3002
F0.0
aF0.0
aF0.0
aF0.0
aF0.0
aaa(lp3003
I49
aI0
aF0.0
aF0.0
aF0.01
a(lp3004
F0.0
aF0.0
aF0.0
aF0.0
aF0.0
aaa(lp3005
I50
aI0
aF0.0
aF0.0
aF0.01
a(lp3006
F0.0
aF0.0
aF0.0
aF0.0
aF0.0
aaa(lp3007
I51
aI0
aF0.0
aF0.0
aF0.01
a(lp3008
F0.0
aF0.0
aF0.0
aF0.0
aF0.0
aaa(lp3009
I52
aI0
aF0.0
aF0.0
aF0.01
a(lp3010
F0.0
aF0.0
aF0.0
aF0.0
aF0.0
aaa(lp3011
I53
aI0
aF0.0
aF0.0
aF0.01
a(lp3012
F0.0
aF0.0
aF0.0
aF0.0
aF0.0
aaa(lp3013
I54
aI0
aF0.0
aF0.0
aF0.01
a(lp3014
F0.0
aF0.0
aF0.0
aF0.0
aF0.0
aaa(lp3015
I55
aI0
aF0.0
aF0.0
aF0.01
a(lp3016
F0.0
aF0.0
aF0.0
aF0.0
aF0.0
aaa(lp3017
I56
aI0
aF0.0
aF0.0
aF0.01
a(lp3018
F0.0
aF0.0
aF0.0
aF0.0
aF0.0
aaa(lp3019
I57
aI0
aF0.0
aF0.0
aF0.01
a(lp3020
F0.0
aF0.0
aF0.0
aF0.0
aF0.0
aaa(lp3021
I58
aI0
aF0.0
aF0.0
aF0.01
a(lp3022
F0.0
aF0.0
aF0.0
aF0.0
aF0.0
aaa(lp3023
I59
aI0
aF0.0
aF0.0
aF0.01
a(lp3024
F0.0
aF0.0
aF0.0
aF0.0
aF0.0
aaa(lp3025
I60
aI0
aF0.0
aF0.0
aF0.01
a(lp3026
F0.0
aF0.0
aF0.0
aF0.0
aF0.0
aaa(lp3027
I61
aI0
aF0.0
aF0.0
aF0.01
a(lp3028
F0.0
aF0.0
aF0.0
aF0.0
aF0.0
aaa(lp3029
I62
aI0
aF0.0
aF0.0
aF0.01
a(lp3030
F0.0
aF0.0
aF0.0
aF0.0
aF0.0
aaa(lp3031
I63
aI0
aF0.0
aF0.0
aF0.01
a(lp3032
F0.0
aF0.0
aF0.0
aF0.0
aF0.0
aaa(lp3033
I64
aI0
aF0.0
aF0.0
aF0.01
a(lp3034
F0.0
aF0.0
aF0.0
aF0.0
aF0.0
aaa(lp3035
I65
aI0
aF0.0
aF0.0
aF0.01
a(lp3036
F0.0
aF0.0
aF0.0
aF0.0
aF0.0
aaa(lp3037
I66
aI0
aF0.0
aF0.0
aF0.01
a(lp3038
F0.0
aF0.0
aF0.0
aF0.0
aF0.0
aaa(lp3039
I67
aI0
aF0.0
aF0.0
aF0.01
a(lp3040
F0.0
aF0.0
aF0.0
aF0.0
aF0.0
aaa(lp3041
I68
aI0
aF0.0
aF0.0
aF0.01
a(lp3042
F0.0
aF0.0
aF0.0
aF0.0
aF0.0
aaa(lp3043
I69
aI0
aF0.0
aF0.0
aF0.01
a(lp3044
F0.0
aF0.0
aF0.0
aF0.0
aF0.0
aaa(lp3045
I70
aI0
aF0.0
aF0.0
aF0.01
a(lp3046
F0.0
aF0.0
aF0.0
aF0.0
aF0.0
aaa(lp3047
I71
aI0
aF0.0
aF0.0
aF0.01
a(lp3048
F0.0
aF0.0
aF0.0
aF0.0
aF0.0
aaa(lp3049
I72
aI0
aF0.0
aF0.0
aF0.01
a(lp3050
F0.0
aF0.0
aF0.0
aF0.0
aF0.0
aaa(lp3051
I73
aI0
aF0.0
aF0.0
aF0.01
a(lp3052
F0.0
aF0.0
aF0.0
aF0.0
aF0.0
aaa(lp3053
I74
aI0
aF0.0
aF0.0
aF0.01
a(lp3054
F0.0
aF0.0
aF0.0
aF0.0
aF0.0
aaa(lp3055
I75
aI0
aF0.0
aF0.0
aF0.01
a(lp3056
F0.0
aF0.0
aF0.0
aF0.0
aF0.0
aaa(lp3057
I76
aI0
aF0.0
aF0.0
aF0.01
a(lp3058
F0.0
aF0.0
aF0.0
aF0.0
aF0.0
aaa(lp3059
I77
aI0
aF0.0
aF0.0
aF0.01
a(lp3060
F0.0
aF0.0
aF0.0
aF0.0
aF0.0
aaa(lp3061
I78
aI0
aF0.0
aF0.0
aF0.01
a(lp3062
F0.0
aF0.0
aF0.0
aF0.0
aF0.0
aaa(lp3063
I79
aI0
aF0.0
aF0.0
aF0.01
a(lp3064
F0.0
aF0.0
aF0.0
aF0.0
aF0.0
aaa(lp3065
I80
aI0
aF0.0
aF0.0
aF0.01
a(lp3066
F0.0
aF0.0
aF0.0
aF0.0
aF0.0
aaa(lp3067
I81
aI0
aF0.0
aF0.0
aF0.01
a(lp3068
F0.0
aF0.0
aF0.0
aF0.0
aF0.0
aaa(lp3069
I82
aI0
aF0.0
aF0.0
aF0.01
a(lp3070
F0.0
aF0.0
aF0.0
aF0.0
aF0.0
aaa(lp3071
I83
aI0
aF0.0
aF0.0
aF0.01
a(lp3072
F0.0
aF0.0
aF0.0
aF0.0
aF0.0
aaa(lp3073
I84
aI0
aF0.0
aF0.0
aF0.01
a(lp3074
F0.0
aF0.0
aF0.0
aF0.0
aF0.0
aaa(lp3075
I85
aI0
aF0.0
aF0.0
aF0.01
a(lp3076
F0.0
aF0.0
aF0.0
aF0.0
aF0.0
aaa(lp3077
I86
aI0
aF0.0
aF0.0
aF0.01
a(lp3078
F0.0
aF0.0
aF0.0
aF0.0
aF0.0
aaa(lp3079
I87
aI0
aF0.0
aF0.0
aF0.01
a(lp3080
F0.0
aF0.0
aF0.0
aF0.0
aF0.0
aaa(lp3081
I88
aI0
aF0.0
aF0.0
aF0.01
a(lp3082
F0.0
aF0.0
aF0.0
aF0.0
aF0.0
aaa(lp3083
I89
aI0
aF0.0
aF0.0
aF0.01
a(lp3084
F0.0
aF0.0
aF0.0
aF0.0
aF0.0
aaa(lp3085
I90
aI0
aF0.0
aF0.0
aF0.01
a(lp3086
F0.0
aF0.0
aF0.0
aF0.0
aF0.0
aaa(lp3087
I91
aI0
aF0.0
aF0.0
aF0.01
a(lp3088
F0.0
aF0.0
aF0.0
aF0.0
aF0.0
aaa(lp3089
I92
aI0
aF0.0
aF0.0
aF0.01
a(lp3090
F0.0
aF0.0
aF0.0
aF0.0
aF0.0
aaa(lp3091
I93
aI0
aF0.0
aF0.0
aF0.01
a(lp3092
F0.0
aF0.0
aF0.0
aF0.0
aF0.0
aaa(lp3093
I94
aI0
aF0.0
aF0.0
aF0.01
a(lp3094
F0.0
aF0.0
aF0.0
aF0.0
aF0.0
aaa(lp3095
I95
aI0
aF0.0
aF0.0
aF0.01
a(lp3096
F0.0
aF0.0
aF0.0
aF0.0
aF0.0
aaa(lp3097
I96
aI0
aF0.0
aF0.0
aF0.01
a(lp3098
F0.0
aF0.0
aF0.0
aF0.0
aF0.0
aaa(lp3099
I97
aI0
aF0.0
aF0.0
aF0.01
a(lp3100
F0.0
aF0.0
aF0.0
aF0.0
aF0.0
aaa(lp3101
I98
aI0
aF0.0
aF0.0
aF0.01
a(lp3102
F0.0
aF0.0
aF0.0
aF0.0
aF0.0
aaa(lp3103
I99
aI0
aF0.0
aF0.0
aF0.01
a(lp3104
F0.0
aF0.0
aF0.0
aF0.0
aF0.0
aaastp3105
Rp3106
(dp3107
g234
(lp3108
g814
ag826
asbsg1992
g22
(g23
g24
(dp3109
g508
I100
sg475
F1.0
sg568
I-10
sg604
(lp3110
F1.0
aF1.0
aF1.0
aF1.0
aF1.0
asg532
I1
sg487
F1.0
sg520
F0.25
sg499
I5
sg544
I0
sg580
I10
sg556
(lp3111
F0.0
aF0.0
aF0.0
aF0.0
aF0.0
asg592
(lp3112
F0.0
aF0.0
aF0.0
aF0.0
aF0.0
astp3113
Rp3114
(dp3115
g234
(lp3116
g475
ag487
ag499
ag508
ag520
ag532
ag544
ag556
ag568
ag580
ag592
ag604
asbsg2001
g22
(g23
g24
(dp3117
g238
F0.0
sg239
F1.0
sg240
F0.0
sg241
F0.0
stp3118
Rp3119
(dp3120
g234
(lp3121
g240
ag238
ag241
ag239
asbsg1980
g22
(g23
g24
(dp3122
g814
I0
sg826
(lp3123
(lp3124
I0
aI0
aF0.0
aF0.0
aF0.0
a(lp3125
F0.0
aF0.0
aF0.0
aF0.0
aF0.0
aaa(lp3126
I0
aI0
aF0.0
aF0.0
aF0.0
a(lp3127
F0.0
aF0.0
aF0.0
aF0.0
aF0.0
aaa(lp3128
I0
aI0
aF0.0
aF0.0
aF0.0
a(lp3129
F0.0
aF0.0
aF0.0
aF0.0
aF0.0
aaa(lp3130
I0
aI0
aF0.0
aF0.0
aF0.0
a(lp3131
F0.0
aF0.0
aF0.0
aF0.0
aF0.0
aaa(lp3132
I0
aI0
aF0.0
aF0.0
aF0.0
a(lp3133
F0.0
aF0.0
aF0.0
aF0.0
aF0.0
aaa(lp3134
I0
aI0
aF0.0
aF0.0
aF0.0
a(lp3135
F0.0
aF0.0
aF0.0
aF0.0
aF0.0
aaa(lp3136
I0
aI0
aF0.0
aF0.0
aF0.0
a(lp3137
F0.0
aF0.0
aF0.0
aF0.0
aF0.0
aaa(lp3138
I0
aI0
aF0.0
aF0.0
aF0.0
a(lp3139
F0.0
aF0.0
aF0.0
aF0.0
aF0.0
aaa(lp3140
I0
aI0
aF0.0
aF0.0
aF0.0
a(lp3141
F0.0
aF0.0
aF0.0
aF0.0
aF0.0
aaa(lp3142
I0
aI0
aF0.0
aF0.0
aF0.0
a(lp3143
F0.0
aF0.0
aF0.0
aF0.0
aF0.0
aaa(lp3144
I0
aI0
aF0.0
aF0.0
aF0.0
a(lp3145
F0.0
aF0.0
aF0.0
aF0.0
aF0.0
aaa(lp3146
I0
aI0
aF0.0
aF0.0
aF0.0
a(lp3147
F0.0
aF0.0
aF0.0
aF0.0
aF0.0
aaa(lp3148
I0
aI0
aF0.0
aF0.0
aF0.0
a(lp3149
F0.0
aF0.0
aF0.0
aF0.0
aF0.0
aaa(lp3150
I0
aI0
aF0.0
aF0.0
aF0.0
a(lp3151
F0.0
aF0.0
aF0.0
aF0.0
aF0.0
aaa(lp3152
I0
aI0
aF0.0
aF0.0
aF0.0
a(lp3153
F0.0
aF0.0
aF0.0
aF0.0
aF0.0
aaa(lp3154
I0
aI0
aF0.0
aF0.0
aF0.0
a(lp3155
F0.0
aF0.0
aF0.0
aF0.0
aF0.0
aaa(lp3156
I0
aI0
aF0.0
aF0.0
aF0.0
a(lp3157
F0.0
aF0.0
aF0.0
aF0.0
aF0.0
aaa(lp3158
I0
aI0
aF0.0
aF0.0
aF0.0
a(lp3159
F0.0
aF0.0
aF0.0
aF0.0
aF0.0
aaa(lp3160
I0
aI0
aF0.0
aF0.0
aF0.0
a(lp3161
F0.0
aF0.0
aF0.0
aF0.0
aF0.0
aaa(lp3162
I0
aI0
aF0.0
aF0.0
aF0.0
a(lp3163
F0.0
aF0.0
aF0.0
aF0.0
aF0.0
aaa(lp3164
I0
aI0
aF0.0
aF0.0
aF0.0
a(lp3165
F0.0
aF0.0
aF0.0
aF0.0
aF0.0
aaa(lp3166
I0
aI0
aF0.0
aF0.0
aF0.0
a(lp3167
F0.0
aF0.0
aF0.0
aF0.0
aF0.0
aaa(lp3168
I0
aI0
aF0.0
aF0.0
aF0.0
a(lp3169
F0.0
aF0.0
aF0.0
aF0.0
aF0.0
aaa(lp3170
I0
aI0
aF0.0
aF0.0
aF0.0
a(lp3171
F0.0
aF0.0
aF0.0
aF0.0
aF0.0
aaa(lp3172
I0
aI0
aF0.0
aF0.0
aF0.0
a(lp3173
F0.0
aF0.0
aF0.0
aF0.0
aF0.0
aaa(lp3174
I0
aI0
aF0.0
aF0.0
aF0.0
a(lp3175
F0.0
aF0.0
aF0.0
aF0.0
aF0.0
aaa(lp3176
I0
aI0
aF0.0
aF0.0
aF0.0
a(lp3177
F0.0
aF0.0
aF0.0
aF0.0
aF0.0
aaa(lp3178
I0
aI0
aF0.0
aF0.0
aF0.0
a(lp3179
F0.0
aF0.0
aF0.0
aF0.0
aF0.0
aaa(lp3180
I0
aI0
aF0.0
aF0.0
aF0.0
a(lp3181
F0.0
aF0.0
aF0.0
aF0.0
aF0.0
aaa(lp3182
I0
aI0
aF0.0
aF0.0
aF0.0
a(lp3183
F0.0
aF0.0
aF0.0
aF0.0
aF0.0
aaa(lp3184
I0
aI0
aF0.0
aF0.0
aF0.0
a(lp3185
F0.0
aF0.0
aF0.0
aF0.0
aF0.0
aaa(lp3186
I0
aI0
aF0.0
aF0.0
aF0.0
a(lp3187
F0.0
aF0.0
aF0.0
aF0.0
aF0.0
aaa(lp3188
I0
aI0
aF0.0
aF0.0
aF0.0
a(lp3189
F0.0
aF0.0
aF0.0
aF0.0
aF0.0
aaa(lp3190
I0
aI0
aF0.0
aF0.0
aF0.0
a(lp3191
F0.0
aF0.0
aF0.0
aF0.0
aF0.0
aaa(lp3192
I0
aI0
aF0.0
aF0.0
aF0.0
a(lp3193
F0.0
aF0.0
aF0.0
aF0.0
aF0.0
aaa(lp3194
I0
aI0
aF0.0
aF0.0
aF0.0
a(lp3195
F0.0
aF0.0
aF0.0
aF0.0
aF0.0
aaa(lp3196
I0
aI0
aF0.0
aF0.0
aF0.0
a(lp3197
F0.0
aF0.0
aF0.0
aF0.0
aF0.0
aaa(lp3198
I0
aI0
aF0.0
aF0.0
aF0.0
a(lp3199
F0.0
aF0.0
aF0.0
aF0.0
aF0.0
aaa(lp3200
I0
aI0
aF0.0
aF0.0
aF0.0
a(lp3201
F0.0
aF0.0
aF0.0
aF0.0
aF0.0
aaa(lp3202
I0
aI0
aF0.0
aF0.0
aF0.0
a(lp3203
F0.0
aF0.0
aF0.0
aF0.0
aF0.0
aaa(lp3204
I0
aI0
aF0.0
aF0.0
aF0.0
a(lp3205
F0.0
aF0.0
aF0.0
aF0.0
aF0.0
aaa(lp3206
I0
aI0
aF0.0
aF0.0
aF0.0
a(lp3207
F0.0
aF0.0
aF0.0
aF0.0
aF0.0
aaa(lp3208
I0
aI0
aF0.0
aF0.0
aF0.0
a(lp3209
F0.0
aF0.0
aF0.0
aF0.0
aF0.0
aaa(lp3210
I0
aI0
aF0.0
aF0.0
aF0.0
a(lp3211
F0.0
aF0.0
aF0.0
aF0.0
aF0.0
aaa(lp3212
I0
aI0
aF0.0
aF0.0
aF0.0
a(lp3213
F0.0
aF0.0
aF0.0
aF0.0
aF0.0
aaa(lp3214
I0
aI0
aF0.0
aF0.0
aF0.0
a(lp3215
F0.0
aF0.0
aF0.0
aF0.0
aF0.0
aaa(lp3216
I0
aI0
aF0.0
aF0.0
aF0.0
a(lp3217
F0.0
aF0.0
aF0.0
aF0.0
aF0.0
aaa(lp3218
I0
aI0
aF0.0
aF0.0
aF0.0
a(lp3219
F0.0
aF0.0
aF0.0
aF0.0
aF0.0
aaa(lp3220
I0
aI0
aF0.0
aF0.0
aF0.0
a(lp3221
F0.0
aF0.0
aF0.0
aF0.0
aF0.0
aaa(lp3222
I0
aI0
aF0.0
aF0.0
aF0.0
a(lp3223
F0.0
aF0.0
aF0.0
aF0.0
aF0.0
aaa(lp3224
I0
aI0
aF0.0
aF0.0
aF0.0
a(lp3225
F0.0
aF0.0
aF0.0
aF0.0
aF0.0
aaa(lp3226
I0
aI0
aF0.0
aF0.0
aF0.0
a(lp3227
F0.0
aF0.0
aF0.0
aF0.0
aF0.0
aaa(lp3228
I0
aI0
aF0.0
aF0.0
aF0.0
a(lp3229
F0.0
aF0.0
aF0.0
aF0.0
aF0.0
aaa(lp3230
I0
aI0
aF0.0
aF0.0
aF0.0
a(lp3231
F0.0
aF0.0
aF0.0
aF0.0
aF0.0
aaa(lp3232
I0
aI0
aF0.0
aF0.0
aF0.0
a(lp3233
F0.0
aF0.0
aF0.0
aF0.0
aF0.0
aaa(lp3234
I0
aI0
aF0.0
aF0.0
aF0.0
a(lp3235
F0.0
aF0.0
aF0.0
aF0.0
aF0.0
aaa(lp3236
I0
aI0
aF0.0
aF0.0
aF0.0
a(lp3237
F0.0
aF0.0
aF0.0
aF0.0
aF0.0
aaa(lp3238
I0
aI0
aF0.0
aF0.0
aF0.0
a(lp3239
F0.0
aF0.0
aF0.0
aF0.0
aF0.0
aaa(lp3240
I0
aI0
aF0.0
aF0.0
aF0.0
a(lp3241
F0.0
aF0.0
aF0.0
aF0.0
aF0.0
aaa(lp3242
I0
aI0
aF0.0
aF0.0
aF0.0
a(lp3243
F0.0
aF0.0
aF0.0
aF0.0
aF0.0
aaa(lp3244
I0
aI0
aF0.0
aF0.0
aF0.0
a(lp3245
F0.0
aF0.0
aF0.0
aF0.0
aF0.0
aaa(lp3246
I0
aI0
aF0.0
aF0.0
aF0.0
a(lp3247
F0.0
aF0.0
aF0.0
aF0.0
aF0.0
aaa(lp3248
I0
aI0
aF0.0
aF0.0
aF0.0
a(lp3249
F0.0
aF0.0
aF0.0
aF0.0
aF0.0
aaa(lp3250
I0
aI0
aF0.0
aF0.0
aF0.0
a(lp3251
F0.0
aF0.0
aF0.0
aF0.0
aF0.0
aaa(lp3252
I0
aI0
aF0.0
aF0.0
aF0.0
a(lp3253
F0.0
aF0.0
aF0.0
aF0.0
aF0.0
aaa(lp3254
I0
aI0
aF0.0
aF0.0
aF0.0
a(lp3255
F0.0
aF0.0
aF0.0
aF0.0
aF0.0
aaa(lp3256
I0
aI0
aF0.0
aF0.0
aF0.0
a(lp3257
F0.0
aF0.0
aF0.0
aF0.0
aF0.0
aaa(lp3258
I0
aI0
aF0.0
aF0.0
aF0.0
a(lp3259
F0.0
aF0.0
aF0.0
aF0.0
aF0.0
aaa(lp3260
I0
aI0
aF0.0
aF0.0
aF0.0
a(lp3261
F0.0
aF0.0
aF0.0
aF0.0
aF0.0
aaa(lp3262
I0
aI0
aF0.0
aF0.0
aF0.0
a(lp3263
F0.0
aF0.0
aF0.0
aF0.0
aF0.0
aaa(lp3264
I0
aI0
aF0.0
aF0.0
aF0.0
a(lp3265
F0.0
aF0.0
aF0.0
aF0.0
aF0.0
aaa(lp3266
I0
aI0
aF0.0
aF0.0
aF0.0
a(lp3267
F0.0
aF0.0
aF0.0
aF0.0
aF0.0
aaa(lp3268
I0
aI0
aF0.0
aF0.0
aF0.0
a(lp3269
F0.0
aF0.0
aF0.0
aF0.0
aF0.0
aaa(lp3270
I0
aI0
aF0.0
aF0.0
aF0.0
a(lp3271
F0.0
aF0.0
aF0.0
aF0.0
aF0.0
aaa(lp3272
I0
aI0
aF0.0
aF0.0
aF0.0
a(lp3273
F0.0
aF0.0
aF0.0
aF0.0
aF0.0
aaa(lp3274
I0
aI0
aF0.0
aF0.0
aF0.0
a(lp3275
F0.0
aF0.0
aF0.0
aF0.0
aF0.0
aaa(lp3276
I0
aI0
aF0.0
aF0.0
aF0.0
a(lp3277
F0.0
aF0.0
aF0.0
aF0.0
aF0.0
aaa(lp3278
I0
aI0
aF0.0
aF0.0
aF0.0
a(lp3279
F0.0
aF0.0
aF0.0
aF0.0
aF0.0
aaa(lp3280
I0
aI0
aF0.0
aF0.0
aF0.0
a(lp3281
F0.0
aF0.0
aF0.0
aF0.0
aF0.0
aaa(lp3282
I0
aI0
aF0.0
aF0.0
aF0.0
a(lp3283
F0.0
aF0.0
aF0.0
aF0.0
aF0.0
aaa(lp3284
I0
aI0
aF0.0
aF0.0
aF0.0
a(lp3285
F0.0
aF0.0
aF0.0
aF0.0
aF0.0
aaa(lp3286
I0
aI0
aF0.0
aF0.0
aF0.0
a(lp3287
F0.0
aF0.0
aF0.0
aF0.0
aF0.0
aaa(lp3288
I0
aI0
aF0.0
aF0.0
aF0.0
a(lp3289
F0.0
aF0.0
aF0.0
aF0.0
aF0.0
aaa(lp3290
I0
aI0
aF0.0
aF0.0
aF0.0
a(lp3291
F0.0
aF0.0
aF0.0
aF0.0
aF0.0
aaa(lp3292
I0
aI0
aF0.0
aF0.0
aF0.0
a(lp3293
F0.0
aF0.0
aF0.0
aF0.0
aF0.0
aaa(lp3294
I0
aI0
aF0.0
aF0.0
aF0.0
a(lp3295
F0.0
aF0.0
aF0.0
aF0.0
aF0.0
aaa(lp3296
I0
aI0
aF0.0
aF0.0
aF0.0
a(lp3297
F0.0
aF0.0
aF0.0
aF0.0
aF0.0
aaa(lp3298
I0
aI0
aF0.0
aF0.0
aF0.0
a(lp3299
F0.0
aF0.0
aF0.0
aF0.0
aF0.0
aaa(lp3300
I0
aI0
aF0.0
aF0.0
aF0.0
a(lp3301
F0.0
aF0.0
aF0.0
aF0.0
aF0.0
aaa(lp3302
I0
aI0
aF0.0
aF0.0
aF0.0
a(lp3303
F0.0
aF0.0
aF0.0
aF0.0
aF0.0
aaa(lp3304
I0
aI0
aF0.0
aF0.0
aF0.0
a(lp3305
F0.0
aF0.0
aF0.0
aF0.0
aF0.0
aaa(lp3306
I0
aI0
aF0.0
aF0.0
aF0.0
a(lp3307
F0.0
aF0.0
aF0.0
aF0.0
aF0.0
aaa(lp3308
I0
aI0
aF0.0
aF0.0
aF0.0
a(lp3309
F0.0
aF0.0
aF0.0
aF0.0
aF0.0
aaa(lp3310
I0
aI0
aF0.0
aF0.0
aF0.0
a(lp3311
F0.0
aF0.0
aF0.0
aF0.0
aF0.0
aaa(lp3312
I0
aI0
aF0.0
aF0.0
aF0.0
a(lp3313
F0.0
aF0.0
aF0.0
aF0.0
aF0.0
aaa(lp3314
I0
aI0
aF0.0
aF0.0
aF0.0
a(lp3315
F0.0
aF0.0
aF0.0
aF0.0
aF0.0
aaa(lp3316
I0
aI0
aF0.0
aF0.0
aF0.0
a(lp3317
F0.0
aF0.0
aF0.0
aF0.0
aF0.0
aaa(lp3318
I0
aI0
aF0.0
aF0.0
aF0.0
a(lp3319
F0.0
aF0.0
aF0.0
aF0.0
aF0.0
aaa(lp3320
I0
aI0
aF0.0
aF0.0
aF0.0
a(lp3321
F0.0
aF0.0
aF0.0
aF0.0
aF0.0
aaa(lp3322
I0
aI0
aF0.0
aF0.0
aF0.0
a(lp3323
F0.0
aF0.0
aF0.0
aF0.0
aF0.0
aaastp3324
Rp3325
(dp3326
g234
(lp3327
g814
ag826
asbssg246
(ipoplib
Agent
p3328
(dp3329
g4
g1950
sg250
(lp3330
g1968
ag1980
ag1992
ag2001
asg252
(lp3331
(ipoplib
MemVar
p3332
(dp3333
g256
I0
sg257
g1965
sg4
g1968
sg259
Nsg246
g3328
sg260
I0
sg261
(dp3334
g814
(ipoplib
BaseForm
p3335
(dp3336
g265
g811
sg259
g3332
sg267
S'100'
p3337
sbsg826
(ipoplib
MemVar
p3338
(dp3339
g256
I1
sg257
g823
sg4
Vruletable
p3340
sg259
g3332
sg246
g3328
sg260
V100
p3341
sg261
(dp3342
g682
(ipoplib
BaseForm
p3343
(dp3344
g265
g679
sg259
g3338
sg267
S'0.01'
p3345
sbsg694
(ipoplib
MemVar
p3346
(dp3347
g256
I1
sg257
g691
sg4
Vparameters
p3348
sg259
g3338
sg246
g3328
sg260
V5
p3349
sg261
(dp3350
S'array length'
p3351
(ipoplib
BaseFormStatic
p3352
(dp3353
g265
g292
sg259
g3346
sg267
g268
sbsg3348
(ipoplib
BaseForm
p3354
(dp3355
g265
g691
sg259
g3346
sg267
g268
sbssg279
g694
sg280
(dp3356
Vparameters
p3357
g268
ssg286
g287
sS'type'
p3358
g691
sS'desc'
p3359
S'no desc'
p3360
sbsg646
(ipoplib
BaseForm
p3361
(dp3362
g265
g643
sg259
g3338
sg267
g268
sbsg3351
(ipoplib
BaseFormStatic
p3363
(dp3364
g265
g292
sg259
g3338
sg267
S'100'
p3365
sbsg670
(ipoplib
BaseForm
p3366
(dp3367
g265
g667
sg259
g3338
sg267
S'0.0'
p3368
sbsg658
(ipoplib
BaseForm
p3369
(dp3370
g265
g655
sg259
g3338
sg267
S'0.0'
p3371
sbsg634
(ipoplib
BaseForm
p3372
(dp3373
g265
g631
sg259
g3338
sg267
S'sequence(0,99,1)'
p3374
sbssg279
g826
sg280
(dp3375
Vavg_performance
p3376
S'0.0'
p3377
sVperformance
p3378
S'0.0'
p3379
sVcounter
p3380
g268
sVid
p3381
S'sequence(0,99,1)'
p3382
sVselection_prob
p3383
S'0.01'
p3384
ssg286
g287
sg3358
g823
sg3359
g3360
sbssg279
g1968
sg280
(dp3385
Vnr_rules
p3386
S'100'
p3387
ssg286
g287
sg3358
g1965
sg3359
g1971
sba(ipoplib
MemVar
p3388
(dp3389
g256
I0
sg257
g1977
sg4
g1980
sg259
Nsg246
g3328
sg260
I0
sg261
(dp3390
g814
(ipoplib
BaseForm
p3391
(dp3392
g265
g811
sg259
g3388
sg267
g268
sbsg826
(ipoplib
MemVar
p3393
(dp3394
g256
I1
sg257
g823
sg4
Vruletable
p3395
sg259
g3388
sg246
g3328
sg260
V100
p3396
sg261
(dp3397
g682
(ipoplib
BaseForm
p3398
(dp3399
g265
g679
sg259
g3393
sg267
g268
sbsg694
(ipoplib
MemVar
p3400
(dp3401
g256
I1
sg257
g691
sg4
Vparameters
p3402
sg259
g3393
sg246
g3328
sg260
g3349
sg261
(dp3403
g3351
(ipoplib
BaseFormStatic
p3404
(dp3405
g265
g292
sg259
g3400
sg267
g268
sbsg3402
(ipoplib
BaseForm
p3406
(dp3407
g265
g691
sg259
g3400
sg267
g268
sbssg279
g694
sg280
(dp3408
Vparameters
p3409
g268
ssg286
g287
sg3358
g691
sg3359
g3360
sbsg646
(ipoplib
BaseForm
p3410
(dp3411
g265
g643
sg259
g3393
sg267
g268
sbsg3351
(ipoplib
BaseFormStatic
p3412
(dp3413
g265
g292
sg259
g3393
sg267
S'100'
p3414
sbsg670
(ipoplib
BaseForm
p3415
(dp3416
g265
g667
sg259
g3393
sg267
g268
sbsg658
(ipoplib
BaseForm
p3417
(dp3418
g265
g655
sg259
g3393
sg267
g268
sbsg634
(ipoplib
BaseForm
p3419
(dp3420
g265
g631
sg259
g3393
sg267
g268
sbssg279
g826
sg280
(dp3421
g3376
g268
sg3378
g268
sg3380
g268
sg3381
g268
sg3383
g268
ssg286
g287
sg3358
g823
sg3359
g3360
sbssg279
g1980
sg280
(dp3422
g3386
g268
ssg286
g287
sg3358
g1977
sg3359
g1983
sba(ipoplib
MemVar
p3423
(dp3424
g256
I0
sg257
g1989
sg4
g1992
sg259
Nsg246
g3328
sg260
I0
sg261
(dp3425
g592
(ipoplib
MemVar
p3426
(dp3427
g256
I1
sg257
g589
sg4
Vmin_values
p3428
sg259
g3423
sg246
g3328
sg260
g3349
sg261
(dp3429
g3351
(ipoplib
BaseFormStatic
p3430
(dp3431
g265
g292
sg259
g3426
sg267
g268
sbsg3428
(ipoplib
BaseForm
p3432
(dp3433
g265
g589
sg259
g3426
sg267
S'[0.0,0.0,0.0,0.0,0.0]'
p3434
sbssg279
g592
sg280
(dp3435
Vmin_values
p3436
g268
ssg286
g287
sg3358
g589
sg3359
g3360
sbsg568
(ipoplib
BaseForm
p3437
(dp3438
g265
g565
sg259
g3423
sg267
S'-10.0'
p3439
sbsg475
(ipoplib
BaseForm
p3440
(dp3441
g265
g472
sg259
g3423
sg267
S'1.00'
p3442
sbsg604
(ipoplib
MemVar
p3443
(dp3444
g256
I1
sg257
g601
sg4
Vmax_values
p3445
sg259
g3423
sg246
g3328
sg260
g3349
sg261
(dp3446
g3351
(ipoplib
BaseFormStatic
p3447
(dp3448
g265
g292
sg259
g3443
sg267
g268
sbsg3445
(ipoplib
BaseForm
p3449
(dp3450
g265
g601
sg259
g3443
sg267
S'[1.0,1.0,1.0,1.0,1.0]'
p3451
sbssg279
g604
sg280
(dp3452
Vmax_values
p3453
g268
ssg286
g287
sg3358
g601
sg3359
g3360
sbsg532
(ipoplib
BaseForm
p3454
(dp3455
g265
g529
sg259
g3423
sg267
g272
sbsg487
(ipoplib
BaseForm
p3456
(dp3457
g265
g484
sg259
g3423
sg267
S'1.00'
p3458
sbsg580
(ipoplib
BaseForm
p3459
(dp3460
g265
g577
sg259
g3423
sg267
S'10.0'
p3461
sbsg499
(ipoplib
BaseForm
p3462
(dp3463
g265
g496
sg259
g3423
sg267
S'5'
p3464
sbsg544
(ipoplib
BaseForm
p3465
(dp3466
g265
g541
sg259
g3423
sg267
g268
sbsg520
(ipoplib
BaseForm
p3467
(dp3468
g265
g517
sg259
g3423
sg267
S'0.25'
p3469
sbsg556
(ipoplib
MemVar
p3470
(dp3471
g256
I1
sg257
g553
sg4
Vstepsize
p3472
sg259
g3423
sg246
g3328
sg260
g3349
sg261
(dp3473
g3351
(ipoplib
BaseFormStatic
p3474
(dp3475
g265
g292
sg259
g3470
sg267
g268
sbsg3472
(ipoplib
BaseForm
p3476
(dp3477
g265
g553
sg259
g3470
sg267
g268
sbssg279
g556
sg280
(dp3478
Vstepsize
p3479
g268
ssg286
g287
sg3358
g553
sg3359
g3360
sbsg508
(ipoplib
BaseForm
p3480
(dp3481
g265
g505
sg259
g3423
sg267
S'100'
p3482
sbssg279
g1992
sg280
(dp3483
Vdelta_min
p3484
S'-10.0'
p3485
sVprob_cross
p3486
S'1.00'
p3487
sVsingle_point_cross_over
p3488
g272
sVprob_mut
p3489
S'1.00'
p3490
sVreproduction_proportion
p3491
S'0.25'
p3492
sVstring_size
p3493
g3464
sVelection
p3494
g268
sVdelta_max
p3495
S'10.0'
p3496
sVpop_size
p3497
S'100'
p3498
ssg286
g287
sg3358
g1989
sg3359
S'no desc'
p3499
sba(ipoplib
MemVar
p3500
(dp3501
g256
I0
sg257
g1998
sg4
g2001
sg259
Nsg246
g3328
sg260
I0
sg261
(dp3502
g238
(ipoplib
BaseForm
p3503
(dp3504
g265
g266
sg259
g3500
sg267
g268
sbsg239
(ipoplib
BaseForm
p3505
(dp3506
g265
g271
sg259
g3500
sg267
g272
sbsg240
(ipoplib
BaseForm
p3507
(dp3508
g265
g275
sg259
g3500
sg267
g268
sbsg241
(ipoplib
BaseForm
p3509
(dp3510
g265
g278
sg259
g3500
sg267
g268
sbssg279
g2001
sg280
(dp3511
g283
g268
sg282
g272
sg284
g268
sg285
g268
ssg286
g287
sg3358
g1998
sg3359
g3499
sbasS'depends'
p3512
(lp3513
sS'memvarreg'
p3514
(ipoplib
MemVarRegistry
p3515
(dp3516
g16
(dp3517
sg18
I1
sg19
(dp3518
g1968
g22
(g23
g24
(dp3519
g814
I100
sg826
(lp3520
(lp3521
I0
aI0
aF0.0
aF0.0
aF0.01
a(lp3522
F0.0
aF0.0
aF0.0
aF0.0
aF0.0
aaa(lp3523
I1
aI0
aF0.0
aF0.0
aF0.01
a(lp3524
F0.0
aF0.0
aF0.0
aF0.0
aF0.0
aaa(lp3525
I2
aI0
aF0.0
aF0.0
aF0.01
a(lp3526
F0.0
aF0.0
aF0.0
aF0.0
aF0.0
aaa(lp3527
I3
aI0
aF0.0
aF0.0
aF0.01
a(lp3528
F0.0
aF0.0
aF0.0
aF0.0
aF0.0
aaa(lp3529
I4
aI0
aF0.0
aF0.0
aF0.01
a(lp3530
F0.0
aF0.0
aF0.0
aF0.0
aF0.0
aaa(lp3531
I5
aI0
aF0.0
aF0.0
aF0.01
a(lp3532
F0.0
aF0.0
aF0.0
aF0.0
aF0.0
aaa(lp3533
I6
aI0
aF0.0
aF0.0
aF0.01
a(lp3534
F0.0
aF0.0
aF0.0
aF0.0
aF0.0
aaa(lp3535
I7
aI0
aF0.0
aF0.0
aF0.01
a(lp3536
F0.0
aF0.0
aF0.0
aF0.0
aF0.0
aaa(lp3537
I8
aI0
aF0.0
aF0.0
aF0.01
a(lp3538
F0.0
aF0.0
aF0.0
aF0.0
aF0.0
aaa(lp3539
I9
aI0
aF0.0
aF0.0
aF0.01
a(lp3540
F0.0
aF0.0
aF0.0
aF0.0
aF0.0
aaa(lp3541
I10
aI0
aF0.0
aF0.0
aF0.01
a(lp3542
F0.0
aF0.0
aF0.0
aF0.0
aF0.0
aaa(lp3543
I11
aI0
aF0.0
aF0.0
aF0.01
a(lp3544
F0.0
aF0.0
aF0.0
aF0.0
aF0.0
aaa(lp3545
I12
aI0
aF0.0
aF0.0
aF0.01
a(lp3546
F0.0
aF0.0
aF0.0
aF0.0
aF0.0
aaa(lp3547
I13
aI0
aF0.0
aF0.0
aF0.01
a(lp3548
F0.0
aF0.0
aF0.0
aF0.0
aF0.0
aaa(lp3549
I14
aI0
aF0.0
aF0.0
aF0.01
a(lp3550
F0.0
aF0.0
aF0.0
aF0.0
aF0.0
aaa(lp3551
I15
aI0
aF0.0
aF0.0
aF0.01
a(lp3552
F0.0
aF0.0
aF0.0
aF0.0
aF0.0
aaa(lp3553
I16
aI0
aF0.0
aF0.0
aF0.01
a(lp3554
F0.0
aF0.0
aF0.0
aF0.0
aF0.0
aaa(lp3555
I17
aI0
aF0.0
aF0.0
aF0.01
a(lp3556
F0.0
aF0.0
aF0.0
aF0.0
aF0.0
aaa(lp3557
I18
aI0
aF0.0
aF0.0
aF0.01
a(lp3558
F0.0
aF0.0
aF0.0
aF0.0
aF0.0
aaa(lp3559
I19
aI0
aF0.0
aF0.0
aF0.01
a(lp3560
F0.0
aF0.0
aF0.0
aF0.0
aF0.0
aaa(lp3561
I20
aI0
aF0.0
aF0.0
aF0.01
a(lp3562
F0.0
aF0.0
aF0.0
aF0.0
aF0.0
aaa(lp3563
I21
aI0
aF0.0
aF0.0
aF0.01
a(lp3564
F0.0
aF0.0
aF0.0
aF0.0
aF0.0
aaa(lp3565
I22
aI0
aF0.0
aF0.0
aF0.01
a(lp3566
F0.0
aF0.0
aF0.0
aF0.0
aF0.0
aaa(lp3567
I23
aI0
aF0.0
aF0.0
aF0.01
a(lp3568
F0.0
aF0.0
aF0.0
aF0.0
aF0.0
aaa(lp3569
I24
aI0
aF0.0
aF0.0
aF0.01
a(lp3570
F0.0
aF0.0
aF0.0
aF0.0
aF0.0
aaa(lp3571
I25
aI0
aF0.0
aF0.0
aF0.01
a(lp3572
F0.0
aF0.0
aF0.0
aF0.0
aF0.0
aaa(lp3573
I26
aI0
aF0.0
aF0.0
aF0.01
a(lp3574
F0.0
aF0.0
aF0.0
aF0.0
aF0.0
aaa(lp3575
I27
aI0
aF0.0
aF0.0
aF0.01
a(lp3576
F0.0
aF0.0
aF0.0
aF0.0
aF0.0
aaa(lp3577
I28
aI0
aF0.0
aF0.0
aF0.01
a(lp3578
F0.0
aF0.0
aF0.0
aF0.0
aF0.0
aaa(lp3579
I29
aI0
aF0.0
aF0.0
aF0.01
a(lp3580
F0.0
aF0.0
aF0.0
aF0.0
aF0.0
aaa(lp3581
I30
aI0
aF0.0
aF0.0
aF0.01
a(lp3582
F0.0
aF0.0
aF0.0
aF0.0
aF0.0
aaa(lp3583
I31
aI0
aF0.0
aF0.0
aF0.01
a(lp3584
F0.0
aF0.0
aF0.0
aF0.0
aF0.0
aaa(lp3585
I32
aI0
aF0.0
aF0.0
aF0.01
a(lp3586
F0.0
aF0.0
aF0.0
aF0.0
aF0.0
aaa(lp3587
I33
aI0
aF0.0
aF0.0
aF0.01
a(lp3588
F0.0
aF0.0
aF0.0
aF0.0
aF0.0
aaa(lp3589
I34
aI0
aF0.0
aF0.0
aF0.01
a(lp3590
F0.0
aF0.0
aF0.0
aF0.0
aF0.0
aaa(lp3591
I35
aI0
aF0.0
aF0.0
aF0.01
a(lp3592
F0.0
aF0.0
aF0.0
aF0.0
aF0.0
aaa(lp3593
I36
aI0
aF0.0
aF0.0
aF0.01
a(lp3594
F0.0
aF0.0
aF0.0
aF0.0
aF0.0
aaa(lp3595
I37
aI0
aF0.0
aF0.0
aF0.01
a(lp3596
F0.0
aF0.0
aF0.0
aF0.0
aF0.0
aaa(lp3597
I38
aI0
aF0.0
aF0.0
aF0.01
a(lp3598
F0.0
aF0.0
aF0.0
aF0.0
aF0.0
aaa(lp3599
I39
aI0
aF0.0
aF0.0
aF0.01
a(lp3600
F0.0
aF0.0
aF0.0
aF0.0
aF0.0
aaa(lp3601
I40
aI0
aF0.0
aF0.0
aF0.01
a(lp3602
F0.0
aF0.0
aF0.0
aF0.0
aF0.0
aaa(lp3603
I41
aI0
aF0.0
aF0.0
aF0.01
a(lp3604
F0.0
aF0.0
aF0.0
aF0.0
aF0.0
aaa(lp3605
I42
aI0
aF0.0
aF0.0
aF0.01
a(lp3606
F0.0
aF0.0
aF0.0
aF0.0
aF0.0
aaa(lp3607
I43
aI0
aF0.0
aF0.0
aF0.01
a(lp3608
F0.0
aF0.0
aF0.0
aF0.0
aF0.0
aaa(lp3609
I44
aI0
aF0.0
aF0.0
aF0.01
a(lp3610
F0.0
aF0.0
aF0.0
aF0.0
aF0.0
aaa(lp3611
I45
aI0
aF0.0
aF0.0
aF0.01
a(lp3612
F0.0
aF0.0
aF0.0
aF0.0
aF0.0
aaa(lp3613
I46
aI0
aF0.0
aF0.0
aF0.01
a(lp3614
F0.0
aF0.0
aF0.0
aF0.0
aF0.0
aaa(lp3615
I47
aI0
aF0.0
aF0.0
aF0.01
a(lp3616
F0.0
aF0.0
aF0.0
aF0.0
aF0.0
aaa(lp3617
I48
aI0
aF0.0
aF0.0
aF0.01
a(lp3618
F0.0
aF0.0
aF0.0
aF0.0
aF0.0
aaa(lp3619
I49
aI0
aF0.0
aF0.0
aF0.01
a(lp3620
F0.0
aF0.0
aF0.0
aF0.0
aF0.0
aaa(lp3621
I50
aI0
aF0.0
aF0.0
aF0.01
a(lp3622
F0.0
aF0.0
aF0.0
aF0.0
aF0.0
aaa(lp3623
I51
aI0
aF0.0
aF0.0
aF0.01
a(lp3624
F0.0
aF0.0
aF0.0
aF0.0
aF0.0
aaa(lp3625
I52
aI0
aF0.0
aF0.0
aF0.01
a(lp3626
F0.0
aF0.0
aF0.0
aF0.0
aF0.0
aaa(lp3627
I53
aI0
aF0.0
aF0.0
aF0.01
a(lp3628
F0.0
aF0.0
aF0.0
aF0.0
aF0.0
aaa(lp3629
I54
aI0
aF0.0
aF0.0
aF0.01
a(lp3630
F0.0
aF0.0
aF0.0
aF0.0
aF0.0
aaa(lp3631
I55
aI0
aF0.0
aF0.0
aF0.01
a(lp3632
F0.0
aF0.0
aF0.0
aF0.0
aF0.0
aaa(lp3633
I56
aI0
aF0.0
aF0.0
aF0.01
a(lp3634
F0.0
aF0.0
aF0.0
aF0.0
aF0.0
aaa(lp3635
I57
aI0
aF0.0
aF0.0
aF0.01
a(lp3636
F0.0
aF0.0
aF0.0
aF0.0
aF0.0
aaa(lp3637
I58
aI0
aF0.0
aF0.0
aF0.01
a(lp3638
F0.0
aF0.0
aF0.0
aF0.0
aF0.0
aaa(lp3639
I59
aI0
aF0.0
aF0.0
aF0.01
a(lp3640
F0.0
aF0.0
aF0.0
aF0.0
aF0.0
aaa(lp3641
I60
aI0
aF0.0
aF0.0
aF0.01
a(lp3642
F0.0
aF0.0
aF0.0
aF0.0
aF0.0
aaa(lp3643
I61
aI0
aF0.0
aF0.0
aF0.01
a(lp3644
F0.0
aF0.0
aF0.0
aF0.0
aF0.0
aaa(lp3645
I62
aI0
aF0.0
aF0.0
aF0.01
a(lp3646
F0.0
aF0.0
aF0.0
aF0.0
aF0.0
aaa(lp3647
I63
aI0
aF0.0
aF0.0
aF0.01
a(lp3648
F0.0
aF0.0
aF0.0
aF0.0
aF0.0
aaa(lp3649
I64
aI0
aF0.0
aF0.0
aF0.01
a(lp3650
F0.0
aF0.0
aF0.0
aF0.0
aF0.0
aaa(lp3651
I65
aI0
aF0.0
aF0.0
aF0.01
a(lp3652
F0.0
aF0.0
aF0.0
aF0.0
aF0.0
aaa(lp3653
I66
aI0
aF0.0
aF0.0
aF0.01
a(lp3654
F0.0
aF0.0
aF0.0
aF0.0
aF0.0
aaa(lp3655
I67
aI0
aF0.0
aF0.0
aF0.01
a(lp3656
F0.0
aF0.0
aF0.0
aF0.0
aF0.0
aaa(lp3657
I68
aI0
aF0.0
aF0.0
aF0.01
a(lp3658
F0.0
aF0.0
aF0.0
aF0.0
aF0.0
aaa(lp3659
I69
aI0
aF0.0
aF0.0
aF0.01
a(lp3660
F0.0
aF0.0
aF0.0
aF0.0
aF0.0
aaa(lp3661
I70
aI0
aF0.0
aF0.0
aF0.01
a(lp3662
F0.0
aF0.0
aF0.0
aF0.0
aF0.0
aaa(lp3663
I71
aI0
aF0.0
aF0.0
aF0.01
a(lp3664
F0.0
aF0.0
aF0.0
aF0.0
aF0.0
aaa(lp3665
I72
aI0
aF0.0
aF0.0
aF0.01
a(lp3666
F0.0
aF0.0
aF0.0
aF0.0
aF0.0
aaa(lp3667
I73
aI0
aF0.0
aF0.0
aF0.01
a(lp3668
F0.0
aF0.0
aF0.0
aF0.0
aF0.0
aaa(lp3669
I74
aI0
aF0.0
aF0.0
aF0.01
a(lp3670
F0.0
aF0.0
aF0.0
aF0.0
aF0.0
aaa(lp3671
I75
aI0
aF0.0
aF0.0
aF0.01
a(lp3672
F0.0
aF0.0
aF0.0
aF0.0
aF0.0
aaa(lp3673
I76
aI0
aF0.0
aF0.0
aF0.01
a(lp3674
F0.0
aF0.0
aF0.0
aF0.0
aF0.0
aaa(lp3675
I77
aI0
aF0.0
aF0.0
aF0.01
a(lp3676
F0.0
aF0.0
aF0.0
aF0.0
aF0.0
aaa(lp3677
I78
aI0
aF0.0
aF0.0
aF0.01
a(lp3678
F0.0
aF0.0
aF0.0
aF0.0
aF0.0
aaa(lp3679
I79
aI0
aF0.0
aF0.0
aF0.01
a(lp3680
F0.0
aF0.0
aF0.0
aF0.0
aF0.0
aaa(lp3681
I80
aI0
aF0.0
aF0.0
aF0.01
a(lp3682
F0.0
aF0.0
aF0.0
aF0.0
aF0.0
aaa(lp3683
I81
aI0
aF0.0
aF0.0
aF0.01
a(lp3684
F0.0
aF0.0
aF0.0
aF0.0
aF0.0
aaa(lp3685
I82
aI0
aF0.0
aF0.0
aF0.01
a(lp3686
F0.0
aF0.0
aF0.0
aF0.0
aF0.0
aaa(lp3687
I83
aI0
aF0.0
aF0.0
aF0.01
a(lp3688
F0.0
aF0.0
aF0.0
aF0.0
aF0.0
aaa(lp3689
I84
aI0
aF0.0
aF0.0
aF0.01
a(lp3690
F0.0
aF0.0
aF0.0
aF0.0
aF0.0
aaa(lp3691
I85
aI0
aF0.0
aF0.0
aF0.01
a(lp3692
F0.0
aF0.0
aF0.0
aF0.0
aF0.0
aaa(lp3693
I86
aI0
aF0.0
aF0.0
aF0.01
a(lp3694
F0.0
aF0.0
aF0.0
aF0.0
aF0.0
aaa(lp3695
I87
aI0
aF0.0
aF0.0
aF0.01
a(lp3696
F0.0
aF0.0
aF0.0
aF0.0
aF0.0
aaa(lp3697
I88
aI0
aF0.0
aF0.0
aF0.01
a(lp3698
F0.0
aF0.0
aF0.0
aF0.0
aF0.0
aaa(lp3699
I89
aI0
aF0.0
aF0.0
aF0.01
a(lp3700
F0.0
aF0.0
aF0.0
aF0.0
aF0.0
aaa(lp3701
I90
aI0
aF0.0
aF0.0
aF0.01
a(lp3702
F0.0
aF0.0
aF0.0
aF0.0
aF0.0
aaa(lp3703
I91
aI0
aF0.0
aF0.0
aF0.01
a(lp3704
F0.0
aF0.0
aF0.0
aF0.0
aF0.0
aaa(lp3705
I92
aI0
aF0.0
aF0.0
aF0.01
a(lp3706
F0.0
aF0.0
aF0.0
aF0.0
aF0.0
aaa(lp3707
I93
aI0
aF0.0
aF0.0
aF0.01
a(lp3708
F0.0
aF0.0
aF0.0
aF0.0
aF0.0
aaa(lp3709
I94
aI0
aF0.0
aF0.0
aF0.01
a(lp3710
F0.0
aF0.0
aF0.0
aF0.0
aF0.0
aaa(lp3711
I95
aI0
aF0.0
aF0.0
aF0.01
a(lp3712
F0.0
aF0.0
aF0.0
aF0.0
aF0.0
aaa(lp3713
I96
aI0
aF0.0
aF0.0
aF0.01
a(lp3714
F0.0
aF0.0
aF0.0
aF0.0
aF0.0
aaa(lp3715
I97
aI0
aF0.0
aF0.0
aF0.01
a(lp3716
F0.0
aF0.0
aF0.0
aF0.0
aF0.0
aaa(lp3717
I98
aI0
aF0.0
aF0.0
aF0.01
a(lp3718
F0.0
aF0.0
aF0.0
aF0.0
aF0.0
aaa(lp3719
I99
aI0
aF0.0
aF0.0
aF0.01
a(lp3720
F0.0
aF0.0
aF0.0
aF0.0
aF0.0
aaastp3721
Rp3722
(dp3723
g234
(lp3724
g814
ag826
asbsg1992
g22
(g23
g24
(dp3725
g508
I100
sg475
F1.0
sg568
I-10
sg604
(lp3726
F1.0
aF1.0
aF1.0
aF1.0
aF1.0
asg532
I1
sg487
F1.0
sg520
F0.25
sg499
I5
sg544
I0
sg580
I10
sg556
(lp3727
F0.0
aF0.0
aF0.0
aF0.0
aF0.0
asg592
(lp3728
F0.0
aF0.0
aF0.0
aF0.0
aF0.0
astp3729
Rp3730
(dp3731
g234
(lp3732
g475
ag487
ag499
ag508
ag520
ag532
ag544
ag556
ag568
ag580
ag592
ag604
asbsg2001
g22
(g23
g24
(dp3733
g238
F0.0
sg239
F1.0
sg240
F0.0
sg241
F0.0
stp3734
Rp3735
(dp3736
g234
(lp3737
g240
ag238
ag241
ag239
asbsg1980
g22
(g23
g24
(dp3738
g814
I0
sg826
(lp3739
(lp3740
I0
aI0
aF0.0
aF0.0
aF0.0
a(lp3741
F0.0
aF0.0
aF0.0
aF0.0
aF0.0
aaa(lp3742
I0
aI0
aF0.0
aF0.0
aF0.0
a(lp3743
F0.0
aF0.0
aF0.0
aF0.0
aF0.0
aaa(lp3744
I0
aI0
aF0.0
aF0.0
aF0.0
a(lp3745
F0.0
aF0.0
aF0.0
aF0.0
aF0.0
aaa(lp3746
I0
aI0
aF0.0
aF0.0
aF0.0
a(lp3747
F0.0
aF0.0
aF0.0
aF0.0
aF0.0
aaa(lp3748
I0
aI0
aF0.0
aF0.0
aF0.0
a(lp3749
F0.0
aF0.0
aF0.0
aF0.0
aF0.0
aaa(lp3750
I0
aI0
aF0.0
aF0.0
aF0.0
a(lp3751
F0.0
aF0.0
aF0.0
aF0.0
aF0.0
aaa(lp3752
I0
aI0
aF0.0
aF0.0
aF0.0
a(lp3753
F0.0
aF0.0
aF0.0
aF0.0
aF0.0
aaa(lp3754
I0
aI0
aF0.0
aF0.0
aF0.0
a(lp3755
F0.0
aF0.0
aF0.0
aF0.0
aF0.0
aaa(lp3756
I0
aI0
aF0.0
aF0.0
aF0.0
a(lp3757
F0.0
aF0.0
aF0.0
aF0.0
aF0.0
aaa(lp3758
I0
aI0
aF0.0
aF0.0
aF0.0
a(lp3759
F0.0
aF0.0
aF0.0
aF0.0
aF0.0
aaa(lp3760
I0
aI0
aF0.0
aF0.0
aF0.0
a(lp3761
F0.0
aF0.0
aF0.0
aF0.0
aF0.0
aaa(lp3762
I0
aI0
aF0.0
aF0.0
aF0.0
a(lp3763
F0.0
aF0.0
aF0.0
aF0.0
aF0.0
aaa(lp3764
I0
aI0
aF0.0
aF0.0
aF0.0
a(lp3765
F0.0
aF0.0
aF0.0
aF0.0
aF0.0
aaa(lp3766
I0
aI0
aF0.0
aF0.0
aF0.0
a(lp3767
F0.0
aF0.0
aF0.0
aF0.0
aF0.0
aaa(lp3768
I0
aI0
aF0.0
aF0.0
aF0.0
a(lp3769
F0.0
aF0.0
aF0.0
aF0.0
aF0.0
aaa(lp3770
I0
aI0
aF0.0
aF0.0
aF0.0
a(lp3771
F0.0
aF0.0
aF0.0
aF0.0
aF0.0
aaa(lp3772
I0
aI0
aF0.0
aF0.0
aF0.0
a(lp3773
F0.0
aF0.0
aF0.0
aF0.0
aF0.0
aaa(lp3774
I0
aI0
aF0.0
aF0.0
aF0.0
a(lp3775
F0.0
aF0.0
aF0.0
aF0.0
aF0.0
aaa(lp3776
I0
aI0
aF0.0
aF0.0
aF0.0
a(lp3777
F0.0
aF0.0
aF0.0
aF0.0
aF0.0
aaa(lp3778
I0
aI0
aF0.0
aF0.0
aF0.0
a(lp3779
F0.0
aF0.0
aF0.0
aF0.0
aF0.0
aaa(lp3780
I0
aI0
aF0.0
aF0.0
aF0.0
a(lp3781
F0.0
aF0.0
aF0.0
aF0.0
aF0.0
aaa(lp3782
I0
aI0
aF0.0
aF0.0
aF0.0
a(lp3783
F0.0
aF0.0
aF0.0
aF0.0
aF0.0
aaa(lp3784
I0
aI0
aF0.0
aF0.0
aF0.0
a(lp3785
F0.0
aF0.0
aF0.0
aF0.0
aF0.0
aaa(lp3786
I0
aI0
aF0.0
aF0.0
aF0.0
a(lp3787
F0.0
aF0.0
aF0.0
aF0.0
aF0.0
aaa(lp3788
I0
aI0
aF0.0
aF0.0
aF0.0
a(lp3789
F0.0
aF0.0
aF0.0
aF0.0
aF0.0
aaa(lp3790
I0
aI0
aF0.0
aF0.0
aF0.0
a(lp3791
F0.0
aF0.0
aF0.0
aF0.0
aF0.0
aaa(lp3792
I0
aI0
aF0.0
aF0.0
aF0.0
a(lp3793
F0.0
aF0.0
aF0.0
aF0.0
aF0.0
aaa(lp3794
I0
aI0
aF0.0
aF0.0
aF0.0
a(lp3795
F0.0
aF0.0
aF0.0
aF0.0
aF0.0
aaa(lp3796
I0
aI0
aF0.0
aF0.0
aF0.0
a(lp3797
F0.0
aF0.0
aF0.0
aF0.0
aF0.0
aaa(lp3798
I0
aI0
aF0.0
aF0.0
aF0.0
a(lp3799
F0.0
aF0.0
aF0.0
aF0.0
aF0.0
aaa(lp3800
I0
aI0
aF0.0
aF0.0
aF0.0
a(lp3801
F0.0
aF0.0
aF0.0
aF0.0
aF0.0
aaa(lp3802
I0
aI0
aF0.0
aF0.0
aF0.0
a(lp3803
F0.0
aF0.0
aF0.0
aF0.0
aF0.0
aaa(lp3804
I0
aI0
aF0.0
aF0.0
aF0.0
a(lp3805
F0.0
aF0.0
aF0.0
aF0.0
aF0.0
aaa(lp3806
I0
aI0
aF0.0
aF0.0
aF0.0
a(lp3807
F0.0
aF0.0
aF0.0
aF0.0
aF0.0
aaa(lp3808
I0
aI0
aF0.0
aF0.0
aF0.0
a(lp3809
F0.0
aF0.0
aF0.0
aF0.0
aF0.0
aaa(lp3810
I0
aI0
aF0.0
aF0.0
aF0.0
a(lp3811
F0.0
aF0.0
aF0.0
aF0.0
aF0.0
aaa(lp3812
I0
aI0
aF0.0
aF0.0
aF0.0
a(lp3813
F0.0
aF0.0
aF0.0
aF0.0
aF0.0
aaa(lp3814
I0
aI0
aF0.0
aF0.0
aF0.0
a(lp3815
F0.0
aF0.0
aF0.0
aF0.0
aF0.0
aaa(lp3816
I0
aI0
aF0.0
aF0.0
aF0.0
a(lp3817
F0.0
aF0.0
aF0.0
aF0.0
aF0.0
aaa(lp3818
I0
aI0
aF0.0
aF0.0
aF0.0
a(lp3819
F0.0
aF0.0
aF0.0
aF0.0
aF0.0
aaa(lp3820
I0
aI0
aF0.0
aF0.0
aF0.0
a(lp3821
F0.0
aF0.0
aF0.0
aF0.0
aF0.0
aaa(lp3822
I0
aI0
aF0.0
aF0.0
aF0.0
a(lp3823
F0.0
aF0.0
aF0.0
aF0.0
aF0.0
aaa(lp3824
I0
aI0
aF0.0
aF0.0
aF0.0
a(lp3825
F0.0
aF0.0
aF0.0
aF0.0
aF0.0
aaa(lp3826
I0
aI0
aF0.0
aF0.0
aF0.0
a(lp3827
F0.0
aF0.0
aF0.0
aF0.0
aF0.0
aaa(lp3828
I0
aI0
aF0.0
aF0.0
aF0.0
a(lp3829
F0.0
aF0.0
aF0.0
aF0.0
aF0.0
aaa(lp3830
I0
aI0
aF0.0
aF0.0
aF0.0
a(lp3831
F0.0
aF0.0
aF0.0
aF0.0
aF0.0
aaa(lp3832
I0
aI0
aF0.0
aF0.0
aF0.0
a(lp3833
F0.0
aF0.0
aF0.0
aF0.0
aF0.0
aaa(lp3834
I0
aI0
aF0.0
aF0.0
aF0.0
a(lp3835
F0.0
aF0.0
aF0.0
aF0.0
aF0.0
aaa(lp3836
I0
aI0
aF0.0
aF0.0
aF0.0
a(lp3837
F0.0
aF0.0
aF0.0
aF0.0
aF0.0
aaa(lp3838
I0
aI0
aF0.0
aF0.0
aF0.0
a(lp3839
F0.0
aF0.0
aF0.0
aF0.0
aF0.0
aaa(lp3840
I0
aI0
aF0.0
aF0.0
aF0.0
a(lp3841
F0.0
aF0.0
aF0.0
aF0.0
aF0.0
aaa(lp3842
I0
aI0
aF0.0
aF0.0
aF0.0
a(lp3843
F0.0
aF0.0
aF0.0
aF0.0
aF0.0
aaa(lp3844
I0
aI0
aF0.0
aF0.0
aF0.0
a(lp3845
F0.0
aF0.0
aF0.0
aF0.0
aF0.0
aaa(lp3846
I0
aI0
aF0.0
aF0.0
aF0.0
a(lp3847
F0.0
aF0.0
aF0.0
aF0.0
aF0.0
aaa(lp3848
I0
aI0
aF0.0
aF0.0
aF0.0
a(lp3849
F0.0
aF0.0
aF0.0
aF0.0
aF0.0
aaa(lp3850
I0
aI0
aF0.0
aF0.0
aF0.0
a(lp3851
F0.0
aF0.0
aF0.0
aF0.0
aF0.0
aaa(lp3852
I0
aI0
aF0.0
aF0.0
aF0.0
a(lp3853
F0.0
aF0.0
aF0.0
aF0.0
aF0.0
aaa(lp3854
I0
aI0
aF0.0
aF0.0
aF0.0
a(lp3855
F0.0
aF0.0
aF0.0
aF0.0
aF0.0
aaa(lp3856
I0
aI0
aF0.0
aF0.0
aF0.0
a(lp3857
F0.0
aF0.0
aF0.0
aF0.0
aF0.0
aaa(lp3858
I0
aI0
aF0.0
aF0.0
aF0.0
a(lp3859
F0.0
aF0.0
aF0.0
aF0.0
aF0.0
aaa(lp3860
I0
aI0
aF0.0
aF0.0
aF0.0
a(lp3861
F0.0
aF0.0
aF0.0
aF0.0
aF0.0
aaa(lp3862
I0
aI0
aF0.0
aF0.0
aF0.0
a(lp3863
F0.0
aF0.0
aF0.0
aF0.0
aF0.0
aaa(lp3864
I0
aI0
aF0.0
aF0.0
aF0.0
a(lp3865
F0.0
aF0.0
aF0.0
aF0.0
aF0.0
aaa(lp3866
I0
aI0
aF0.0
aF0.0
aF0.0
a(lp3867
F0.0
aF0.0
aF0.0
aF0.0
aF0.0
aaa(lp3868
I0
aI0
aF0.0
aF0.0
aF0.0
a(lp3869
F0.0
aF0.0
aF0.0
aF0.0
aF0.0
aaa(lp3870
I0
aI0
aF0.0
aF0.0
aF0.0
a(lp3871
F0.0
aF0.0
aF0.0
aF0.0
aF0.0
aaa(lp3872
I0
aI0
aF0.0
aF0.0
aF0.0
a(lp3873
F0.0
aF0.0
aF0.0
aF0.0
aF0.0
aaa(lp3874
I0
aI0
aF0.0
aF0.0
aF0.0
a(lp3875
F0.0
aF0.0
aF0.0
aF0.0
aF0.0
aaa(lp3876
I0
aI0
aF0.0
aF0.0
aF0.0
a(lp3877
F0.0
aF0.0
aF0.0
aF0.0
aF0.0
aaa(lp3878
I0
aI0
aF0.0
aF0.0
aF0.0
a(lp3879
F0.0
aF0.0
aF0.0
aF0.0
aF0.0
aaa(lp3880
I0
aI0
aF0.0
aF0.0
aF0.0
a(lp3881
F0.0
aF0.0
aF0.0
aF0.0
aF0.0
aaa(lp3882
I0
aI0
aF0.0
aF0.0
aF0.0
a(lp3883
F0.0
aF0.0
aF0.0
aF0.0
aF0.0
aaa(lp3884
I0
aI0
aF0.0
aF0.0
aF0.0
a(lp3885
F0.0
aF0.0
aF0.0
aF0.0
aF0.0
aaa(lp3886
I0
aI0
aF0.0
aF0.0
aF0.0
a(lp3887
F0.0
aF0.0
aF0.0
aF0.0
aF0.0
aaa(lp3888
I0
aI0
aF0.0
aF0.0
aF0.0
a(lp3889
F0.0
aF0.0
aF0.0
aF0.0
aF0.0
aaa(lp3890
I0
aI0
aF0.0
aF0.0
aF0.0
a(lp3891
F0.0
aF0.0
aF0.0
aF0.0
aF0.0
aaa(lp3892
I0
aI0
aF0.0
aF0.0
aF0.0
a(lp3893
F0.0
aF0.0
aF0.0
aF0.0
aF0.0
aaa(lp3894
I0
aI0
aF0.0
aF0.0
aF0.0
a(lp3895
F0.0
aF0.0
aF0.0
aF0.0
aF0.0
aaa(lp3896
I0
aI0
aF0.0
aF0.0
aF0.0
a(lp3897
F0.0
aF0.0
aF0.0
aF0.0
aF0.0
aaa(lp3898
I0
aI0
aF0.0
aF0.0
aF0.0
a(lp3899
F0.0
aF0.0
aF0.0
aF0.0
aF0.0
aaa(lp3900
I0
aI0
aF0.0
aF0.0
aF0.0
a(lp3901
F0.0
aF0.0
aF0.0
aF0.0
aF0.0
aaa(lp3902
I0
aI0
aF0.0
aF0.0
aF0.0
a(lp3903
F0.0
aF0.0
aF0.0
aF0.0
aF0.0
aaa(lp3904
I0
aI0
aF0.0
aF0.0
aF0.0
a(lp3905
F0.0
aF0.0
aF0.0
aF0.0
aF0.0
aaa(lp3906
I0
aI0
aF0.0
aF0.0
aF0.0
a(lp3907
F0.0
aF0.0
aF0.0
aF0.0
aF0.0
aaa(lp3908
I0
aI0
aF0.0
aF0.0
aF0.0
a(lp3909
F0.0
aF0.0
aF0.0
aF0.0
aF0.0
aaa(lp3910
I0
aI0
aF0.0
aF0.0
aF0.0
a(lp3911
F0.0
aF0.0
aF0.0
aF0.0
aF0.0
aaa(lp3912
I0
aI0
aF0.0
aF0.0
aF0.0
a(lp3913
F0.0
aF0.0
aF0.0
aF0.0
aF0.0
aaa(lp3914
I0
aI0
aF0.0
aF0.0
aF0.0
a(lp3915
F0.0
aF0.0
aF0.0
aF0.0
aF0.0
aaa(lp3916
I0
aI0
aF0.0
aF0.0
aF0.0
a(lp3917
F0.0
aF0.0
aF0.0
aF0.0
aF0.0
aaa(lp3918
I0
aI0
aF0.0
aF0.0
aF0.0
a(lp3919
F0.0
aF0.0
aF0.0
aF0.0
aF0.0
aaa(lp3920
I0
aI0
aF0.0
aF0.0
aF0.0
a(lp3921
F0.0
aF0.0
aF0.0
aF0.0
aF0.0
aaa(lp3922
I0
aI0
aF0.0
aF0.0
aF0.0
a(lp3923
F0.0
aF0.0
aF0.0
aF0.0
aF0.0
aaa(lp3924
I0
aI0
aF0.0
aF0.0
aF0.0
a(lp3925
F0.0
aF0.0
aF0.0
aF0.0
aF0.0
aaa(lp3926
I0
aI0
aF0.0
aF0.0
aF0.0
a(lp3927
F0.0
aF0.0
aF0.0
aF0.0
aF0.0
aaa(lp3928
I0
aI0
aF0.0
aF0.0
aF0.0
a(lp3929
F0.0
aF0.0
aF0.0
aF0.0
aF0.0
aaa(lp3930
I0
aI0
aF0.0
aF0.0
aF0.0
a(lp3931
F0.0
aF0.0
aF0.0
aF0.0
aF0.0
aaa(lp3932
I0
aI0
aF0.0
aF0.0
aF0.0
a(lp3933
F0.0
aF0.0
aF0.0
aF0.0
aF0.0
aaa(lp3934
I0
aI0
aF0.0
aF0.0
aF0.0
a(lp3935
F0.0
aF0.0
aF0.0
aF0.0
aF0.0
aaa(lp3936
I0
aI0
aF0.0
aF0.0
aF0.0
a(lp3937
F0.0
aF0.0
aF0.0
aF0.0
aF0.0
aaa(lp3938
I0
aI0
aF0.0
aF0.0
aF0.0
a(lp3939
F0.0
aF0.0
aF0.0
aF0.0
aF0.0
aaastp3940
Rp3941
(dp3942
g234
(lp3943
g814
ag826
asbssg246
g3328
sg2235
Nsbsg286
g287
sS'globaldepends'
p3944
(lp3945
sS'memvarorder'
p3946
(lp3947
g1968
ag1980
ag1992
ag2001
asg3359
g3499
sbsg2235
g2897
sbsg2236
I1
sg2009
g2010
sg2237
I0
sg2238
(dp3948
g1968
g3106
sg1992
g3114
sg2001
g3119
sg1980
g3325
ssg2240
g2014
sg286
g287
sg2241
I18
sbassS'regionid'
p3949
I0
sS'pop'
p3950
(lp3951
g10
ag2018
ag2242
ag2460
ag2678
ag2897
asS'agentinitorder'
p3952
Nsg286
g287
sbsS'agents'
p3953
(lp3954
g247
ag3328
asS'datatypes'
p3955
(lp3956
(ipoplib
DataType
p3957
(dp3958
S'varorder'
p3959
(lp3960
g240
ag238
ag241
ag239
asg4
g451
sS'vars'
p3961
(dp3962
g238
(dp3963
g3358
g266
sg3359
g3499
ssg239
(dp3964
g3358
g271
sg3359
g3499
ssg240
(dp3965
g3358
g275
sg3359
g3499
ssg241
(dp3966
g3358
g278
sg3359
g3499
sssg3359
g454
sba(ipoplib
DataType
p3967
(dp3968
g3959
(lp3969
g475
ag487
ag499
ag508
ag520
ag532
ag544
ag556
ag568
ag580
ag592
ag604
asg4
g610
sg3961
(dp3970
g592
(dp3971
g3358
g589
sg3359
g595
ssg568
(dp3972
g3358
g565
sg3359
g571
ssg475
(dp3973
g3358
g472
sg3359
g478
ssg604
(dp3974
g3358
g601
sg3359
g607
ssg532
(dp3975
g3358
g529
sg3359
g535
ssg487
(dp3976
g3358
g484
sg3359
g490
ssg580
(dp3977
g3358
g577
sg3359
g583
ssg499
(dp3978
g3358
g496
sg3359
g3499
ssg544
(dp3979
g3358
g541
sg3359
g547
ssg520
(dp3980
g3358
g517
sg3359
g523
ssg556
(dp3981
g3358
g553
sg3359
g559
ssg508
(dp3982
g3358
g505
sg3359
g511
sssg3359
g613
sba(ipoplib
DataType
p3983
(dp3984
g3959
(lp3985
g634
ag646
ag658
ag670
ag682
ag694
asg4
g700
sg3961
(dp3986
g682
(dp3987
g3358
g679
sg3359
g685
ssg694
(dp3988
g3358
g691
sg3359
g697
ssg646
(dp3989
g3358
g643
sg3359
g649
ssg670
(dp3990
g3358
g667
sg3359
g673
ssg658
(dp3991
g3358
g655
sg3359
g661
ssg634
(dp3992
g3358
g631
sg3359
g637
sssg3359
g703
sba(ipoplib
DataType
p3993
(dp3994
g3959
(lp3995
g724
ag736
ag748
ag760
ag772
ag784
asg4
g790
sg3961
(dp3996
g784
(dp3997
g3358
g781
sg3359
g787
ssg772
(dp3998
g3358
g769
sg3359
g775
ssg736
(dp3999
g3358
g733
sg3359
g739
ssg760
(dp4000
g3358
g757
sg3359
g763
ssg748
(dp4001
g3358
g745
sg3359
g751
ssg724
(dp4002
g3358
g721
sg3359
g727
sssg3359
g793
sba(ipoplib
DataType
p4003
(dp4004
g3959
(lp4005
g814
ag826
asg4
g832
sg3961
(dp4006
g814
(dp4007
g3358
g811
sg3359
g817
ssg826
(dp4008
g3358
g823
sg3359
g829
sssg3359
g835
sba(ipoplib
DataType
p4009
(dp4010
g3959
(lp4011
g26
ag230
ag27
ag28
asg4
g894
sg3961
(dp4012
g26
(dp4013
g3358
g853
sg3359
g858
ssg27
(dp4014
g3358
g875
sg3359
g880
ssg28
(dp4015
g3358
g886
sg3359
g891
ssg230
(dp4016
g3358
g864
sg3359
g869
sssg3359
g897
sba(ipoplib
DataType
p4017
(dp4018
g3959
(lp4019
g918
ag930
ag942
ag954
asg4
g960
sg3961
(dp4020
g942
(dp4021
g3358
g939
sg3359
g945
ssg930
(dp4022
g3358
g927
sg3359
g933
ssg954
(dp4023
g3358
g951
sg3359
g957
ssg918
(dp4024
g3358
g915
sg3359
g921
sssg3359
g963
sbasS'constants'
p4025
(lp4026
(ipoplib
Constant
p4027
(dp4028
S'value'
p4029
g268
sg4
g983
sS'ctype'
p4030
g980
sg3359
g986
sba(ipoplib
Constant
p4031
(dp4032
g4029
g268
sg4
g995
sg4030
g992
sg3359
g998
sba(ipoplib
Constant
p4033
(dp4034
g4029
g268
sg4
g1007
sg4030
g1004
sg3359
g1010
sbasbsg3358
g258
sg3359
g3499
sba(ipoplib
MemVar
p4035
(dp4036
g256
I0
sg257
g1630
sg4
g21
sg259
Nsg246
g247
sg260
I0
sg261
(dp4037
g26
(ipoplib
BaseForm
p4038
(dp4039
g265
g853
sg259
g4035
sg267
S'100'
p4040
sbsg27
(ipoplib
BaseForm
p4041
(dp4042
g265
g875
sg259
g4035
sg267
S'rand(1,100)'
p4043
sbsg28
(ipoplib
MemVar
p4044
(dp4045
g256
I1
sg257
g886
sg4
Vruletable
p4046
sg259
g4035
sg246
g247
sg260
V100
p4047
sg261
(dp4048
g760
(ipoplib
BaseForm
p4049
(dp4050
g265
g757
sg259
g4044
sg267
S'0.0'
p4051
sbsg784
(ipoplib
MemVar
p4052
(dp4053
g256
I1
sg257
g781
sg4
Vparameters
p4054
sg259
g4044
sg246
g247
sg260
g3349
sg261
(dp4055
g3351
(ipoplib
BaseFormStatic
p4056
(dp4057
g265
g292
sg259
g4052
sg267
g268
sbsg4054
(ipoplib
BaseForm
p4058
(dp4059
g265
g781
sg259
g4052
sg267
g268
sbssg279
g784
sg280
(dp4060
Vparameters
p4061
g268
ssg286
g287
sg3358
g781
sg3359
g3360
sbsg772
(ipoplib
BaseForm
p4062
(dp4063
g265
g769
sg259
g4044
sg267
S'0.01'
p4064
sbsg736
(ipoplib
BaseForm
p4065
(dp4066
g265
g733
sg259
g4044
sg267
S'0.0'
p4067
sbsg3351
(ipoplib
BaseFormStatic
p4068
(dp4069
g265
g292
sg259
g4044
sg267
S'100'
p4070
sbsg748
(ipoplib
BaseForm
p4071
(dp4072
g265
g745
sg259
g4044
sg267
S'0.0'
p4073
sbsg724
(ipoplib
BaseForm
p4074
(dp4075
g265
g721
sg259
g4044
sg267
S'sequence(0,99,1)'
p4076
sbssg279
g28
sg280
(dp4077
Vavg_performance
p4078
S'0.0'
p4079
sVattraction
p4080
S'0.0'
p4081
sVchoiceprob
p4082
S'0.01'
p4083
sVid
p4084
S'sequence(0,99,1)'
p4085
sVmy_performance
p4086
S'0.0'
p4087
ssg286
g287
sg3358
g886
sg3359
g3360
sbsg230
(ipoplib
BaseForm
p4088
(dp4089
g265
g864
sg259
g4035
sg267
S'0.0'
p4090
sbssg279
g21
sg280
(dp4091
Vnr_rules
p4092
S'100'
p4093
sVcurrent_rule
p4094
S'rand(1,100)'
p4095
sVexperience
p4096
S'0.0'
p4097
ssg286
g287
sg3358
g1630
sg3359
g3499
sbasg3512
(lp4098
sg3514
(ipoplib
MemVarRegistry
p4099
(dp4100
g16
(dp4101
sg18
I1
sg19
(dp4102
g21
g22
(g23
g24
(dp4103
g26
I100
sg27
I65
sg28
(lp4104
(lp4105
I0
aF0.0
aF0.0
aF0.0
aF0.01
a(lp4106
F0.0
aF0.0
aF0.0
aF0.0
aF0.0
aaa(lp4107
I1
aF0.0
aF0.0
aF0.0
aF0.01
a(lp4108
F0.0
aF0.0
aF0.0
aF0.0
aF0.0
aaa(lp4109
I2
aF0.0
aF0.0
aF0.0
aF0.01
a(lp4110
F0.0
aF0.0
aF0.0
aF0.0
aF0.0
aaa(lp4111
I3
aF0.0
aF0.0
aF0.0
aF0.01
a(lp4112
F0.0
aF0.0
aF0.0
aF0.0
aF0.0
aaa(lp4113
I4
aF0.0
aF0.0
aF0.0
aF0.01
a(lp4114
F0.0
aF0.0
aF0.0
aF0.0
aF0.0
aaa(lp4115
I5
aF0.0
aF0.0
aF0.0
aF0.01
a(lp4116
F0.0
aF0.0
aF0.0
aF0.0
aF0.0
aaa(lp4117
I6
aF0.0
aF0.0
aF0.0
aF0.01
a(lp4118
F0.0
aF0.0
aF0.0
aF0.0
aF0.0
aaa(lp4119
I7
aF0.0
aF0.0
aF0.0
aF0.01
a(lp4120
F0.0
aF0.0
aF0.0
aF0.0
aF0.0
aaa(lp4121
I8
aF0.0
aF0.0
aF0.0
aF0.01
a(lp4122
F0.0
aF0.0
aF0.0
aF0.0
aF0.0
aaa(lp4123
I9
aF0.0
aF0.0
aF0.0
aF0.01
a(lp4124
F0.0
aF0.0
aF0.0
aF0.0
aF0.0
aaa(lp4125
I10
aF0.0
aF0.0
aF0.0
aF0.01
a(lp4126
F0.0
aF0.0
aF0.0
aF0.0
aF0.0
aaa(lp4127
I11
aF0.0
aF0.0
aF0.0
aF0.01
a(lp4128
F0.0
aF0.0
aF0.0
aF0.0
aF0.0
aaa(lp4129
I12
aF0.0
aF0.0
aF0.0
aF0.01
a(lp4130
F0.0
aF0.0
aF0.0
aF0.0
aF0.0
aaa(lp4131
I13
aF0.0
aF0.0
aF0.0
aF0.01
a(lp4132
F0.0
aF0.0
aF0.0
aF0.0
aF0.0
aaa(lp4133
I14
aF0.0
aF0.0
aF0.0
aF0.01
a(lp4134
F0.0
aF0.0
aF0.0
aF0.0
aF0.0
aaa(lp4135
I15
aF0.0
aF0.0
aF0.0
aF0.01
a(lp4136
F0.0
aF0.0
aF0.0
aF0.0
aF0.0
aaa(lp4137
I16
aF0.0
aF0.0
aF0.0
aF0.01
a(lp4138
F0.0
aF0.0
aF0.0
aF0.0
aF0.0
aaa(lp4139
I17
aF0.0
aF0.0
aF0.0
aF0.01
a(lp4140
F0.0
aF0.0
aF0.0
aF0.0
aF0.0
aaa(lp4141
I18
aF0.0
aF0.0
aF0.0
aF0.01
a(lp4142
F0.0
aF0.0
aF0.0
aF0.0
aF0.0
aaa(lp4143
I19
aF0.0
aF0.0
aF0.0
aF0.01
a(lp4144
F0.0
aF0.0
aF0.0
aF0.0
aF0.0
aaa(lp4145
I20
aF0.0
aF0.0
aF0.0
aF0.01
a(lp4146
F0.0
aF0.0
aF0.0
aF0.0
aF0.0
aaa(lp4147
I21
aF0.0
aF0.0
aF0.0
aF0.01
a(lp4148
F0.0
aF0.0
aF0.0
aF0.0
aF0.0
aaa(lp4149
I22
aF0.0
aF0.0
aF0.0
aF0.01
a(lp4150
F0.0
aF0.0
aF0.0
aF0.0
aF0.0
aaa(lp4151
I23
aF0.0
aF0.0
aF0.0
aF0.01
a(lp4152
F0.0
aF0.0
aF0.0
aF0.0
aF0.0
aaa(lp4153
I24
aF0.0
aF0.0
aF0.0
aF0.01
a(lp4154
F0.0
aF0.0
aF0.0
aF0.0
aF0.0
aaa(lp4155
I25
aF0.0
aF0.0
aF0.0
aF0.01
a(lp4156
F0.0
aF0.0
aF0.0
aF0.0
aF0.0
aaa(lp4157
I26
aF0.0
aF0.0
aF0.0
aF0.01
a(lp4158
F0.0
aF0.0
aF0.0
aF0.0
aF0.0
aaa(lp4159
I27
aF0.0
aF0.0
aF0.0
aF0.01
a(lp4160
F0.0
aF0.0
aF0.0
aF0.0
aF0.0
aaa(lp4161
I28
aF0.0
aF0.0
aF0.0
aF0.01
a(lp4162
F0.0
aF0.0
aF0.0
aF0.0
aF0.0
aaa(lp4163
I29
aF0.0
aF0.0
aF0.0
aF0.01
a(lp4164
F0.0
aF0.0
aF0.0
aF0.0
aF0.0
aaa(lp4165
I30
aF0.0
aF0.0
aF0.0
aF0.01
a(lp4166
F0.0
aF0.0
aF0.0
aF0.0
aF0.0
aaa(lp4167
I31
aF0.0
aF0.0
aF0.0
aF0.01
a(lp4168
F0.0
aF0.0
aF0.0
aF0.0
aF0.0
aaa(lp4169
I32
aF0.0
aF0.0
aF0.0
aF0.01
a(lp4170
F0.0
aF0.0
aF0.0
aF0.0
aF0.0
aaa(lp4171
I33
aF0.0
aF0.0
aF0.0
aF0.01
a(lp4172
F0.0
aF0.0
aF0.0
aF0.0
aF0.0
aaa(lp4173
I34
aF0.0
aF0.0
aF0.0
aF0.01
a(lp4174
F0.0
aF0.0
aF0.0
aF0.0
aF0.0
aaa(lp4175
I35
aF0.0
aF0.0
aF0.0
aF0.01
a(lp4176
F0.0
aF0.0
aF0.0
aF0.0
aF0.0
aaa(lp4177
I36
aF0.0
aF0.0
aF0.0
aF0.01
a(lp4178
F0.0
aF0.0
aF0.0
aF0.0
aF0.0
aaa(lp4179
I37
aF0.0
aF0.0
aF0.0
aF0.01
a(lp4180
F0.0
aF0.0
aF0.0
aF0.0
aF0.0
aaa(lp4181
I38
aF0.0
aF0.0
aF0.0
aF0.01
a(lp4182
F0.0
aF0.0
aF0.0
aF0.0
aF0.0
aaa(lp4183
I39
aF0.0
aF0.0
aF0.0
aF0.01
a(lp4184
F0.0
aF0.0
aF0.0
aF0.0
aF0.0
aaa(lp4185
I40
aF0.0
aF0.0
aF0.0
aF0.01
a(lp4186
F0.0
aF0.0
aF0.0
aF0.0
aF0.0
aaa(lp4187
I41
aF0.0
aF0.0
aF0.0
aF0.01
a(lp4188
F0.0
aF0.0
aF0.0
aF0.0
aF0.0
aaa(lp4189
I42
aF0.0
aF0.0
aF0.0
aF0.01
a(lp4190
F0.0
aF0.0
aF0.0
aF0.0
aF0.0
aaa(lp4191
I43
aF0.0
aF0.0
aF0.0
aF0.01
a(lp4192
F0.0
aF0.0
aF0.0
aF0.0
aF0.0
aaa(lp4193
I44
aF0.0
aF0.0
aF0.0
aF0.01
a(lp4194
F0.0
aF0.0
aF0.0
aF0.0
aF0.0
aaa(lp4195
I45
aF0.0
aF0.0
aF0.0
aF0.01
a(lp4196
F0.0
aF0.0
aF0.0
aF0.0
aF0.0
aaa(lp4197
I46
aF0.0
aF0.0
aF0.0
aF0.01
a(lp4198
F0.0
aF0.0
aF0.0
aF0.0
aF0.0
aaa(lp4199
I47
aF0.0
aF0.0
aF0.0
aF0.01
a(lp4200
F0.0
aF0.0
aF0.0
aF0.0
aF0.0
aaa(lp4201
I48
aF0.0
aF0.0
aF0.0
aF0.01
a(lp4202
F0.0
aF0.0
aF0.0
aF0.0
aF0.0
aaa(lp4203
I49
aF0.0
aF0.0
aF0.0
aF0.01
a(lp4204
F0.0
aF0.0
aF0.0
aF0.0
aF0.0
aaa(lp4205
I50
aF0.0
aF0.0
aF0.0
aF0.01
a(lp4206
F0.0
aF0.0
aF0.0
aF0.0
aF0.0
aaa(lp4207
I51
aF0.0
aF0.0
aF0.0
aF0.01
a(lp4208
F0.0
aF0.0
aF0.0
aF0.0
aF0.0
aaa(lp4209
I52
aF0.0
aF0.0
aF0.0
aF0.01
a(lp4210
F0.0
aF0.0
aF0.0
aF0.0
aF0.0
aaa(lp4211
I53
aF0.0
aF0.0
aF0.0
aF0.01
a(lp4212
F0.0
aF0.0
aF0.0
aF0.0
aF0.0
aaa(lp4213
I54
aF0.0
aF0.0
aF0.0
aF0.01
a(lp4214
F0.0
aF0.0
aF0.0
aF0.0
aF0.0
aaa(lp4215
I55
aF0.0
aF0.0
aF0.0
aF0.01
a(lp4216
F0.0
aF0.0
aF0.0
aF0.0
aF0.0
aaa(lp4217
I56
aF0.0
aF0.0
aF0.0
aF0.01
a(lp4218
F0.0
aF0.0
aF0.0
aF0.0
aF0.0
aaa(lp4219
I57
aF0.0
aF0.0
aF0.0
aF0.01
a(lp4220
F0.0
aF0.0
aF0.0
aF0.0
aF0.0
aaa(lp4221
I58
aF0.0
aF0.0
aF0.0
aF0.01
a(lp4222
F0.0
aF0.0
aF0.0
aF0.0
aF0.0
aaa(lp4223
I59
aF0.0
aF0.0
aF0.0
aF0.01
a(lp4224
F0.0
aF0.0
aF0.0
aF0.0
aF0.0
aaa(lp4225
I60
aF0.0
aF0.0
aF0.0
aF0.01
a(lp4226
F0.0
aF0.0
aF0.0
aF0.0
aF0.0
aaa(lp4227
I61
aF0.0
aF0.0
aF0.0
aF0.01
a(lp4228
F0.0
aF0.0
aF0.0
aF0.0
aF0.0
aaa(lp4229
I62
aF0.0
aF0.0
aF0.0
aF0.01
a(lp4230
F0.0
aF0.0
aF0.0
aF0.0
aF0.0
aaa(lp4231
I63
aF0.0
aF0.0
aF0.0
aF0.01
a(lp4232
F0.0
aF0.0
aF0.0
aF0.0
aF0.0
aaa(lp4233
I64
aF0.0
aF0.0
aF0.0
aF0.01
a(lp4234
F0.0
aF0.0
aF0.0
aF0.0
aF0.0
aaa(lp4235
I65
aF0.0
aF0.0
aF0.0
aF0.01
a(lp4236
F0.0
aF0.0
aF0.0
aF0.0
aF0.0
aaa(lp4237
I66
aF0.0
aF0.0
aF0.0
aF0.01
a(lp4238
F0.0
aF0.0
aF0.0
aF0.0
aF0.0
aaa(lp4239
I67
aF0.0
aF0.0
aF0.0
aF0.01
a(lp4240
F0.0
aF0.0
aF0.0
aF0.0
aF0.0
aaa(lp4241
I68
aF0.0
aF0.0
aF0.0
aF0.01
a(lp4242
F0.0
aF0.0
aF0.0
aF0.0
aF0.0
aaa(lp4243
I69
aF0.0
aF0.0
aF0.0
aF0.01
a(lp4244
F0.0
aF0.0
aF0.0
aF0.0
aF0.0
aaa(lp4245
I70
aF0.0
aF0.0
aF0.0
aF0.01
a(lp4246
F0.0
aF0.0
aF0.0
aF0.0
aF0.0
aaa(lp4247
I71
aF0.0
aF0.0
aF0.0
aF0.01
a(lp4248
F0.0
aF0.0
aF0.0
aF0.0
aF0.0
aaa(lp4249
I72
aF0.0
aF0.0
aF0.0
aF0.01
a(lp4250
F0.0
aF0.0
aF0.0
aF0.0
aF0.0
aaa(lp4251
I73
aF0.0
aF0.0
aF0.0
aF0.01
a(lp4252
F0.0
aF0.0
aF0.0
aF0.0
aF0.0
aaa(lp4253
I74
aF0.0
aF0.0
aF0.0
aF0.01
a(lp4254
F0.0
aF0.0
aF0.0
aF0.0
aF0.0
aaa(lp4255
I75
aF0.0
aF0.0
aF0.0
aF0.01
a(lp4256
F0.0
aF0.0
aF0.0
aF0.0
aF0.0
aaa(lp4257
I76
aF0.0
aF0.0
aF0.0
aF0.01
a(lp4258
F0.0
aF0.0
aF0.0
aF0.0
aF0.0
aaa(lp4259
I77
aF0.0
aF0.0
aF0.0
aF0.01
a(lp4260
F0.0
aF0.0
aF0.0
aF0.0
aF0.0
aaa(lp4261
I78
aF0.0
aF0.0
aF0.0
aF0.01
a(lp4262
F0.0
aF0.0
aF0.0
aF0.0
aF0.0
aaa(lp4263
I79
aF0.0
aF0.0
aF0.0
aF0.01
a(lp4264
F0.0
aF0.0
aF0.0
aF0.0
aF0.0
aaa(lp4265
I80
aF0.0
aF0.0
aF0.0
aF0.01
a(lp4266
F0.0
aF0.0
aF0.0
aF0.0
aF0.0
aaa(lp4267
I81
aF0.0
aF0.0
aF0.0
aF0.01
a(lp4268
F0.0
aF0.0
aF0.0
aF0.0
aF0.0
aaa(lp4269
I82
aF0.0
aF0.0
aF0.0
aF0.01
a(lp4270
F0.0
aF0.0
aF0.0
aF0.0
aF0.0
aaa(lp4271
I83
aF0.0
aF0.0
aF0.0
aF0.01
a(lp4272
F0.0
aF0.0
aF0.0
aF0.0
aF0.0
aaa(lp4273
I84
aF0.0
aF0.0
aF0.0
aF0.01
a(lp4274
F0.0
aF0.0
aF0.0
aF0.0
aF0.0
aaa(lp4275
I85
aF0.0
aF0.0
aF0.0
aF0.01
a(lp4276
F0.0
aF0.0
aF0.0
aF0.0
aF0.0
aaa(lp4277
I86
aF0.0
aF0.0
aF0.0
aF0.01
a(lp4278
F0.0
aF0.0
aF0.0
aF0.0
aF0.0
aaa(lp4279
I87
aF0.0
aF0.0
aF0.0
aF0.01
a(lp4280
F0.0
aF0.0
aF0.0
aF0.0
aF0.0
aaa(lp4281
I88
aF0.0
aF0.0
aF0.0
aF0.01
a(lp4282
F0.0
aF0.0
aF0.0
aF0.0
aF0.0
aaa(lp4283
I89
aF0.0
aF0.0
aF0.0
aF0.01
a(lp4284
F0.0
aF0.0
aF0.0
aF0.0
aF0.0
aaa(lp4285
I90
aF0.0
aF0.0
aF0.0
aF0.01
a(lp4286
F0.0
aF0.0
aF0.0
aF0.0
aF0.0
aaa(lp4287
I91
aF0.0
aF0.0
aF0.0
aF0.01
a(lp4288
F0.0
aF0.0
aF0.0
aF0.0
aF0.0
aaa(lp4289
I92
aF0.0
aF0.0
aF0.0
aF0.01
a(lp4290
F0.0
aF0.0
aF0.0
aF0.0
aF0.0
aaa(lp4291
I93
aF0.0
aF0.0
aF0.0
aF0.01
a(lp4292
F0.0
aF0.0
aF0.0
aF0.0
aF0.0
aaa(lp4293
I94
aF0.0
aF0.0
aF0.0
aF0.01
a(lp4294
F0.0
aF0.0
aF0.0
aF0.0
aF0.0
aaa(lp4295
I95
aF0.0
aF0.0
aF0.0
aF0.01
a(lp4296
F0.0
aF0.0
aF0.0
aF0.0
aF0.0
aaa(lp4297
I96
aF0.0
aF0.0
aF0.0
aF0.01
a(lp4298
F0.0
aF0.0
aF0.0
aF0.0
aF0.0
aaa(lp4299
I97
aF0.0
aF0.0
aF0.0
aF0.01
a(lp4300
F0.0
aF0.0
aF0.0
aF0.0
aF0.0
aaa(lp4301
I98
aF0.0
aF0.0
aF0.0
aF0.01
a(lp4302
F0.0
aF0.0
aF0.0
aF0.0
aF0.0
aaa(lp4303
I99
aF0.0
aF0.0
aF0.0
aF0.01
a(lp4304
F0.0
aF0.0
aF0.0
aF0.0
aF0.0
aaasg230
F0.0
stp4305
Rp4306
(dp4307
g234
(lp4308
g26
ag230
ag27
ag28
asbsg236
g22
(g23
g24
(dp4309
g238
F0.0
sg239
F1.0
sg240
F1.0
sg241
F1.0
stp4310
Rp4311
(dp4312
g234
(lp4313
g240
ag238
ag241
ag239
asbssg246
g247
sg2235
Nsbsg286
g287
sg3944
(lp4314
sg3946
(lp4315
g236
ag21
asg3359
g3499
sbsg2235
g10
sbsg2236
I1
sg2009
g2010
sg2237
I0
sg2238
(dp4316
g21
g232
sg236
g243
ssg2240
g8
sg286
g287
sg2241
I13
sbag2018
ag2242
ag2460
ag2678
asg2014
(lp4317
g2897
assS'numregions'
p4318
I1
sS'regions'
p4319
(lp4320
g2010
asS'state'
p4321
S'newpop'
p4322
sS'version'
p4323
S'0.2.3'
p4324
sS'agentIDcounter'
p4325
I19
sS'cancel'
p4326
I0
sg286
(ipoplib
Model
p4327
(dp4328
g289
(dp4329
g291
g292
sg4
VFinancial Market Model - EWA learning module
p4330
sg294
(ipoplib
MultiDict
p4331
(dp4332
g297
I0
sg298
(dp4333
Vxmodel
p4334
(lp4335
(ipoplib
MultiDict
p4336
(dp4337
g297
I0
sg298
(dp4338
Venvironment
p4339
(lp4340
(ipoplib
MultiDict
p4341
(dp4342
g297
I0
sg298
(dp4343
Vfunctionfiles
p4344
(lp4345
(ipoplib
MultiDict
p4346
(dp4347
g297
I0
sg298
(dp4348
N(lp4349
V<file>Household_aux_functions.c</file>
p4350
asVfile
p4351
(lp4352
VHousehold_ewa_functions.c
p4353
aVFinancialAgent_ewa_functions.c
p4354
aVFinancialAgent_aux_functions.c
p4355
aVsome_new_functions.c
p4356
assbasVtimeunits
p4357
(lp4358
(ipoplib
MultiDict
p4359
(dp4360
g297
I0
sg298
(dp4361
Vtimeunit
p4362
(lp4363
(ipoplib
MultiDict
p4364
(dp4365
g297
I0
sg298
(dp4366
Vname
p4367
(lp4368
Vdaily
p4369
asVunit
p4370
(lp4371
Viteration
p4372
asVperiod
p4373
(lp4374
V1
p4375
assba(ipoplib
MultiDict
p4376
(dp4377
g297
I0
sg298
(dp4378
Vname
p4379
(lp4380
Vweekly
p4381
asVunit
p4382
(lp4383
Vdaily
p4384
asVperiod
p4385
(lp4386
V5
p4387
assba(ipoplib
MultiDict
p4388
(dp4389
g297
I0
sg298
(dp4390
Vname
p4391
(lp4392
Vmonthly
p4393
asVunit
p4394
(lp4395
Vweekly
p4396
asVperiod
p4397
(lp4398
V4
p4399
assba(ipoplib
MultiDict
p4400
(dp4401
g297
I0
sg298
(dp4402
Vname
p4403
(lp4404
Vquarterly
p4405
asVunit
p4406
(lp4407
Vmonthly
p4408
asVperiod
p4409
(lp4410
V3
p4411
assba(ipoplib
MultiDict
p4412
(dp4413
g297
I0
sg298
(dp4414
Vname
p4415
(lp4416
Vyearly
p4417
asVunit
p4418
(lp4419
Vmonthly
p4420
asVperiod
p4421
(lp4422
V12
p4423
assba(ipoplib
MultiDict
p4424
(dp4425
g297
I0
sg298
(dp4426
Vname
p4427
(lp4428
Vmillionyearly
p4429
asVunit
p4430
(lp4431
Vyearly
p4432
asVperiod
p4433
(lp4434
V1000000
p4435
assbassbasVdatatypes
p4436
(lp4437
(ipoplib
MultiDict
p4438
(dp4439
g297
I0
sg298
(dp4440
Vdatatype
p4441
(lp4442
(ipoplib
MultiDict
p4443
(dp4444
g297
I0
sg298
(dp4445
N(lp4446
V***************************** Struct for the EWA Parameters *****************************
p4447
asVvariables
p4448
(lp4449
(ipoplib
MultiDict
p4450
(dp4451
g297
I0
sg298
(dp4452
Vvariable
p4453
(lp4454
(ipoplib
MultiDict
p4455
(dp4456
g297
I0
sg298
(dp4457
Vtype
p4458
(lp4459
Vdouble
p4460
asVname
p4461
(lp4462
g284
assba(ipoplib
MultiDict
p4463
(dp4464
g297
I0
sg298
(dp4465
Vtype
p4466
(lp4467
Vdouble
p4468
asVname
p4469
(lp4470
g283
assba(ipoplib
MultiDict
p4471
(dp4472
g297
I0
sg298
(dp4473
Vtype
p4474
(lp4475
Vdouble
p4476
asVname
p4477
(lp4478
g285
assba(ipoplib
MultiDict
p4479
(dp4480
g297
I0
sg298
(dp4481
Vtype
p4482
(lp4483
Vdouble
p4484
asVname
p4485
(lp4486
g282
assbassbasVname
p4487
(lp4488
VEWAParameterStruct
p4489
asVdescription
p4490
(lp4491
VStruct for the EWA Parameters
p4492
assba(ipoplib
MultiDict
p4493
(dp4494
g297
I0
sg298
(dp4495
N(lp4496
V***************************** Struct for the GA Parameters *****************************
p4497
asVvariables
p4498
(lp4499
(ipoplib
MultiDict
p4500
(dp4501
g297
I0
sg298
(dp4502
Vvariable
p4503
(lp4504
(ipoplib
MultiDict
p4505
(dp4506
g297
I0
sg298
(dp4507
Vtype
p4508
(lp4509
Vdouble
p4510
asVname
p4511
(lp4512
g3486
asVdescription
p4513
(lp4514
VCrossover probability
p4515
assba(ipoplib
MultiDict
p4516
(dp4517
g297
I0
sg298
(dp4518
Vtype
p4519
(lp4520
Vdouble
p4521
asVname
p4522
(lp4523
g3489
asVdescription
p4524
(lp4525
VMutation probability
p4526
assba(ipoplib
MultiDict
p4527
(dp4528
g297
I0
sg298
(dp4529
Vtype
p4530
(lp4531
Vint
p4532
asVname
p4533
(lp4534
g3493
assba(ipoplib
MultiDict
p4535
(dp4536
g297
I0
sg298
(dp4537
Vtype
p4538
(lp4539
Vint
p4540
asVname
p4541
(lp4542
g3497
asVdescription
p4543
(lp4544
VSize of the rule population
p4545
assba(ipoplib
MultiDict
p4546
(dp4547
g297
I0
sg298
(dp4548
Vtype
p4549
(lp4550
Vdouble
p4551
asVname
p4552
(lp4553
g3491
asVdescription
p4554
(lp4555
VProportion of population that reproduces
p4556
assba(ipoplib
MultiDict
p4557
(dp4558
g297
I0
sg298
(dp4559
Vtype
p4560
(lp4561
Vint
p4562
asVname
p4563
(lp4564
g3488
asVdescription
p4565
(lp4566
VDummy for single-point crossover operator (1: use single-point; 0: use 2-point cross-over)
p4567
assba(ipoplib
MultiDict
p4568
(dp4569
g297
I0
sg298
(dp4570
Vtype
p4571
(lp4572
Vint
p4573
asVname
p4574
(lp4575
g3494
asVdescription
p4576
(lp4577
VDummy for election operator
p4578
assba(ipoplib
MultiDict
p4579
(dp4580
g297
I0
sg298
(dp4581
Vtype
p4582
(lp4583
Vdouble
p4584
asVname
p4585
(lp4586
Vstepsize[5]
p4587
asVdescription
p4588
(lp4589
VMutation stepsize for each parameter
p4590
assba(ipoplib
MultiDict
p4591
(dp4592
g297
I0
sg298
(dp4593
Vtype
p4594
(lp4595
Vint
p4596
asVname
p4597
(lp4598
g3484
asVdescription
p4599
(lp4600
VLower bound on number of units to mutate inside the mutation range: delta_min can be negative or positive.
p4601
assba(ipoplib
MultiDict
p4602
(dp4603
g297
I0
sg298
(dp4604
Vtype
p4605
(lp4606
Vint
p4607
asVname
p4608
(lp4609
g3495
asVdescription
p4610
(lp4611
VUpper bound on number of units to mutate inside the mutation range: delta_max should be positive.
p4612
assba(ipoplib
MultiDict
p4613
(dp4614
g297
I0
sg298
(dp4615
Vtype
p4616
(lp4617
Vdouble
p4618
asVname
p4619
(lp4620
Vmin_values[5]
p4621
asVdescription
p4622
(lp4623
VMinimum values for each parameter
p4624
assba(ipoplib
MultiDict
p4625
(dp4626
g297
I0
sg298
(dp4627
Vtype
p4628
(lp4629
Vdouble
p4630
asVname
p4631
(lp4632
Vmax_values[5]
p4633
asVdescription
p4634
(lp4635
VMaximum values for each parameter
p4636
assbassbasVname
p4637
(lp4638
VGAParameterStruct
p4639
asVdescription
p4640
(lp4641
VStruct for the GA Parameters
p4642
assba(ipoplib
MultiDict
p4643
(dp4644
g297
I0
sg298
(dp4645
N(lp4646
V***************************** Struct for the PublicClassifierRule *****************************
p4647
asVvariables
p4648
(lp4649
(ipoplib
MultiDict
p4650
(dp4651
g297
I0
sg298
(dp4652
Vvariable
p4653
(lp4654
(ipoplib
MultiDict
p4655
(dp4656
g297
I0
sg298
(dp4657
Vtype
p4658
(lp4659
Vint
p4660
asVname
p4661
(lp4662
g3381
asVdescription
p4663
(lp4664
Vid for the rule
p4665
assba(ipoplib
MultiDict
p4666
(dp4667
g297
I0
sg298
(dp4668
Vtype
p4669
(lp4670
Vint
p4671
asVname
p4672
(lp4673
g3380
asVdescription
p4674
(lp4675
VUser counter for each rule
p4676
assba(ipoplib
MultiDict
p4677
(dp4678
g297
I0
sg298
(dp4679
Vtype
p4680
(lp4681
Vdouble
p4682
asVname
p4683
(lp4684
g3378
asVdescription
p4685
(lp4686
VTotal performance for each rule
p4687
assba(ipoplib
MultiDict
p4688
(dp4689
g297
I0
sg298
(dp4690
Vtype
p4691
(lp4692
Vdouble
p4693
asVname
p4694
(lp4695
g3376
asVdescription
p4696
(lp4697
VAverage performance for each rule (=total performance/counter)
p4698
assba(ipoplib
MultiDict
p4699
(dp4700
g297
I0
sg298
(dp4701
Vtype
p4702
(lp4703
Vdouble
p4704
asVname
p4705
(lp4706
g3383
asVdescription
p4707
(lp4708
VSelection probability for the rule
p4709
assba(ipoplib
MultiDict
p4710
(dp4711
g297
I0
sg298
(dp4712
Vtype
p4713
(lp4714
Vdouble
p4715
asVname
p4716
(lp4717
Vparameters[5]
p4718
asVdescription
p4719
(lp4720
VParameter values encoding the rule
p4721
assbassbasVname
p4722
(lp4723
VPublicClassifierRule
p4724
asVdescription
p4725
(lp4726
VDatatype for the central classifier system. The system is a dynamic array of PublicClassifierRules !Subject to change!
p4727
assba(ipoplib
MultiDict
p4728
(dp4729
g297
I0
sg298
(dp4730
N(lp4731
V***************************** Struct for the Private Classifier Rule *****************************
p4732
asVvariables
p4733
(lp4734
(ipoplib
MultiDict
p4735
(dp4736
g297
I0
sg298
(dp4737
Vvariable
p4738
(lp4739
(ipoplib
MultiDict
p4740
(dp4741
g297
I0
sg298
(dp4742
Vtype
p4743
(lp4744
Vint
p4745
asVname
p4746
(lp4747
g4084
asVdescription
p4748
(lp4749
Vid for each rule
p4750
assba(ipoplib
MultiDict
p4751
(dp4752
g297
I0
sg298
(dp4753
Vtype
p4754
(lp4755
Vdouble
p4756
asVname
p4757
(lp4758
g4086
asVdescription
p4759
(lp4760
VAgent performance with current_rule (0.0 if this rule is not currently used)
p4761
assba(ipoplib
MultiDict
p4762
(dp4763
g297
I0
sg298
(dp4764
Vtype
p4765
(lp4766
Vdouble
p4767
asVname
p4768
(lp4769
g4078
asVdescription
p4770
(lp4771
VAverage performance for this rule across population (copied from Central CS)
p4772
assba(ipoplib
MultiDict
p4773
(dp4774
g297
I0
sg298
(dp4775
Vtype
p4776
(lp4777
Vdouble
p4778
asVname
p4779
(lp4780
g4080
asVdescription
p4781
(lp4782
VAgent attractions
p4783
assba(ipoplib
MultiDict
p4784
(dp4785
g297
I0
sg298
(dp4786
Vtype
p4787
(lp4788
Vdouble
p4789
asVname
p4790
(lp4791
g4082
asVdescription
p4792
(lp4793
VAgent choice probabilities
p4794
assba(ipoplib
MultiDict
p4795
(dp4796
g297
I0
sg298
(dp4797
Vtype
p4798
(lp4799
Vdouble
p4800
asVname
p4801
(lp4802
Vparameters[5]
p4803
asVdescription
p4804
(lp4805
VParameter values encoding the rule
p4806
assbassbasVname
p4807
(lp4808
VPrivateClassifierRule
p4809
asVdescription
p4810
(lp4811
VDatatype for the private classifier system inside each agent. The system is a dynamic array of PrivateClassifierRule.  !Subject to change!
p4812
assba(ipoplib
MultiDict
p4813
(dp4814
g297
I0
sg298
(dp4815
N(lp4816
V***************************** Struct for the Simple Public Classifier System *****************************
p4817
asVvariables
p4818
(lp4819
(ipoplib
MultiDict
p4820
(dp4821
g297
I0
sg298
(dp4822
Vvariable
p4823
(lp4824
(ipoplib
MultiDict
p4825
(dp4826
g297
I0
sg298
(dp4827
Vtype
p4828
(lp4829
Vint
p4830
asVname
p4831
(lp4832
g3386
asVdescription
p4833
(lp4834
VTotal number of rules in the rule set
p4835
assba(ipoplib
MultiDict
p4836
(dp4837
g297
I0
sg298
(dp4838
Vtype
p4839
(lp4840
VPublicClassifierRule
p4841
asVname
p4842
(lp4843
Vruletable[100]
p4844
asVdescription
p4845
(lp4846
VStatic array of 100 public classifier rules of homogeneous type
p4847
assbassbasVname
p4848
(lp4849
VSimplePublicClassifierSystem
p4850
asVdescription
p4851
(lp4852
VDatatype for the central classifier system. Simple version allows for rules of the same strategy type (all rules use the same function). !Subject to change!
p4853
assba(ipoplib
MultiDict
p4854
(dp4855
g297
I0
sg298
(dp4856
N(lp4857
V***************************** Struct for the Simple Private Classifier System *****************************
p4858
asVvariables
p4859
(lp4860
(ipoplib
MultiDict
p4861
(dp4862
g297
I0
sg298
(dp4863
Vvariable
p4864
(lp4865
(ipoplib
MultiDict
p4866
(dp4867
g297
I0
sg298
(dp4868
Vtype
p4869
(lp4870
Vint
p4871
asVname
p4872
(lp4873
g4092
asVdescription
p4874
(lp4875
VTotal number of rules in the rule set
p4876
assba(ipoplib
MultiDict
p4877
(dp4878
g297
I0
sg298
(dp4879
Vtype
p4880
(lp4881
Vdouble
p4882
asVname
p4883
(lp4884
g4096
asVdescription
p4885
(lp4886
VExperience variable for EWA learning
p4887
assba(ipoplib
MultiDict
p4888
(dp4889
g297
I0
sg298
(dp4890
Vtype
p4891
(lp4892
Vint
p4893
asVname
p4894
(lp4895
g4094
asVdescription
p4896
(lp4897
VCurrent rule in use by the agent
p4898
assba(ipoplib
MultiDict
p4899
(dp4900
g297
I0
sg298
(dp4901
Vtype
p4902
(lp4903
VPrivateClassifierRule
p4904
asVname
p4905
(lp4906
Vruletable[100]
p4907
asVdescription
p4908
(lp4909
VStatic array of 100 private classifier rules of homogeneous type
p4910
assbassbasVname
p4911
(lp4912
VSimplePrivateClassifierSystem
p4913
asVdescription
p4914
(lp4915
VDatatype for the private classifier system inside each agent. Simple version allows for rules of the same strategy type (all rules use the same function). !Subject to change!
p4916
assba(ipoplib
MultiDict
p4917
(dp4918
g297
I0
sg298
(dp4919
N(lp4920
V***************************** Struct for the Complex Public Classifier System *****************************
p4921
asVvariables
p4922
(lp4923
(ipoplib
MultiDict
p4924
(dp4925
g297
I0
sg298
(dp4926
Vvariable
p4927
(lp4928
(ipoplib
MultiDict
p4929
(dp4930
g297
I0
sg298
(dp4931
Vtype
p4932
(lp4933
Vint
p4934
asVname
p4935
(lp4936
Vnr_types
p4937
asVdescription
p4938
(lp4939
VNumber of subpopulations (different types of rules)
p4940
assba(ipoplib
MultiDict
p4941
(dp4942
g297
I0
sg298
(dp4943
Vtype
p4944
(lp4945
Vint_array
p4946
asVname
p4947
(lp4948
Vnr_rules_per_type
p4949
asVdescription
p4950
(lp4951
VNr_rules_per_type may differ per type: size of subpopulations
p4952
assba(ipoplib
MultiDict
p4953
(dp4954
g297
I0
sg298
(dp4955
Vtype
p4956
(lp4957
Vint
p4958
asVname
p4959
(lp4960
Vnr_rules
p4961
asVdescription
p4962
(lp4963
VTotal number of rules in the rule set
p4964
assba(ipoplib
MultiDict
p4965
(dp4966
g297
I0
sg298
(dp4967
Vtype
p4968
(lp4969
VPublicClassifierRule
p4970
asVname
p4971
(lp4972
Vruletable[100]
p4973
asVdescription
p4974
(lp4975
VStatic array of 100 public classifier rules of heterogenous type
p4976
assbassbasVname
p4977
(lp4978
VComplexPublicClassifierSystem
p4979
asVdescription
p4980
(lp4981
VDatatype for the central classifier system. This complex version allows for heterogeneous rule sets. !Subject to change!
p4982
assbasN(lp4983
V***************************** GA Datastructure *****************************
p4984
assbasN(lp4985
V***************************** EWA Datastructures *****************************
p4986
asVconstants
p4987
(lp4988
(ipoplib
MultiDict
p4989
(dp4990
g297
I0
sg298
(dp4991
Vvariable
p4992
(lp4993
(ipoplib
MultiDict
p4994
(dp4995
g297
I0
sg298
(dp4996
Vtype
p4997
(lp4998
Vint
p4999
asVname
p5000
(lp5001
Vnr_params
p5002
asVdescription
p5003
(lp5004
V10, Number of parameters in a portfolio rule.
p5005
assba(ipoplib
MultiDict
p5006
(dp5007
g297
I0
sg298
(dp5008
Vtype
p5009
(lp5010
Vint
p5011
asVname
p5012
(lp5013
Vprint_debug
p5014
asVdescription
p5015
(lp5016
V0 or 1, Boolean for debugging print statements.
p5017
assba(ipoplib
MultiDict
p5018
(dp5019
g297
I0
sg298
(dp5020
Vtype
p5021
(lp5022
Vint
p5023
asVname
p5024
(lp5025
Vprint_log
p5026
asVdescription
p5027
(lp5028
V0 or 1, A flag to print logging output to terminal or to file.
p5029
assbassbassbasVname
p5030
(lp5031
g4330
asVmodels
p5032
(lp5033
(ipoplib
MultiDict
p5034
(dp5035
g297
I0
sg298
(dp5036
sbasVmessages
p5037
(lp5038
(ipoplib
MultiDict
p5039
(dp5040
g297
I0
sg298
(dp5041
Vmessage
p5042
(lp5043
(ipoplib
MultiDict
p5044
(dp5045
g297
I0
sg298
(dp5046
Vvariables
p5047
(lp5048
(ipoplib
MultiDict
p5049
(dp5050
g297
I0
sg298
(dp5051
Vvariable
p5052
(lp5053
(ipoplib
MultiDict
p5054
(dp5055
g297
I0
sg298
(dp5056
Vtype
p5057
(lp5058
Vint
p5059
asVname
p5060
(lp5061
Vrule_id
p5062
assba(ipoplib
MultiDict
p5063
(dp5064
g297
I0
sg298
(dp5065
Vtype
p5066
(lp5067
Vdouble
p5068
asVname
p5069
(lp5070
Vrule_performance
p5071
assbassbasVname
p5072
(lp5073
Vrule_performance
p5074
assba(ipoplib
MultiDict
p5075
(dp5076
g297
I0
sg298
(dp5077
Vvariables
p5078
(lp5079
(ipoplib
MultiDict
p5080
(dp5081
g297
I0
sg298
(dp5082
Vvariable
p5083
(lp5084
(ipoplib
MultiDict
p5085
(dp5086
g297
I0
sg298
(dp5087
Vtype
p5088
(lp5089
Vint
p5090
asVname
p5091
(lp5092
Vrule_id
p5093
assba(ipoplib
MultiDict
p5094
(dp5095
g297
I0
sg298
(dp5096
Vtype
p5097
(lp5098
Vdouble
p5099
asVname
p5100
(lp5101
Vavg_performance
p5102
assbassbasVname
p5103
(lp5104
Vnew_performances
p5105
assba(ipoplib
MultiDict
p5106
(dp5107
g297
I0
sg298
(dp5108
Vvariables
p5109
(lp5110
(ipoplib
MultiDict
p5111
(dp5112
g297
I0
sg298
(dp5113
Vvariable
p5114
(lp5115
(ipoplib
MultiDict
p5116
(dp5117
g297
I0
sg298
(dp5118
Vtype
p5119
(lp5120
Vint
p5121
asVname
p5122
(lp5123
Vrule_id
p5124
assba(ipoplib
MultiDict
p5125
(dp5126
g297
I0
sg298
(dp5127
Vtype
p5128
(lp5129
Vdouble
p5130
asVname
p5131
(lp5132
Vparameters[5]
p5133
assbassbasVname
p5134
(lp5135
Vinitial_rule_details
p5136
assba(ipoplib
MultiDict
p5137
(dp5138
g297
I0
sg298
(dp5139
Vvariables
p5140
(lp5141
(ipoplib
MultiDict
p5142
(dp5143
g297
I0
sg298
(dp5144
Vvariable
p5145
(lp5146
(ipoplib
MultiDict
p5147
(dp5148
g297
I0
sg298
(dp5149
Vtype
p5150
(lp5151
Vint
p5152
asVname
p5153
(lp5154
Vrule_id
p5155
assba(ipoplib
MultiDict
p5156
(dp5157
g297
I0
sg298
(dp5158
Vtype
p5159
(lp5160
Vdouble
p5161
asVname
p5162
(lp5163
Vparameters[5]
p5164
assbassbasVname
p5165
(lp5166
Vrule_details
p5167
assbassbasN(lp5168
V************************* NOTES ***************************************
p5169
aVThis is the main description file for EWA learning in the financial market model
p5170
aVAgents involved: Household, FinancialAgent
p5171
aV***************** Environment values and functions **********************
p5172
asVversion
p5173
(lp5174
V3
p5175
asVagents
p5176
(lp5177
(ipoplib
MultiDict
p5178
(dp5179
g297
I0
sg298
(dp5180
N(lp5181
V********************* X-machine Agent - Household ****************************
p5182
aV*********************** End of Agent - Household *****************************
p5183
aV********************* X-machine Agent - FinancialAgent ****************************
p5184
aV*********************** End of Agent - FinancialAgent ****************************
p5185
asVxagent
p5186
(lp5187
(ipoplib
MultiDict
p5188
(dp5189
g297
I0
sg298
(dp5190
Vfunctions
p5191
(lp5192
(ipoplib
MultiDict
p5193
(dp5194
g297
I0
sg298
(dp5195
N(lp5196
VIdle bypassing the Initialization phase
p5197
aVInitialization phase
p5198
aVIdle bypassing the GA
p5199
aVIdle bypassing the EWA
p5200
asVfunction
p5201
(lp5202
(ipoplib
MultiDict
p5203
(dp5204
g297
I0
sg298
(dp5205
Vnextstate
p5206
(lp5207
VStart_GA
p5208
asVcondition
p5209
(lp5210
(ipoplib
MultiDict
p5211
(dp5212
g297
I0
sg298
(dp5213
Vnot
p5214
(lp5215
(ipoplib
MultiDict
p5216
(dp5217
g297
I0
sg298
(dp5218
Vtime
p5219
(lp5220
(ipoplib
MultiDict
p5221
(dp5222
g297
I0
sg298
(dp5223
Vphase
p5224
(lp5225
V1
p5226
asVperiod
p5227
(lp5228
Vmillionyearly
p5229
assbassbassbasVname
p5230
(lp5231
Vidle
p5232
asVcurrentstate
p5233
(lp5234
VStart_Household_EWA_Learning
p5235
asVdescription
p5236
(lp5237
VIdle bypassing Initialization phase
p5238
assba(ipoplib
MultiDict
p5239
(dp5240
g297
I0
sg298
(dp5241
Vinputs
p5242
(lp5243
(ipoplib
MultiDict
p5244
(dp5245
g297
I0
sg298
(dp5246
Vinput
p5247
(lp5248
(ipoplib
MultiDict
p5249
(dp5250
g297
I0
sg298
(dp5251
Vmessagename
p5252
(lp5253
Vinitial_rule_details
p5254
assbassbasVcondition
p5255
(lp5256
(ipoplib
MultiDict
p5257
(dp5258
g297
I0
sg298
(dp5259
Vtime
p5260
(lp5261
(ipoplib
MultiDict
p5262
(dp5263
g297
I0
sg298
(dp5264
Vphase
p5265
(lp5266
V1
p5267
asVperiod
p5268
(lp5269
Vmillionyearly
p5270
assbassbasVname
p5271
(lp5272
VHousehold_initialize_rule_details
p5273
asVcurrentstate
p5274
(lp5275
VStart_Household_EWA_Learning
p5276
asVnextstate
p5277
(lp5278
V001
p5279
assba(ipoplib
MultiDict
p5280
(dp5281
g297
I0
sg298
(dp5282
Vname
p5283
(lp5284
VHousehold_portfolio_strategy_interface
p5285
asVcurrentstate
p5286
(lp5287
V001
p5288
asVnextstate
p5289
(lp5290
VStart_GA
p5291
assba(ipoplib
MultiDict
p5292
(dp5293
g297
I0
sg298
(dp5294
Vnextstate
p5295
(lp5296
VEnd_GA
p5297
asVcondition
p5298
(lp5299
(ipoplib
MultiDict
p5300
(dp5301
g297
I0
sg298
(dp5302
Vrhs
p5303
(lp5304
(ipoplib
MultiDict
p5305
(dp5306
g297
I0
sg298
(dp5307
Vtime
p5308
(lp5309
(ipoplib
MultiDict
p5310
(dp5311
g297
I0
sg298
(dp5312
Vphase
p5313
(lp5314
V1
p5315
asVperiod
p5316
(lp5317
Vmillionyearly
p5318
assbassbasVlhs
p5319
(lp5320
(ipoplib
MultiDict
p5321
(dp5322
g297
I0
sg298
(dp5323
Vnot
p5324
(lp5325
(ipoplib
MultiDict
p5326
(dp5327
g297
I0
sg298
(dp5328
Vtime
p5329
(lp5330
(ipoplib
MultiDict
p5331
(dp5332
g297
I0
sg298
(dp5333
Vphase
p5334
(lp5335
V1
p5336
asVperiod
p5337
(lp5338
Vyearly
p5339
assbassbassbasVop
p5340
(lp5341
VOR
p5342
assbasVname
p5343
(lp5344
Vidle
p5345
asVcurrentstate
p5346
(lp5347
VStart_GA
p5348
asVdescription
p5349
(lp5350
VIdle bypassing the GA
p5351
assba(ipoplib
MultiDict
p5352
(dp5353
g297
I0
sg298
(dp5354
Vcondition
p5355
(lp5356
(ipoplib
MultiDict
p5357
(dp5358
g297
I0
sg298
(dp5359
Vrhs
p5360
(lp5361
(ipoplib
MultiDict
p5362
(dp5363
g297
I0
sg298
(dp5364
Vnot
p5365
(lp5366
(ipoplib
MultiDict
p5367
(dp5368
g297
I0
sg298
(dp5369
Vtime
p5370
(lp5371
(ipoplib
MultiDict
p5372
(dp5373
g297
I0
sg298
(dp5374
Vphase
p5375
(lp5376
V1
p5377
asVperiod
p5378
(lp5379
Vmillionyearly
p5380
assbassbassbasVlhs
p5381
(lp5382
(ipoplib
MultiDict
p5383
(dp5384
g297
I0
sg298
(dp5385
Vtime
p5386
(lp5387
(ipoplib
MultiDict
p5388
(dp5389
g297
I0
sg298
(dp5390
Vphase
p5391
(lp5392
V1
p5393
asVperiod
p5394
(lp5395
Vyearly
p5396
assbassbasVop
p5397
(lp5398
VAND
p5399
assbasVname
p5400
(lp5401
VHousehold_print_private_classifiersystem
p5402
asVcurrentstate
p5403
(lp5404
VStart_GA
p5405
asVnextstate
p5406
(lp5407
V01
p5408
assba(ipoplib
MultiDict
p5409
(dp5410
g297
I0
sg298
(dp5411
Vname
p5412
(lp5413
VHousehold_reset_private_classifiersystem
p5414
asVcurrentstate
p5415
(lp5416
V01
p5417
asVnextstate
p5418
(lp5419
V02
p5420
assba(ipoplib
MultiDict
p5421
(dp5422
g297
I0
sg298
(dp5423
Vinputs
p5424
(lp5425
(ipoplib
MultiDict
p5426
(dp5427
g297
I0
sg298
(dp5428
Vinput
p5429
(lp5430
(ipoplib
MultiDict
p5431
(dp5432
g297
I0
sg298
(dp5433
Vmessagename
p5434
(lp5435
Vrule_details
p5436
assbassbasVname
p5437
(lp5438
VHousehold_read_and_update_rule_details
p5439
asVcurrentstate
p5440
(lp5441
V02
p5442
asVnextstate
p5443
(lp5444
VEnd_GA
p5445
assba(ipoplib
MultiDict
p5446
(dp5447
g297
I0
sg298
(dp5448
Vnextstate
p5449
(lp5450
VEnd_Household_EWA_Learning
p5451
asVcondition
p5452
(lp5453
(ipoplib
MultiDict
p5454
(dp5455
g297
I0
sg298
(dp5456
Vrhs
p5457
(lp5458
(ipoplib
MultiDict
p5459
(dp5460
g297
I0
sg298
(dp5461
Vtime
p5462
(lp5463
(ipoplib
MultiDict
p5464
(dp5465
g297
I0
sg298
(dp5466
Vphase
p5467
(lp5468
V1
p5469
asVperiod
p5470
(lp5471
Vmillionyearly
p5472
assbassbasVlhs
p5473
(lp5474
(ipoplib
MultiDict
p5475
(dp5476
g297
I0
sg298
(dp5477
Vnot
p5478
(lp5479
(ipoplib
MultiDict
p5480
(dp5481
g297
I0
sg298
(dp5482
Vtime
p5483
(lp5484
(ipoplib
MultiDict
p5485
(dp5486
g297
I0
sg298
(dp5487
Vphase
p5488
(lp5489
Va.day_of_month_to_act
p5490
asVperiod
p5491
(lp5492
Vmonthly
p5493
assbassbassbasVop
p5494
(lp5495
VOR
p5496
assbasVname
p5497
(lp5498
Vidle
p5499
asVcurrentstate
p5500
(lp5501
VEnd_GA
p5502
asVdescription
p5503
(lp5504
VIdle bypassing the EWA
p5505
assba(ipoplib
MultiDict
p5506
(dp5507
g297
I0
sg298
(dp5508
Voutputs
p5509
(lp5510
(ipoplib
MultiDict
p5511
(dp5512
g297
I0
sg298
(dp5513
Voutput
p5514
(lp5515
(ipoplib
MultiDict
p5516
(dp5517
g297
I0
sg298
(dp5518
Vmessagename
p5519
(lp5520
Vrule_performance
p5521
assbassbasVcondition
p5522
(lp5523
(ipoplib
MultiDict
p5524
(dp5525
g297
I0
sg298
(dp5526
Vrhs
p5527
(lp5528
(ipoplib
MultiDict
p5529
(dp5530
g297
I0
sg298
(dp5531
Vnot
p5532
(lp5533
(ipoplib
MultiDict
p5534
(dp5535
g297
I0
sg298
(dp5536
Vtime
p5537
(lp5538
(ipoplib
MultiDict
p5539
(dp5540
g297
I0
sg298
(dp5541
Vphase
p5542
(lp5543
V1
p5544
asVperiod
p5545
(lp5546
Vmillionyearly
p5547
assbassbassbasVlhs
p5548
(lp5549
(ipoplib
MultiDict
p5550
(dp5551
g297
I0
sg298
(dp5552
Vtime
p5553
(lp5554
(ipoplib
MultiDict
p5555
(dp5556
g297
I0
sg298
(dp5557
Vphase
p5558
(lp5559
Va.day_of_month_to_act
p5560
asVperiod
p5561
(lp5562
Vmonthly
p5563
assbassbasVop
p5564
(lp5565
VAND
p5566
assbasVname
p5567
(lp5568
VHousehold_send_rule_performance
p5569
asVcurrentstate
p5570
(lp5571
VEnd_GA
p5572
asVnextstate
p5573
(lp5574
V03
p5575
assba(ipoplib
MultiDict
p5576
(dp5577
g297
I0
sg298
(dp5578
Vinputs
p5579
(lp5580
(ipoplib
MultiDict
p5581
(dp5582
g297
I0
sg298
(dp5583
Vinput
p5584
(lp5585
(ipoplib
MultiDict
p5586
(dp5587
g297
I0
sg298
(dp5588
Vmessagename
p5589
(lp5590
Vnew_performances
p5591
assbassbasVname
p5592
(lp5593
VHousehold_read_all_performances
p5594
asVcurrentstate
p5595
(lp5596
V03
p5597
asVnextstate
p5598
(lp5599
V04
p5600
assba(ipoplib
MultiDict
p5601
(dp5602
g297
I0
sg298
(dp5603
Vname
p5604
(lp5605
VHousehold_select_rule
p5606
asVcurrentstate
p5607
(lp5608
V04
p5609
asVnextstate
p5610
(lp5611
V05
p5612
assba(ipoplib
MultiDict
p5613
(dp5614
g297
I0
sg298
(dp5615
Vname
p5616
(lp5617
VHousehold_portfolio_strategy_interface
p5618
asVcurrentstate
p5619
(lp5620
V05
p5621
asVnextstate
p5622
(lp5623
VEnd_Household_EWA_Learning
p5624
assbassbasVname
p5625
(lp5626
g8
asVmemory
p5627
(lp5628
(ipoplib
MultiDict
p5629
(dp5630
g297
I0
sg298
(dp5631
N(lp5632
V<variable><type>int</type><name>id</name><description></description></variable>
p5633
aV<variable><type>int</type><name>day_of_month_to_act</name><description></description></variable>
p5634
asVvariable
p5635
(lp5636
(ipoplib
MultiDict
p5637
(dp5638
g297
I0
sg298
(dp5639
Vtype
p5640
(lp5641
VEWAParameterStruct
p5642
asVname
p5643
(lp5644
VEWA_parameters
p5645
assba(ipoplib
MultiDict
p5646
(dp5647
g297
I0
sg298
(dp5648
Vtype
p5649
(lp5650
VSimplePrivateClassifierSystem
p5651
asVname
p5652
(lp5653
Vprivate_classifiersystem
p5654
assbassbassba(ipoplib
MultiDict
p5655
(dp5656
g297
I0
sg298
(dp5657
Vfunctions
p5658
(lp5659
(ipoplib
MultiDict
p5660
(dp5661
g297
I0
sg298
(dp5662
N(lp5663
VIdle bypassing the Initialization phase
p5664
aVInitialisation phase of FA
p5665
aVIdle bypassing the GA
p5666
asVfunction
p5667
(lp5668
(ipoplib
MultiDict
p5669
(dp5670
g297
I0
sg298
(dp5671
Vnextstate
p5672
(lp5673
VStart_GA
p5674
asVcondition
p5675
(lp5676
(ipoplib
MultiDict
p5677
(dp5678
g297
I0
sg298
(dp5679
Vnot
p5680
(lp5681
(ipoplib
MultiDict
p5682
(dp5683
g297
I0
sg298
(dp5684
Vtime
p5685
(lp5686
(ipoplib
MultiDict
p5687
(dp5688
g297
I0
sg298
(dp5689
Vphase
p5690
(lp5691
V1
p5692
asVperiod
p5693
(lp5694
Vmillionyearly
p5695
assbassbassbasVname
p5696
(lp5697
Vidle
p5698
asVcurrentstate
p5699
(lp5700
VStart_FinancialAgent
p5701
asVdescription
p5702
(lp5703
VIdle bypassing Initialization phase
p5704
assba(ipoplib
MultiDict
p5705
(dp5706
g297
I0
sg298
(dp5707
Voutputs
p5708
(lp5709
(ipoplib
MultiDict
p5710
(dp5711
g297
I0
sg298
(dp5712
Voutput
p5713
(lp5714
(ipoplib
MultiDict
p5715
(dp5716
g297
I0
sg298
(dp5717
Vmessagename
p5718
(lp5719
Vinitial_rule_details
p5720
assbassbasVcondition
p5721
(lp5722
(ipoplib
MultiDict
p5723
(dp5724
g297
I0
sg298
(dp5725
Vtime
p5726
(lp5727
(ipoplib
MultiDict
p5728
(dp5729
g297
I0
sg298
(dp5730
Vphase
p5731
(lp5732
V1
p5733
asVperiod
p5734
(lp5735
Vmillionyearly
p5736
assbassbasVname
p5737
(lp5738
VFinancialAgent_initialize_rule_details
p5739
asVcurrentstate
p5740
(lp5741
VStart_FinancialAgent
p5742
asVnextstate
p5743
(lp5744
VStart_GA
p5745
assba(ipoplib
MultiDict
p5746
(dp5747
g297
I0
sg298
(dp5748
Vnextstate
p5749
(lp5750
VEnd_GA
p5751
asVcondition
p5752
(lp5753
(ipoplib
MultiDict
p5754
(dp5755
g297
I0
sg298
(dp5756
Vrhs
p5757
(lp5758
(ipoplib
MultiDict
p5759
(dp5760
g297
I0
sg298
(dp5761
Vtime
p5762
(lp5763
(ipoplib
MultiDict
p5764
(dp5765
g297
I0
sg298
(dp5766
Vphase
p5767
(lp5768
V1
p5769
asVperiod
p5770
(lp5771
Vmillionyearly
p5772
assbassbasVlhs
p5773
(lp5774
(ipoplib
MultiDict
p5775
(dp5776
g297
I0
sg298
(dp5777
Vnot
p5778
(lp5779
(ipoplib
MultiDict
p5780
(dp5781
g297
I0
sg298
(dp5782
Vtime
p5783
(lp5784
(ipoplib
MultiDict
p5785
(dp5786
g297
I0
sg298
(dp5787
Vphase
p5788
(lp5789
V1
p5790
asVperiod
p5791
(lp5792
Vyearly
p5793
assbassbassbasVop
p5794
(lp5795
VOR
p5796
assbasVname
p5797
(lp5798
Vidle
p5799
asVcurrentstate
p5800
(lp5801
VStart_GA
p5802
asVdescription
p5803
(lp5804
VIdle bypassing the GA
p5805
assba(ipoplib
MultiDict
p5806
(dp5807
g297
I0
sg298
(dp5808
Vcondition
p5809
(lp5810
(ipoplib
MultiDict
p5811
(dp5812
g297
I0
sg298
(dp5813
Vrhs
p5814
(lp5815
(ipoplib
MultiDict
p5816
(dp5817
g297
I0
sg298
(dp5818
Vnot
p5819
(lp5820
(ipoplib
MultiDict
p5821
(dp5822
g297
I0
sg298
(dp5823
Vtime
p5824
(lp5825
(ipoplib
MultiDict
p5826
(dp5827
g297
I0
sg298
(dp5828
Vphase
p5829
(lp5830
V1
p5831
asVperiod
p5832
(lp5833
Vmillionyearly
p5834
assbassbassbasVlhs
p5835
(lp5836
(ipoplib
MultiDict
p5837
(dp5838
g297
I0
sg298
(dp5839
Vtime
p5840
(lp5841
(ipoplib
MultiDict
p5842
(dp5843
g297
I0
sg298
(dp5844
Vphase
p5845
(lp5846
V1
p5847
asVperiod
p5848
(lp5849
Vyearly
p5850
assbassbasVop
p5851
(lp5852
VAND
p5853
assbasVname
p5854
(lp5855
VFinancialAgent_apply_GA
p5856
asVcurrentstate
p5857
(lp5858
VStart_GA
p5859
asVnextstate
p5860
(lp5861
V01
p5862
assba(ipoplib
MultiDict
p5863
(dp5864
g297
I0
sg298
(dp5865
Voutputs
p5866
(lp5867
(ipoplib
MultiDict
p5868
(dp5869
g297
I0
sg298
(dp5870
Voutput
p5871
(lp5872
(ipoplib
MultiDict
p5873
(dp5874
g297
I0
sg298
(dp5875
Vmessagename
p5876
(lp5877
Vrule_details
p5878
assbassbasVname
p5879
(lp5880
VFinancialAgent_send_rule_details
p5881
asVcurrentstate
p5882
(lp5883
V01
p5884
asVnextstate
p5885
(lp5886
V02
p5887
assba(ipoplib
MultiDict
p5888
(dp5889
g297
I0
sg298
(dp5890
Voutputs
p5891
(lp5892
(ipoplib
MultiDict
p5893
(dp5894
g297
I0
sg298
(dp5895
sbasVname
p5896
(lp5897
VFinancialAgent_print_public_classifiersystem
p5898
asVcurrentstate
p5899
(lp5900
V02
p5901
asVnextstate
p5902
(lp5903
V03
p5904
assba(ipoplib
MultiDict
p5905
(dp5906
g297
I0
sg298
(dp5907
Vnextstate
p5908
(lp5909
VEnd_GA
p5910
asVname
p5911
(lp5912
VFinancialAgent_reset_public_classifiersystem
p5913
asVcurrentstate
p5914
(lp5915
V03
p5916
asVdescription
p5917
(lp5918
VResetting user counter, performance sum, avg_performance
p5919
assba(ipoplib
MultiDict
p5920
(dp5921
g297
I0
sg298
(dp5922
Vinputs
p5923
(lp5924
(ipoplib
MultiDict
p5925
(dp5926
g297
I0
sg298
(dp5927
Vinput
p5928
(lp5929
(ipoplib
MultiDict
p5930
(dp5931
g297
I0
sg298
(dp5932
Vmessagename
p5933
(lp5934
Vrule_performance
p5935
assbassbasVname
p5936
(lp5937
VFinancialAgent_read_rule_performance_and_update_classifiersystem
p5938
asVcurrentstate
p5939
(lp5940
VEnd_GA
p5941
asVnextstate
p5942
(lp5943
V04
p5944
assba(ipoplib
MultiDict
p5945
(dp5946
g297
I0
sg298
(dp5947
Voutputs
p5948
(lp5949
(ipoplib
MultiDict
p5950
(dp5951
g297
I0
sg298
(dp5952
Voutput
p5953
(lp5954
(ipoplib
MultiDict
p5955
(dp5956
g297
I0
sg298
(dp5957
Vmessagename
p5958
(lp5959
Vnew_performances
p5960
assbassbasVname
p5961
(lp5962
VFinancialAgent_send_all_performances
p5963
asVcurrentstate
p5964
(lp5965
V04
p5966
asVnextstate
p5967
(lp5968
Vend_FinancialAgent
p5969
assbassbasVname
p5970
(lp5971
g2014
asVmemory
p5972
(lp5973
(ipoplib
MultiDict
p5974
(dp5975
g297
I0
sg298
(dp5976
N(lp5977
V<variable><type>int</type><name>id</name><description></description></variable>
p5978
asVvariable
p5979
(lp5980
(ipoplib
MultiDict
p5981
(dp5982
g297
I0
sg298
(dp5983
Vtype
p5984
(lp5985
VSimplePublicClassifierSystem
p5986
asVname
p5987
(lp5988
Vpublic_classifiersystem
p5989
asVdescription
p5990
(lp5991
VPublic classifiersystem holding the rule table.
p5992
assba(ipoplib
MultiDict
p5993
(dp5994
g297
I0
sg298
(dp5995
Vtype
p5996
(lp5997
VSimplePublicClassifierSystem
p5998
asVname
p5999
(lp6000
Vpublic_classifiersystem_candidates
p6001
asVdescription
p6002
(lp6003
VPublic classifiersystem to hold the candidate offspring bitstrings, before copying them into the parent population.
p6004
assba(ipoplib
MultiDict
p6005
(dp6006
g297
I0
sg298
(dp6007
Vtype
p6008
(lp6009
VGAParameterStruct
p6010
asVname
p6011
(lp6012
VGA_parameters
p6013
assba(ipoplib
MultiDict
p6014
(dp6015
g297
I0
sg298
(dp6016
Vtype
p6017
(lp6018
VEWAParameterStruct
p6019
asVname
p6020
(lp6021
VEWA_parameters
p6022
assbassbassbassbasVdescription
p6023
(lp6024
VAuthor: Sander van der Hoog, 01/06/2007, 05/03/2008, 22/05/2008, Converted from old XMML 1.0
p6025
assbassbsg2005
g292
ssg2006
Nsg2007
(dp6026
sg2009
Nsg3953
(lp6027
(ipoplib
Agent
p6028
(dp6029
g4
g8
sg252
(lp6030
(ipoplib
MemVar
p6031
(dp6032
g256
I0
sg257
g5642
sg4
g5645
sg259
Nsg246
g6028
sg260
I0
sg261
(dp6033
g283
(ipoplib
BaseForm
p6034
(dp6035
g265
g4468
sg259
g6031
sg267
g268
sbsg282
(ipoplib
BaseForm
p6036
(dp6037
g265
g4484
sg259
g6031
sg267
g268
sbsg284
(ipoplib
BaseForm
p6038
(dp6039
g265
g4460
sg259
g6031
sg267
g268
sbsg285
(ipoplib
BaseForm
p6040
(dp6041
g265
g4476
sg259
g6031
sg267
g268
sbssg279
g5645
sg286
g4327
sg3358
g5642
sg3359
g3499
sba(ipoplib
MemVar
p6042
(dp6043
g256
I0
sg257
g5651
sg4
g5654
sg259
Nsg246
g6028
sg260
I0
sg261
(dp6044
g4092
(ipoplib
BaseForm
p6045
(dp6046
g265
g4871
sg259
g6042
sg267
g268
sbsg4094
(ipoplib
BaseForm
p6047
(dp6048
g265
g4893
sg259
g6042
sg267
g268
sbsg4907
(ipoplib
MemVar
p6049
(dp6050
g256
I1
sg257
g4904
sg4
Vruletable
p6051
sg259
g6042
sg246
g6028
sg260
V100
p6052
sg261
(dp6053
g4080
(ipoplib
BaseForm
p6054
(dp6055
g265
g4778
sg259
g6049
sg267
g268
sbsg4803
(ipoplib
MemVar
p6056
(dp6057
g256
I1
sg257
g4800
sg4
g4061
sg259
g6049
sg246
g6028
sg260
g3349
sg261
(dp6058
g3351
(ipoplib
BaseFormStatic
p6059
(dp6060
g265
g292
sg259
g6056
sg267
g268
sbsg4061
(ipoplib
BaseForm
p6061
(dp6062
g265
g4800
sg259
g6056
sg267
g268
sbssg279
g4803
sg286
g4327
sg3358
g4800
sg3359
g3360
sbsg4082
(ipoplib
BaseForm
p6063
(dp6064
g265
g4789
sg259
g6049
sg267
g268
sbsg4086
(ipoplib
BaseForm
p6065
(dp6066
g265
g4756
sg259
g6049
sg267
g268
sbsg3351
(ipoplib
BaseFormStatic
p6067
(dp6068
g265
g292
sg259
g6049
sg267
g268
sbsg4078
(ipoplib
BaseForm
p6069
(dp6070
g265
g4767
sg259
g6049
sg267
g268
sbsg4084
(ipoplib
BaseForm
p6071
(dp6072
g265
g4745
sg259
g6049
sg267
g268
sbssg279
g4907
sg286
g4327
sg3358
g4904
sg3359
g3360
sbsg4096
(ipoplib
BaseForm
p6073
(dp6074
g265
g4882
sg259
g6042
sg267
g268
sbssg279
g5654
sg286
g4327
sg3358
g5651
sg3359
g3499
sbasg3512
(lp6075
sg286
g4327
sg3944
(lp6076
sg3946
(lp6077
g5645
ag5654
asg3359
g3499
sba(ipoplib
Agent
p6078
(dp6079
g4
g2014
sg252
(lp6080
(ipoplib
MemVar
p6081
(dp6082
g256
I0
sg257
g5986
sg4
g5989
sg259
Nsg246
g6078
sg260
I0
sg261
(dp6083
g3386
(ipoplib
BaseForm
p6084
(dp6085
g265
g4830
sg259
g6081
sg267
g268
sbsg4844
(ipoplib
MemVar
p6086
(dp6087
g256
I1
sg257
g4841
sg4
Vruletable
p6088
sg259
g6081
sg246
g6078
sg260
V100
p6089
sg261
(dp6090
g3383
(ipoplib
BaseForm
p6091
(dp6092
g265
g4704
sg259
g6086
sg267
g268
sbsg4718
(ipoplib
MemVar
p6093
(dp6094
g256
I1
sg257
g4715
sg4
g3357
sg259
g6086
sg246
g6078
sg260
g3349
sg261
(dp6095
g3351
(ipoplib
BaseFormStatic
p6096
(dp6097
g265
g292
sg259
g6093
sg267
g268
sbsg3357
(ipoplib
BaseForm
p6098
(dp6099
g265
g4715
sg259
g6093
sg267
g268
sbssg279
g4718
sg286
g4327
sg3358
g4715
sg3359
g3360
sbsg3380
(ipoplib
BaseForm
p6100
(dp6101
g265
g4671
sg259
g6086
sg267
g268
sbsg3351
(ipoplib
BaseFormStatic
p6102
(dp6103
g265
g292
sg259
g6086
sg267
g268
sbsg3376
(ipoplib
BaseForm
p6104
(dp6105
g265
g4693
sg259
g6086
sg267
g268
sbsg3378
(ipoplib
BaseForm
p6106
(dp6107
g265
g4682
sg259
g6086
sg267
g268
sbsg3381
(ipoplib
BaseForm
p6108
(dp6109
g265
g4660
sg259
g6086
sg267
g268
sbssg279
g4844
sg286
g4327
sg3358
g4841
sg3359
g3360
sbssg279
g5989
sg286
g4327
sg3358
g5986
sg3359
g5992
sba(ipoplib
MemVar
p6110
(dp6111
g256
I0
sg257
g5998
sg4
g6001
sg259
Nsg246
g6078
sg260
I0
sg261
(dp6112
g3386
(ipoplib
BaseForm
p6113
(dp6114
g265
g4830
sg259
g6110
sg267
g268
sbsg4844
(ipoplib
MemVar
p6115
(dp6116
g256
I1
sg257
g4841
sg4
Vruletable
p6117
sg259
g6110
sg246
g6078
sg260
V100
p6118
sg261
(dp6119
g3383
(ipoplib
BaseForm
p6120
(dp6121
g265
g4704
sg259
g6115
sg267
g268
sbsg4718
(ipoplib
MemVar
p6122
(dp6123
g256
I1
sg257
g4715
sg4
g3409
sg259
g6115
sg246
g6078
sg260
g3349
sg261
(dp6124
g3351
(ipoplib
BaseFormStatic
p6125
(dp6126
g265
g292
sg259
g6122
sg267
g268
sbsg3409
(ipoplib
BaseForm
p6127
(dp6128
g265
g4715
sg259
g6122
sg267
g268
sbssg279
g4718
sg286
g4327
sg3358
g4715
sg3359
g3360
sbsg3380
(ipoplib
BaseForm
p6129
(dp6130
g265
g4671
sg259
g6115
sg267
g268
sbsg3351
(ipoplib
BaseFormStatic
p6131
(dp6132
g265
g292
sg259
g6115
sg267
g268
sbsg3376
(ipoplib
BaseForm
p6133
(dp6134
g265
g4693
sg259
g6115
sg267
g268
sbsg3378
(ipoplib
BaseForm
p6135
(dp6136
g265
g4682
sg259
g6115
sg267
g268
sbsg3381
(ipoplib
BaseForm
p6137
(dp6138
g265
g4660
sg259
g6115
sg267
g268
sbssg279
g4844
sg286
g4327
sg3358
g4841
sg3359
g3360
sbssg279
g6001
sg286
g4327
sg3358
g5998
sg3359
g6004
sba(ipoplib
MemVar
p6139
(dp6140
g256
I0
sg257
g6010
sg4
g6013
sg259
Nsg246
g6078
sg260
I0
sg261
(dp6141
g4621
(ipoplib
MemVar
p6142
(dp6143
g256
I1
sg257
g4618
sg4
g3436
sg259
g6139
sg246
g6078
sg260
g3349
sg261
(dp6144
g3351
(ipoplib
BaseFormStatic
p6145
(dp6146
g265
g292
sg259
g6142
sg267
g268
sbsg3436
(ipoplib
BaseForm
p6147
(dp6148
g265
g4618
sg259
g6142
sg267
g268
sbssg279
g4621
sg286
g4327
sg3358
g4618
sg3359
g3360
sbsg3484
(ipoplib
BaseForm
p6149
(dp6150
g265
g4596
sg259
g6139
sg267
g268
sbsg3486
(ipoplib
BaseForm
p6151
(dp6152
g265
g4510
sg259
g6139
sg267
g268
sbsg4633
(ipoplib
MemVar
p6153
(dp6154
g256
I1
sg257
g4630
sg4
g3453
sg259
g6139
sg246
g6078
sg260
g3349
sg261
(dp6155
g3351
(ipoplib
BaseFormStatic
p6156
(dp6157
g265
g292
sg259
g6153
sg267
g268
sbsg3453
(ipoplib
BaseForm
p6158
(dp6159
g265
g4630
sg259
g6153
sg267
g268
sbssg279
g4633
sg286
g4327
sg3358
g4630
sg3359
g3360
sbsg3488
(ipoplib
BaseForm
p6160
(dp6161
g265
g4562
sg259
g6139
sg267
g268
sbsg3489
(ipoplib
BaseForm
p6162
(dp6163
g265
g4521
sg259
g6139
sg267
g268
sbsg3495
(ipoplib
BaseForm
p6164
(dp6165
g265
g4607
sg259
g6139
sg267
g268
sbsg3493
(ipoplib
BaseForm
p6166
(dp6167
g265
g4532
sg259
g6139
sg267
g268
sbsg3494
(ipoplib
BaseForm
p6168
(dp6169
g265
g4573
sg259
g6139
sg267
g268
sbsg3491
(ipoplib
BaseForm
p6170
(dp6171
g265
g4551
sg259
g6139
sg267
g268
sbsg4587
(ipoplib
MemVar
p6172
(dp6173
g256
I1
sg257
g4584
sg4
g3479
sg259
g6139
sg246
g6078
sg260
g3349
sg261
(dp6174
g3351
(ipoplib
BaseFormStatic
p6175
(dp6176
g265
g292
sg259
g6172
sg267
g268
sbsg3479
(ipoplib
BaseForm
p6177
(dp6178
g265
g4584
sg259
g6172
sg267
g268
sbssg279
g4587
sg286
g4327
sg3358
g4584
sg3359
g3360
sbsg3497
(ipoplib
BaseForm
p6179
(dp6180
g265
g4540
sg259
g6139
sg267
g268
sbssg279
g6013
sg286
g4327
sg3358
g6010
sg3359
g3499
sba(ipoplib
MemVar
p6181
(dp6182
g256
I0
sg257
g6019
sg4
g6022
sg259
Nsg246
g6078
sg260
I0
sg261
(dp6183
g283
(ipoplib
BaseForm
p6184
(dp6185
g265
g4468
sg259
g6181
sg267
g268
sbsg282
(ipoplib
BaseForm
p6186
(dp6187
g265
g4484
sg259
g6181
sg267
g268
sbsg284
(ipoplib
BaseForm
p6188
(dp6189
g265
g4460
sg259
g6181
sg267
g268
sbsg285
(ipoplib
BaseForm
p6190
(dp6191
g265
g4476
sg259
g6181
sg267
g268
sbssg279
g6022
sg286
g4327
sg3358
g6019
sg3359
g3499
sbasg3512
(lp6192
sg286
g4327
sg3944
(lp6193
sg3946
(lp6194
g5989
ag6001
ag6013
ag6022
asg3359
g3499
sbasg3955
(lp6195
(ipoplib
DataType
p6196
(dp6197
g3959
(lp6198
g284
ag283
ag285
ag282
asg4
g4489
sg3961
(dp6199
g283
(dp6200
g3358
g4468
sg3359
g3499
ssg282
(dp6201
g3358
g4484
sg3359
g3499
ssg284
(dp6202
g3358
g4460
sg3359
g3499
ssg285
(dp6203
g3358
g4476
sg3359
g3499
sssg3359
g4492
sba(ipoplib
DataType
p6204
(dp6205
g3959
(lp6206
g3486
ag3489
ag3493
ag3497
ag3491
ag3488
ag3494
ag4587
ag3484
ag3495
ag4621
ag4633
asg4
g4639
sg3961
(dp6207
g4621
(dp6208
g3358
g4618
sg3359
g4624
ssg3484
(dp6209
g3358
g4596
sg3359
g4601
ssg3486
(dp6210
g3358
g4510
sg3359
g4515
ssg4633
(dp6211
g3358
g4630
sg3359
g4636
ssg3488
(dp6212
g3358
g4562
sg3359
g4567
ssg3489
(dp6213
g3358
g4521
sg3359
g4526
ssg3495
(dp6214
g3358
g4607
sg3359
g4612
ssg3493
(dp6215
g3358
g4532
sg3359
g3499
ssg3494
(dp6216
g3358
g4573
sg3359
g4578
ssg3491
(dp6217
g3358
g4551
sg3359
g4556
ssg4587
(dp6218
g3358
g4584
sg3359
g4590
ssg3497
(dp6219
g3358
g4540
sg3359
g4545
sssg3359
g4642
sba(ipoplib
DataType
p6220
(dp6221
g3959
(lp6222
g3381
ag3380
ag3378
ag3376
ag3383
ag4718
asg4
g4724
sg3961
(dp6223
g3383
(dp6224
g3358
g4704
sg3359
g4709
ssg4718
(dp6225
g3358
g4715
sg3359
g4721
ssg3380
(dp6226
g3358
g4671
sg3359
g4676
ssg3376
(dp6227
g3358
g4693
sg3359
g4698
ssg3378
(dp6228
g3358
g4682
sg3359
g4687
ssg3381
(dp6229
g3358
g4660
sg3359
g4665
sssg3359
g4727
sba(ipoplib
DataType
p6230
(dp6231
g3959
(lp6232
g4084
ag4086
ag4078
ag4080
ag4082
ag4803
asg4
g4809
sg3961
(dp6233
g4803
(dp6234
g3358
g4800
sg3359
g4806
ssg4082
(dp6235
g3358
g4789
sg3359
g4794
ssg4086
(dp6236
g3358
g4756
sg3359
g4761
ssg4080
(dp6237
g3358
g4778
sg3359
g4783
ssg4078
(dp6238
g3358
g4767
sg3359
g4772
ssg4084
(dp6239
g3358
g4745
sg3359
g4750
sssg3359
g4812
sba(ipoplib
DataType
p6240
(dp6241
g3959
(lp6242
g3386
ag4844
asg4
g4850
sg3961
(dp6243
g3386
(dp6244
g3358
g4830
sg3359
g4835
ssg4844
(dp6245
g3358
g4841
sg3359
g4847
sssg3359
g4853
sba(ipoplib
DataType
p6246
(dp6247
g3959
(lp6248
g4092
ag4096
ag4094
ag4907
asg4
g4913
sg3961
(dp6249
g4092
(dp6250
g3358
g4871
sg3359
g4876
ssg4094
(dp6251
g3358
g4893
sg3359
g4898
ssg4907
(dp6252
g3358
g4904
sg3359
g4910
ssg4096
(dp6253
g3358
g4882
sg3359
g4887
sssg3359
g4916
sba(ipoplib
DataType
p6254
(dp6255
g3959
(lp6256
g4937
ag4949
ag4961
ag4973
asg4
g4979
sg3961
(dp6257
g4961
(dp6258
g3358
g4958
sg3359
g4964
ssg4949
(dp6259
g3358
g4946
sg3359
g4952
ssg4973
(dp6260
g3358
g4970
sg3359
g4976
ssg4937
(dp6261
g3358
g4934
sg3359
g4940
sssg3359
g4982
sbasg4025
(lp6262
(ipoplib
Constant
p6263
(dp6264
g4029
I0
sg4
g5002
sg4030
g4999
sg3359
g5005
sba(ipoplib
Constant
p6265
(dp6266
g4029
I0
sg4
g5014
sg4030
g5011
sg3359
g5017
sba(ipoplib
Constant
p6267
(dp6268
g4029
I1
sg4
g5026
sg4030
g5023
sg3359
g5029
sbasbsb.