(ipoplib
Population
p0
(dp1
S'modelfile'
p2
S'D:\\Docs\\EURACE\\X-models\\SVN\\eurace\\AFM\\afm_branches\\initial\\eurace_model.xml'
p3
sS'name'
p4
S'test'
p5
sS'numregions'
p6
I1
sS'regions'
p7
(lp8
(ipoplib
PopRegion
p9
(dp10
S'regionid'
p11
I0
sS'model'
p12
(ipoplib
Model
p13
(dp14
S'info'
p15
(dp16
S'date'
p17
S''
p18
sg4
VEurace
p19
sS'domdic'
p20
(ipoplib
MultiDict
p21
(dp22
S'cs'
p23
I0
sS'dic'
p24
(dp25
Vxmodel
p26
(lp27
(ipoplib
MultiDict
p28
(dp29
g23
I0
sg24
(dp30
Venvironment
p31
(lp32
(ipoplib
MultiDict
p33
(dp34
g23
I0
sg24
(dp35
Vfunctionfiles
p36
(lp37
(ipoplib
MultiDict
p38
(dp39
g23
I0
sg24
(dp40
sbasVtimeunits
p41
(lp42
(ipoplib
MultiDict
p43
(dp44
g23
I0
sg24
(dp45
Vtimeunit
p46
(lp47
(ipoplib
MultiDict
p48
(dp49
g23
I0
sg24
(dp50
Vname
p51
(lp52
Vdaily
p53
asVunit
p54
(lp55
Viteration
p56
asVperiod
p57
(lp58
V1
p59
assba(ipoplib
MultiDict
p60
(dp61
g23
I0
sg24
(dp62
Vname
p63
(lp64
Vweekly
p65
asVunit
p66
(lp67
Vdaily
p68
asVperiod
p69
(lp70
V5
p71
assba(ipoplib
MultiDict
p72
(dp73
g23
I0
sg24
(dp74
Vname
p75
(lp76
Vmonthly
p77
asVunit
p78
(lp79
Vweekly
p80
asVperiod
p81
(lp82
V4
p83
assba(ipoplib
MultiDict
p84
(dp85
g23
I0
sg24
(dp86
Vname
p87
(lp88
Vquarterly
p89
asVunit
p90
(lp91
Vmonthly
p92
asVperiod
p93
(lp94
V3
p95
assba(ipoplib
MultiDict
p96
(dp97
g23
I0
sg24
(dp98
Vname
p99
(lp100
Vyearly
p101
asVunit
p102
(lp103
Vmonthly
p104
asVperiod
p105
(lp106
V12
p107
assba(ipoplib
MultiDict
p108
(dp109
g23
I0
sg24
(dp110
Vname
p111
(lp112
Vmillionyearly
p113
asVunit
p114
(lp115
Vyearly
p116
asVperiod
p117
(lp118
V1000000
p119
assbassbassbasVname
p120
(lp121
g19
asVmodels
p122
(lp123
(ipoplib
MultiDict
p124
(dp125
g23
I0
sg24
(dp126
Vmodel
p127
(lp128
(ipoplib
MultiDict
p129
(dp130
g23
I0
sg24
(dp131
Venabled
p132
(lp133
Vtrue
p134
asVfile
p135
(lp136
Vewa_learning/model.xml
p137
assba(ipoplib
MultiDict
p138
(dp139
g23
I0
sg24
(dp140
Venabled
p141
(lp142
Vtrue
p143
asVfile
p144
(lp145
VFM_UG/model.xml
p146
assbassbasVmessages
p147
(lp148
(ipoplib
MultiDict
p149
(dp150
g23
I0
sg24
(dp151
sbasN(lp152
VModels to include in Eurace model
p153
aVGeneral agent memory
p154
asVversion
p155
(lp156
V0.01
p157
asVagents
p158
(lp159
(ipoplib
MultiDict
p160
(dp161
g23
I0
sg24
(dp162
Vxagent
p163
(lp164
(ipoplib
MultiDict
p165
(dp166
g23
I0
sg24
(dp167
Vname
p168
(lp169
VFinancialAgent
p170
asVmemory
p171
(lp172
(ipoplib
MultiDict
p173
(dp174
g23
I0
sg24
(dp175
Vvariable
p176
(lp177
(ipoplib
MultiDict
p178
(dp179
g23
I0
sg24
(dp180
Vtype
p181
(lp182
Vint
p183
asVname
p184
(lp185
Vid
p186
assbassbassba(ipoplib
MultiDict
p187
(dp188
g23
I0
sg24
(dp189
Vname
p190
(lp191
VHousehold
p192
asVmemory
p193
(lp194
(ipoplib
MultiDict
p195
(dp196
g23
I0
sg24
(dp197
Vvariable
p198
(lp199
(ipoplib
MultiDict
p200
(dp201
g23
I0
sg24
(dp202
Vtype
p203
(lp204
Vint
p205
asVname
p206
(lp207
Vid
p208
assba(ipoplib
MultiDict
p209
(dp210
g23
I0
sg24
(dp211
Vtype
p212
(lp213
Vint
p214
asVname
p215
(lp216
Vday_of_month_to_act
p217
assba(ipoplib
MultiDict
p218
(dp219
g23
I0
sg24
(dp220
Vtype
p221
(lp222
Vdouble
p223
asVname
p224
(lp225
Vglobal_rnd
p226
assba(ipoplib
MultiDict
p227
(dp228
g23
I0
sg24
(dp229
Vtype
p230
(lp231
Vdouble
p232
asVname
p233
(lp234
Vprob_random
p235
assba(ipoplib
MultiDict
p236
(dp237
g23
I0
sg24
(dp238
Vtype
p239
(lp240
Vdouble
p241
asVname
p242
(lp243
Vprob_fund
p244
assbassbassbassbasVdescription
p245
(lp246
VIntegration of AFM + EWA
p247
assbassbsS'author'
p248
g18
ssS'datatypes'
p249
(lp250
(ipoplib
DataType
p251
(dp252
S'varorder'
p253
(lp254
VEWA_rho
p255
aVEWA_phi
p256
aVEWA_delta
p257
aVEWA_beta
p258
asg4
VEWAParameterStruct
p259
sS'vars'
p260
(dp261
g256
(dp262
S'type'
p263
Vdouble
p264
sS'desc'
p265
S'no desc'
p266
ssg258
(dp267
g263
Vdouble
p268
sg265
g266
ssg255
(dp269
g263
Vdouble
p270
sg265
g266
ssg257
(dp271
g263
Vdouble
p272
sg265
g266
sssg265
VStruct for the EWA Parameters
p273
sba(ipoplib
DataType
p274
(dp275
g253
(lp276
Vprob_cross
p277
aVprob_mut
p278
aVstring_size
p279
aVpop_size
p280
aVreproduction_proportion
p281
aVsingle_point_cross_over
p282
aVelection
p283
aVstepsize[5]
p284
aVdelta_min
p285
aVdelta_max
p286
aVmin_values[5]
p287
aVmax_values[5]
p288
asg4
VGAParameterStruct
p289
sg260
(dp290
g287
(dp291
g263
Vdouble
p292
sg265
VMinimum values for each parameter
p293
ssg285
(dp294
g263
Vint
p295
sg265
VLower bound on number of units to mutate inside the mutation range: delta_min can be negative or positive.
p296
ssg277
(dp297
g263
Vdouble
p298
sg265
VCrossover probability
p299
ssg288
(dp300
g263
Vdouble
p301
sg265
VMaximum values for each parameter
p302
ssg282
(dp303
g263
Vint
p304
sg265
VDummy for single-point crossover operator (1: use single-point; 0: use 2-point cross-over)
p305
ssg278
(dp306
g263
Vdouble
p307
sg265
VMutation probability
p308
ssg286
(dp309
g263
Vint
p310
sg265
VUpper bound on number of units to mutate inside the mutation range: delta_max should be positive.
p311
ssg279
(dp312
g263
Vint
p313
sg265
g266
ssg283
(dp314
g263
Vint
p315
sg265
VDummy for election operator
p316
ssg281
(dp317
g263
Vdouble
p318
sg265
VProportion of population that reproduces
p319
ssg284
(dp320
g263
Vdouble
p321
sg265
VMutation stepsize for each parameter
p322
ssg280
(dp323
g263
Vint
p324
sg265
VSize of the rule population
p325
sssg265
VStruct for the GA Parameters
p326
sba(ipoplib
DataType
p327
(dp328
g253
(lp329
Vid
p330
aVcounter
p331
aVperformance
p332
aVavg_performance
p333
aVselection_prob
p334
aVparameters[5]
p335
asg4
VPublicClassifierRule
p336
sg260
(dp337
g334
(dp338
g263
Vdouble
p339
sg265
VSelection probability for the rule
p340
ssg335
(dp341
g263
Vdouble
p342
sg265
VParameter values encoding the rule
p343
ssg331
(dp344
g263
Vint
p345
sg265
VUser counter for each rule
p346
ssg333
(dp347
g263
Vdouble
p348
sg265
VAverage performance for each rule (=total performance/counter)
p349
ssg332
(dp350
g263
Vdouble
p351
sg265
VTotal performance for each rule
p352
ssg330
(dp353
g263
Vint
p354
sg265
Vid for the rule
p355
sssg265
VDatatype for the central classifier system. The system is a dynamic array of PublicClassifierRules !Subject to change!
p356
sba(ipoplib
DataType
p357
(dp358
g253
(lp359
Vid
p360
aVmy_performance
p361
aVavg_performance
p362
aVattraction
p363
aVchoiceprob
p364
aVparameters[5]
p365
asg4
VPrivateClassifierRule
p366
sg260
(dp367
g365
(dp368
g263
Vdouble
p369
sg265
VParameter values encoding the rule
p370
ssg364
(dp371
g263
Vdouble
p372
sg265
VAgent choice probabilities
p373
ssg361
(dp374
g263
Vdouble
p375
sg265
VAgent performance with current_rule (0.0 if this rule is not currently used)
p376
ssg363
(dp377
g263
Vdouble
p378
sg265
VAgent attractions
p379
ssg362
(dp380
g263
Vdouble
p381
sg265
VAverage performance for this rule across population (copied from Central CS)
p382
ssg360
(dp383
g263
Vint
p384
sg265
Vid for each rule
p385
sssg265
VDatatype for the private classifier system inside each agent. The system is a dynamic array of PrivateClassifierRule.  !Subject to change!
p386
sba(ipoplib
DataType
p387
(dp388
g253
(lp389
Vnr_rules
p390
aVruletable[100]
p391
asg4
VSimplePublicClassifierSystem
p392
sg260
(dp393
g390
(dp394
g263
Vint
p395
sg265
VTotal number of rules in the rule set
p396
ssg391
(dp397
g263
VPublicClassifierRule
p398
sg265
VStatic array of 100 public classifier rules of homogeneous type
p399
sssg265
VDatatype for the central classifier system. Simple version allows for rules of the same strategy type (all rules use the same function). !Subject to change!
p400
sba(ipoplib
DataType
p401
(dp402
g253
(lp403
Vnr_rules
p404
aVexperience
p405
aVcurrent_rule
p406
aVruletable[100]
p407
asg4
VSimplePrivateClassifierSystem
p408
sg260
(dp409
g404
(dp410
g263
Vint
p411
sg265
VTotal number of rules in the rule set
p412
ssg406
(dp413
g263
Vint
p414
sg265
VCurrent rule in use by the agent
p415
ssg407
(dp416
g263
VPrivateClassifierRule
p417
sg265
VStatic array of 100 private classifier rules of homogeneous type
p418
ssg405
(dp419
g263
Vdouble
p420
sg265
VExperience variable for EWA learning
p421
sssg265
VDatatype for the private classifier system inside each agent. Simple version allows for rules of the same strategy type (all rules use the same function). !Subject to change!
p422
sba(ipoplib
DataType
p423
(dp424
g253
(lp425
Vnr_types
p426
aVnr_rules_per_type
p427
aVnr_rules
p428
aVruletable[100]
p429
asg4
VComplexPublicClassifierSystem
p430
sg260
(dp431
g428
(dp432
g263
Vint
p433
sg265
VTotal number of rules in the rule set
p434
ssg427
(dp435
g263
Vint_array
p436
sg265
VNr_rules_per_type may differ per type: size of subpopulations
p437
ssg429
(dp438
g263
VPublicClassifierRule
p439
sg265
VStatic array of 100 public classifier rules of heterogenous type
p440
ssg426
(dp441
g263
Vint
p442
sg265
VNumber of subpopulations (different types of rules)
p443
sssg265
VDatatype for the central classifier system. This complex version allows for heterogeneous rule sets. !Subject to change!
p444
sba(ipoplib
DataType
p445
(dp446
g253
(lp447
Vissuer
p448
aVquantity
p449
aVprice
p450
aVassetId
p451
asg4
VOrder
p452
sg260
(dp453
g451
(dp454
g263
Vint
p455
sg265
g266
ssg450
(dp456
g263
Vdouble
p457
sg265
g266
ssg449
(dp458
g263
Vint
p459
sg265
g266
ssg448
(dp460
g263
Vint
p461
sg265
g266
sssg265
VADT order
p462
sba(ipoplib
DataType
p463
(dp464
g253
(lp465
Vasset_id
p466
aVexpectedPriceReturns
p467
aVexpectedTotalReturns
p468
aVexpectedCashFlowYield
p469
aVvolatility
p470
aVexpectedEarning
p471
aVexpectedEarningPayout
p472
aVlast_price
p473
aVutility
p474
asg4
VBelief
p475
sg260
(dp476
g466
(dp477
g263
Vint
p478
sg265
g266
ssg467
(dp479
g263
Vdouble
p480
sg265
g266
ssg468
(dp481
g263
Vdouble
p482
sg265
g266
ssg471
(dp483
g263
Vdouble
p484
sg265
g266
ssg472
(dp485
g263
Vdouble
p486
sg265
g266
ssg469
(dp487
g263
Vdouble
p488
sg265
g266
ssg473
(dp489
g263
Vdouble
p490
sg265
g266
ssg474
(dp491
g263
Vdouble
p492
sg265
g266
ssg470
(dp493
g263
Vdouble
p494
sg265
g266
sssg265
VADT Belief
p495
sba(ipoplib
DataType
p496
(dp497
g253
(lp498
Vid
p499
aVnrOutStandingShares
p500
aVindex
p501
aVprices[100]
p502
aVreturns[100]
p503
asg4
VStock
p504
sg260
(dp505
g502
(dp506
g263
Vdouble
p507
sg265
g266
ssg501
(dp508
g263
Vint
p509
sg265
g266
ssg499
(dp510
g263
Vint
p511
sg265
g266
ssg503
(dp512
g263
Vdouble
p513
sg265
g266
ssg500
(dp514
g263
Vint
p515
sg265
g266
sssg265
VADT Stock
p516
sba(ipoplib
DataType
p517
(dp518
g253
(lp519
Vid
p520
aVquantity
p521
aVlastPrice
p522
asg4
VAsset
p523
sg260
(dp524
g520
(dp525
g263
Vint
p526
sg265
g266
ssg522
(dp527
g263
Vdouble
p528
sg265
g266
ssg521
(dp529
g263
Vint
p530
sg265
g266
sssg265
VADT Asset
p531
sba(ipoplib
DataType
p532
(dp533
g253
(lp534
VlastPrice
p535
aVquantity
p536
aVsellOrders
p537
aVbuyOrders
p538
aVprices
p539
asg4
VClearingMechanism
p540
sg260
(dp541
g539
(dp542
g263
Vdouble_array
p543
sg265
g266
ssg538
(dp544
g263
VOrder_array
p545
sg265
g266
ssg537
(dp546
g263
VOrder_array
p547
sg265
g266
ssg535
(dp548
g263
Vdouble
p549
sg265
g266
ssg536
(dp550
g263
Vint
p551
sg265
g266
sssg265
VADT clearing mechanism
p552
sbasS'agents'
p553
(lp554
(ipoplib
Agent
p555
(dp556
S'memvarorder'
p557
(lp558
g186
aVpublic_classifiersystem
p559
aVGA_parameters
p560
aVEWA_parameters
p561
asg4
g170
sS'memvars'
p562
(lp563
(ipoplib
MemVar
p564
(dp565
S'isarray'
p566
I0
sS'originaltype'
p567
g183
sg4
g186
sS'parent'
p568
NsS'agent'
p569
g555
sS'static'
p570
I0
sS'initforms'
p571
(dp572
g186
(ipoplib
BaseForm
p573
(dp574
S'vtype'
p575
g18
sg568
g564
sS'form'
p576
S'0'
p577
sbssS'originalname'
p578
g186
sg12
g13
sg263
g183
sg265
g266
sba(ipoplib
MemVar
p579
(dp580
g566
I0
sg567
VSimplePublicClassifierSystem
p581
sg4
g559
sg568
Nsg569
g555
sg570
I0
sg571
(dp582
g390
(ipoplib
BaseForm
p583
(dp584
g575
g395
sg568
g579
sg576
S'100'
p585
sbsg391
(ipoplib
MemVar
p586
(dp587
g566
I1
sg567
g398
sg4
Vruletable
p588
sg568
g579
sg569
g555
sg570
V100
p589
sg571
(dp590
g334
(ipoplib
BaseForm
p591
(dp592
g575
g339
sg568
g586
sg576
S'0.01'
p593
sbsg335
(ipoplib
MemVar
p594
(dp595
g566
I1
sg567
g342
sg4
Vparameters
p596
sg568
g586
sg569
g555
sg570
V5
p597
sg571
(dp598
S'array length'
p599
(ipoplib
BaseFormStatic
p600
(dp601
g575
g18
sg568
g594
sg576
S'5'
p602
sbsg596
(ipoplib
BaseForm
p603
(dp604
g575
g342
sg568
g594
sg576
S'0'
p605
sbssg578
g335
sg12
g13
sg263
g342
sg265
S'no desc'
p606
sbsg331
(ipoplib
BaseForm
p607
(dp608
g575
g345
sg568
g586
sg576
g605
sbsg599
(ipoplib
BaseFormStatic
p609
(dp610
g575
g18
sg568
g586
sg576
S'100'
p611
sbsg333
(ipoplib
BaseForm
p612
(dp613
g575
g348
sg568
g586
sg576
S'0.0'
p614
sbsg332
(ipoplib
BaseForm
p615
(dp616
g575
g351
sg568
g586
sg576
S'0.0'
p617
sbsg330
(ipoplib
BaseForm
p618
(dp619
g575
g354
sg568
g586
sg576
S'sequence(0,99,1)'
p620
sbssg578
g391
sg12
g13
sg263
g398
sg265
g606
sbssg578
g559
sg12
g13
sg263
g581
sg265
g266
sba(ipoplib
MemVar
p621
(dp622
g566
I0
sg567
VGAParameterStruct
p623
sg4
g560
sg568
Nsg569
g555
sg570
I0
sg571
(dp624
g287
(ipoplib
MemVar
p625
(dp626
g566
I1
sg567
g292
sg4
Vmin_values
p627
sg568
g621
sg569
g555
sg570
g597
sg571
(dp628
g599
(ipoplib
BaseFormStatic
p629
(dp630
g575
g18
sg568
g625
sg576
g602
sbsg627
(ipoplib
BaseForm
p631
(dp632
g575
g292
sg568
g625
sg576
S'[20,5,3,1,2.0]'
p633
sbssg578
g287
sg12
g13
sg263
g292
sg265
g606
sbsg285
(ipoplib
BaseForm
p634
(dp635
g575
g295
sg568
g621
sg576
S'-1'
p636
sbsg277
(ipoplib
BaseForm
p637
(dp638
g575
g298
sg568
g621
sg576
S'1.00'
p639
sbsg288
(ipoplib
MemVar
p640
(dp641
g566
I1
sg567
g301
sg4
Vmax_values
p642
sg568
g621
sg569
g555
sg570
g597
sg571
(dp643
g599
(ipoplib
BaseFormStatic
p644
(dp645
g575
g18
sg568
g640
sg576
g602
sbsg642
(ipoplib
BaseForm
p646
(dp647
g575
g301
sg568
g640
sg576
S'[60,10,5,5,3.0]'
p648
sbssg578
g288
sg12
g13
sg263
g301
sg265
g606
sbsg282
(ipoplib
BaseForm
p649
(dp650
g575
g304
sg568
g621
sg576
S'1'
p651
sbsg278
(ipoplib
BaseForm
p652
(dp653
g575
g307
sg568
g621
sg576
S'1.00'
p654
sbsg286
(ipoplib
BaseForm
p655
(dp656
g575
g310
sg568
g621
sg576
g651
sbsg279
(ipoplib
BaseForm
p657
(dp658
g575
g313
sg568
g621
sg576
g602
sbsg283
(ipoplib
BaseForm
p659
(dp660
g575
g315
sg568
g621
sg576
g605
sbsg281
(ipoplib
BaseForm
p661
(dp662
g575
g318
sg568
g621
sg576
S'0.25'
p663
sbsg284
(ipoplib
MemVar
p664
(dp665
g566
I1
sg567
g321
sg4
Vstepsize
p666
sg568
g621
sg569
g555
sg570
g597
sg571
(dp667
g599
(ipoplib
BaseFormStatic
p668
(dp669
g575
g18
sg568
g664
sg576
g602
sbsg666
(ipoplib
BaseForm
p670
(dp671
g575
g321
sg568
g664
sg576
S'[1,1,1,1,0.25]'
p672
sbssg578
g284
sg12
g13
sg263
g321
sg265
g606
sbsg280
(ipoplib
BaseForm
p673
(dp674
g575
g324
sg568
g621
sg576
S'100'
p675
sbssg578
g560
sg12
g13
sg263
g623
sg265
g266
sba(ipoplib
MemVar
p676
(dp677
g566
I0
sg567
VEWAParameterStruct
p678
sg4
g561
sg568
Nsg569
g555
sg570
I0
sg571
(dp679
g256
(ipoplib
BaseForm
p680
(dp681
g575
g264
sg568
g676
sg576
g605
sbsg258
(ipoplib
BaseForm
p682
(dp683
g575
g268
sg568
g676
sg576
g651
sbsg255
(ipoplib
BaseForm
p684
(dp685
g575
g270
sg568
g676
sg576
g605
sbsg257
(ipoplib
BaseForm
p686
(dp687
g575
g272
sg568
g676
sg576
g605
sbssg578
g561
sg12
g13
sg263
g678
sg265
g266
sbasg265
g266
sba(ipoplib
Agent
p688
(dp689
g557
(lp690
g208
ag217
ag226
ag235
ag244
aVEWA_parameters
p691
aVprivate_classifiersystem
p692
aVwealth
p693
aVbeliefs
p694
aVpendingOrders
p695
aVassetsowned
p696
aVassetWeights
p697
aVassetUtilities
p698
aVpayment_account
p699
aVconsumption_badget
p700
aVcash_on_hand
p701
aVportfolio_badget
p702
aVforwardWindow
p703
aVbackwardWindow
p704
aVbins
p705
aVrandomWeight
p706
aVfundamentalWeight
p707
aVchartistWeight
p708
aVholdingPeriodToForwardW
p709
aVlossaversion
p710
asg4
g192
sg562
(lp711
(ipoplib
MemVar
p712
(dp713
g566
I0
sg567
g205
sg4
g208
sg568
Nsg569
g688
sg570
I0
sg571
(dp714
g208
(ipoplib
BaseForm
p715
(dp716
g575
g18
sg568
g712
sg576
g577
sbssg578
g208
sg12
g13
sg263
g205
sg265
g266
sba(ipoplib
MemVar
p717
(dp718
g566
I0
sg567
g214
sg4
g217
sg568
Nsg569
g688
sg570
I0
sg571
(dp719
g217
(ipoplib
BaseForm
p720
(dp721
g575
g214
sg568
g717
sg576
g651
sbssg578
g217
sg12
g13
sg263
g214
sg265
g266
sba(ipoplib
MemVar
p722
(dp723
g566
I0
sg567
g223
sg4
g226
sg568
Nsg569
g688
sg570
I0
sg571
(dp724
g226
(ipoplib
BaseForm
p725
(dp726
g575
g223
sg568
g722
sg576
S'rand(0.0,1.0)'
p727
sbssg578
g226
sg12
g13
sg263
g223
sg265
g266
sba(ipoplib
MemVar
p728
(dp729
g566
I0
sg567
g232
sg4
g235
sg568
Nsg569
g688
sg570
I0
sg571
(dp730
g235
(ipoplib
BaseForm
p731
(dp732
g575
g232
sg568
g728
sg576
S'0.90'
p733
sbssg578
g235
sg12
g13
sg263
g232
sg265
g266
sba(ipoplib
MemVar
p734
(dp735
g566
I0
sg567
g241
sg4
g244
sg568
Nsg569
g688
sg570
I0
sg571
(dp736
g244
(ipoplib
BaseForm
p737
(dp738
g575
g241
sg568
g734
sg576
S'0.05'
p739
sbssg578
g244
sg12
g13
sg263
g241
sg265
g266
sba(ipoplib
MemVar
p740
(dp741
g566
I0
sg567
VEWAParameterStruct
p742
sg4
g691
sg568
Nsg569
g688
sg570
I0
sg571
(dp743
g256
(ipoplib
BaseForm
p744
(dp745
g575
g264
sg568
g740
sg576
g605
sbsg258
(ipoplib
BaseForm
p746
(dp747
g575
g268
sg568
g740
sg576
g651
sbsg255
(ipoplib
BaseForm
p748
(dp749
g575
g270
sg568
g740
sg576
g651
sbsg257
(ipoplib
BaseForm
p750
(dp751
g575
g272
sg568
g740
sg576
g651
sbssg578
g691
sg12
g13
sg263
g742
sg265
g266
sba(ipoplib
MemVar
p752
(dp753
g566
I0
sg567
VSimplePrivateClassifierSystem
p754
sg4
g692
sg568
Nsg569
g688
sg570
I0
sg571
(dp755
g404
(ipoplib
BaseForm
p756
(dp757
g575
g411
sg568
g752
sg576
S'100'
p758
sbsg406
(ipoplib
BaseForm
p759
(dp760
g575
g414
sg568
g752
sg576
S'rand(0,99)'
p761
sbsg407
(ipoplib
MemVar
p762
(dp763
g566
I1
sg567
g417
sg4
Vruletable
p764
sg568
g752
sg569
g688
sg570
V100
p765
sg571
(dp766
g363
(ipoplib
BaseForm
p767
(dp768
g575
g378
sg568
g762
sg576
S'0.0'
p769
sbsg365
(ipoplib
MemVar
p770
(dp771
g566
I1
sg567
g369
sg4
Vparameters
p772
sg568
g762
sg569
g688
sg570
g597
sg571
(dp773
g599
(ipoplib
BaseFormStatic
p774
(dp775
g575
g18
sg568
g770
sg576
g602
sbsg772
(ipoplib
BaseForm
p776
(dp777
g575
g369
sg568
g770
sg576
g605
sbssg578
g365
sg12
g13
sg263
g369
sg265
g606
sbsg364
(ipoplib
BaseForm
p778
(dp779
g575
g372
sg568
g762
sg576
S'0.01'
p780
sbsg361
(ipoplib
BaseForm
p781
(dp782
g575
g375
sg568
g762
sg576
S'0.0'
p783
sbsg599
(ipoplib
BaseFormStatic
p784
(dp785
g575
g18
sg568
g762
sg576
S'100'
p786
sbsg362
(ipoplib
BaseForm
p787
(dp788
g575
g381
sg568
g762
sg576
S'0.0'
p789
sbsg360
(ipoplib
BaseForm
p790
(dp791
g575
g384
sg568
g762
sg576
S'sequence(0,99,1)'
p792
sbssg578
g407
sg12
g13
sg263
g417
sg265
g606
sbsg405
(ipoplib
BaseForm
p793
(dp794
g575
g420
sg568
g752
sg576
S'0.0'
p795
sbssg578
g692
sg12
g13
sg263
g754
sg265
g266
sba(ipoplib
MemVar
p796
(dp797
g566
I0
sg567
Vdouble
p798
sg4
g693
sg568
Nsg569
g688
sg570
I0
sg571
(dp799
g693
(ipoplib
BaseForm
p800
(dp801
g575
g798
sg568
g796
sg576
g605
sbssg578
g693
sg12
g13
sg263
g798
sg265
g266
sba(ipoplib
MemVar
p802
(dp803
g566
I1
sg567
VBelief_array
p804
sg4
g694
sg568
Nsg569
g688
sg570
I0
sg571
(dp805
g466
(ipoplib
BaseForm
p806
(dp807
g575
g478
sg568
g802
sg576
g605
sbsg467
(ipoplib
BaseForm
p808
(dp809
g575
g480
sg568
g802
sg576
g605
sbsg468
(ipoplib
BaseForm
p810
(dp811
g575
g482
sg568
g802
sg576
g605
sbsg471
(ipoplib
BaseForm
p812
(dp813
g575
g484
sg568
g802
sg576
g605
sbsg472
(ipoplib
BaseForm
p814
(dp815
g575
g486
sg568
g802
sg576
g605
sbsg469
(ipoplib
BaseForm
p816
(dp817
g575
g488
sg568
g802
sg576
g605
sbsg473
(ipoplib
BaseForm
p818
(dp819
g575
g490
sg568
g802
sg576
g605
sbsg599
(ipoplib
BaseForm
p820
(dp821
g575
S'int'
p822
sg568
g802
sg576
g605
sbsg474
(ipoplib
BaseForm
p823
(dp824
g575
g492
sg568
g802
sg576
g605
sbsg470
(ipoplib
BaseForm
p825
(dp826
g575
g494
sg568
g802
sg576
g605
sbssg578
g694
sg12
g13
sg263
VBelief
p827
sg265
g266
sba(ipoplib
MemVar
p828
(dp829
g566
I1
sg567
VOrder_array
p830
sg4
g695
sg568
Nsg569
g688
sg570
I0
sg571
(dp831
g451
(ipoplib
BaseForm
p832
(dp833
g575
g455
sg568
g828
sg576
g605
sbsg599
(ipoplib
BaseForm
p834
(dp835
g575
g822
sg568
g828
sg576
g605
sbsg450
(ipoplib
BaseForm
p836
(dp837
g575
g457
sg568
g828
sg576
g605
sbsg449
(ipoplib
BaseForm
p838
(dp839
g575
g459
sg568
g828
sg576
g605
sbsg448
(ipoplib
BaseForm
p840
(dp841
g575
g461
sg568
g828
sg576
g605
sbssg578
g695
sg12
g13
sg263
VOrder
p842
sg265
g266
sba(ipoplib
MemVar
p843
(dp844
g566
I1
sg567
VAsset_array
p845
sg4
g696
sg568
Nsg569
g688
sg570
I0
sg571
(dp846
g599
(ipoplib
BaseForm
p847
(dp848
g575
g822
sg568
g843
sg576
S'2'
p849
sbsg520
(ipoplib
BaseForm
p850
(dp851
g575
g526
sg568
g843
sg576
g605
sbsg522
(ipoplib
BaseForm
p852
(dp853
g575
g528
sg568
g843
sg576
S'50'
p854
sbsg521
(ipoplib
BaseForm
p855
(dp856
g575
g530
sg568
g843
sg576
S'1000'
p857
sbssg578
g696
sg12
g13
sg263
VAsset
p858
sg265
g266
sba(ipoplib
MemVar
p859
(dp860
g566
I1
sg567
Vdouble_array
p861
sg4
g697
sg568
Nsg569
g688
sg570
I0
sg571
(dp862
g599
(ipoplib
BaseForm
p863
(dp864
g575
g822
sg568
g859
sg576
g605
sbsg697
(ipoplib
BaseForm
p865
(dp866
g575
Vdouble
p867
sg568
g859
sg576
g605
sbssg578
g697
sg12
g13
sg263
g867
sg265
g266
sba(ipoplib
MemVar
p868
(dp869
g566
I1
sg567
Vdouble_array
p870
sg4
g698
sg568
Nsg569
g688
sg570
I0
sg571
(dp871
g599
(ipoplib
BaseForm
p872
(dp873
g575
g822
sg568
g868
sg576
g605
sbsg698
(ipoplib
BaseForm
p874
(dp875
g575
Vdouble
p876
sg568
g868
sg576
g605
sbssg578
g698
sg12
g13
sg263
g876
sg265
g266
sba(ipoplib
MemVar
p877
(dp878
g566
I0
sg567
Vdouble
p879
sg4
g699
sg568
Nsg569
g688
sg570
I0
sg571
(dp880
g699
(ipoplib
BaseForm
p881
(dp882
g575
g879
sg568
g877
sg576
g605
sbssg578
g699
sg12
g13
sg263
g879
sg265
g266
sba(ipoplib
MemVar
p883
(dp884
g566
I0
sg567
Vdouble
p885
sg4
g700
sg568
Nsg569
g688
sg570
I0
sg571
(dp886
g700
(ipoplib
BaseForm
p887
(dp888
g575
g885
sg568
g883
sg576
g605
sbssg578
g700
sg12
g13
sg263
g885
sg265
g266
sba(ipoplib
MemVar
p889
(dp890
g566
I0
sg567
Vdouble
p891
sg4
g701
sg568
Nsg569
g688
sg570
I0
sg571
(dp892
g701
(ipoplib
BaseForm
p893
(dp894
g575
g891
sg568
g889
sg576
g605
sbssg578
g701
sg12
g13
sg263
g891
sg265
g266
sba(ipoplib
MemVar
p895
(dp896
g566
I0
sg567
Vdouble
p897
sg4
g702
sg568
Nsg569
g688
sg570
I0
sg571
(dp898
g702
(ipoplib
BaseForm
p899
(dp900
g575
g897
sg568
g895
sg576
g605
sbssg578
g702
sg12
g13
sg263
g897
sg265
g266
sba(ipoplib
MemVar
p901
(dp902
g566
I0
sg567
Vint
p903
sg4
g703
sg568
Nsg569
g688
sg570
I0
sg571
(dp904
g703
(ipoplib
BaseForm
p905
(dp906
g575
g903
sg568
g901
sg576
S'rand(10,60)'
p907
sbssg578
g703
sg12
g13
sg263
g903
sg265
g266
sba(ipoplib
MemVar
p908
(dp909
g566
I0
sg567
Vint
p910
sg4
g704
sg568
Nsg569
g688
sg570
I0
sg571
(dp911
g704
(ipoplib
BaseForm
p912
(dp913
g575
g910
sg568
g908
sg576
S'rand(5,10)'
p914
sbssg578
g704
sg12
g13
sg263
g910
sg265
g266
sba(ipoplib
MemVar
p915
(dp916
g566
I0
sg567
Vint
p917
sg4
g705
sg568
Nsg569
g688
sg570
I0
sg571
(dp918
g705
(ipoplib
BaseForm
p919
(dp920
g575
g917
sg568
g915
sg576
g605
sbssg578
g705
sg12
g13
sg263
g917
sg265
g266
sba(ipoplib
MemVar
p921
(dp922
g566
I0
sg567
Vdouble
p923
sg4
g706
sg568
Nsg569
g688
sg570
I0
sg571
(dp924
g706
(ipoplib
BaseForm
p925
(dp926
g575
g923
sg568
g921
sg576
S'-1'
p927
sbssg578
g706
sg12
g13
sg263
g923
sg265
g266
sba(ipoplib
MemVar
p928
(dp929
g566
I0
sg567
Vdouble
p930
sg4
g707
sg568
Nsg569
g688
sg570
I0
sg571
(dp931
g707
(ipoplib
BaseForm
p932
(dp933
g575
g930
sg568
g928
sg576
S'-1'
p934
sbssg578
g707
sg12
g13
sg263
g930
sg265
g266
sba(ipoplib
MemVar
p935
(dp936
g566
I0
sg567
Vdouble
p937
sg4
g708
sg568
Nsg569
g688
sg570
I0
sg571
(dp938
g708
(ipoplib
BaseForm
p939
(dp940
g575
g937
sg568
g935
sg576
S'-1'
p941
sbssg578
g708
sg12
g13
sg263
g937
sg265
g266
sba(ipoplib
MemVar
p942
(dp943
g566
I0
sg567
Vint
p944
sg4
g709
sg568
Nsg569
g688
sg570
I0
sg571
(dp945
g709
(ipoplib
BaseForm
p946
(dp947
g575
g944
sg568
g942
sg576
g605
sbssg578
g709
sg12
g13
sg263
g944
sg265
g266
sba(ipoplib
MemVar
p948
(dp949
g566
I0
sg567
Vdouble
p950
sg4
g710
sg568
Nsg569
g688
sg570
I0
sg571
(dp951
g710
(ipoplib
BaseForm
p952
(dp953
g575
g950
sg568
g948
sg576
S'2.25'
p954
sbssg578
g710
sg12
g13
sg263
g950
sg265
g266
sbasg265
g266
sba(ipoplib
Agent
p955
(dp956
g557
(lp957
Vid
p958
aVassets
p959
aVclearingmechanism
p960
asg4
VClearinghouse
p961
sg562
(lp962
(ipoplib
MemVar
p963
(dp964
g566
I0
sg567
Vint
p965
sg4
g958
sg568
Nsg569
g955
sg570
I0
sg571
(dp966
g958
(ipoplib
BaseForm
p967
(dp968
g575
g18
sg568
g963
sg576
S'0'
p969
sbssg578
g958
sg12
g13
sg263
g965
sg265
g266
sba(ipoplib
MemVar
p970
(dp971
g566
I1
sg567
VAsset_array
p972
sg4
g959
sg568
Nsg569
g955
sg570
I0
sg571
(dp973
g599
(ipoplib
BaseForm
p974
(dp975
g575
g822
sg568
g970
sg576
g605
sbsg520
(ipoplib
BaseForm
p976
(dp977
g575
g526
sg568
g970
sg576
g605
sbsg522
(ipoplib
BaseForm
p978
(dp979
g575
g528
sg568
g970
sg576
g605
sbsg521
(ipoplib
BaseForm
p980
(dp981
g575
g530
sg568
g970
sg576
g605
sbssg578
g959
sg12
g13
sg263
VAsset
p982
sg265
g266
sba(ipoplib
MemVar
p983
(dp984
g566
I0
sg567
VClearingMechanism
p985
sg4
g960
sg568
Nsg569
g955
sg570
I0
sg571
(dp986
g539
(ipoplib
MemVar
p987
(dp988
g566
I1
sg567
g543
sg4
g539
sg568
g983
sg569
g955
sg570
I0
sg571
(dp989
g539
(ipoplib
BaseForm
p990
(dp991
g575
Vdouble
p992
sg568
g987
sg576
g605
sbsg599
(ipoplib
BaseForm
p993
(dp994
g575
g822
sg568
g987
sg576
g605
sbssg578
g539
sg12
g13
sg263
g992
sg265
g606
sbsg538
(ipoplib
MemVar
p995
(dp996
g566
I1
sg567
g545
sg4
g538
sg568
g983
sg569
g955
sg570
I0
sg571
(dp997
g451
(ipoplib
BaseForm
p998
(dp999
g575
g455
sg568
g995
sg576
g605
sbsg599
(ipoplib
BaseForm
p1000
(dp1001
g575
g822
sg568
g995
sg576
g605
sbsg450
(ipoplib
BaseForm
p1002
(dp1003
g575
g457
sg568
g995
sg576
g605
sbsg449
(ipoplib
BaseForm
p1004
(dp1005
g575
g459
sg568
g995
sg576
g605
sbsg448
(ipoplib
BaseForm
p1006
(dp1007
g575
g461
sg568
g995
sg576
g605
sbssg578
g538
sg12
g13
sg263
VOrder
p1008
sg265
g606
sbsg537
(ipoplib
MemVar
p1009
(dp1010
g566
I1
sg567
g547
sg4
g537
sg568
g983
sg569
g955
sg570
I0
sg571
(dp1011
g451
(ipoplib
BaseForm
p1012
(dp1013
g575
g455
sg568
g1009
sg576
g605
sbsg599
(ipoplib
BaseForm
p1014
(dp1015
g575
g822
sg568
g1009
sg576
g605
sbsg450
(ipoplib
BaseForm
p1016
(dp1017
g575
g457
sg568
g1009
sg576
g605
sbsg449
(ipoplib
BaseForm
p1018
(dp1019
g575
g459
sg568
g1009
sg576
g605
sbsg448
(ipoplib
BaseForm
p1020
(dp1021
g575
g461
sg568
g1009
sg576
g605
sbssg578
g537
sg12
g13
sg263
VOrder
p1022
sg265
g606
sbsg535
(ipoplib
BaseForm
p1023
(dp1024
g575
g549
sg568
g983
sg576
g605
sbsg536
(ipoplib
BaseForm
p1025
(dp1026
g575
g551
sg568
g983
sg576
g605
sbssg578
g960
sg12
g13
sg263
g985
sg265
g266
sbasg265
g266
sba(ipoplib
Agent
p1027
(dp1028
g557
(lp1029
Vid
p1030
asg4
VBank
p1031
sg562
(lp1032
(ipoplib
MemVar
p1033
(dp1034
g566
I0
sg567
Vint
p1035
sg4
g1030
sg568
Nsg569
g1027
sg570
I0
sg571
(dp1036
g1030
(ipoplib
BaseForm
p1037
(dp1038
g575
g18
sg568
g1033
sg576
g969
sbssg578
g1030
sg12
g13
sg263
g1035
sg265
g266
sbasg265
g266
sba(ipoplib
Agent
p1039
(dp1040
g557
(lp1041
Vid
p1042
aVearnings
p1043
aVearnings_payout
p1044
aVequity
p1045
aVcurrent_shares_outstanding
p1046
aVcurrent_dividend_per_share
p1047
aVstock
p1048
asg4
VFirm
p1049
sg562
(lp1050
(ipoplib
MemVar
p1051
(dp1052
g566
I0
sg567
Vint
p1053
sg4
g1042
sg568
Nsg569
g1039
sg570
I0
sg571
(dp1054
g1042
(ipoplib
BaseForm
p1055
(dp1056
g575
g18
sg568
g1051
sg576
g969
sbssg578
g1042
sg12
g13
sg263
g1053
sg265
g266
sba(ipoplib
MemVar
p1057
(dp1058
g566
I0
sg567
Vdouble
p1059
sg4
g1043
sg568
Nsg569
g1039
sg570
I0
sg571
(dp1060
g1043
(ipoplib
BaseForm
p1061
(dp1062
g575
g1059
sg568
g1057
sg576
g605
sbssg578
g1043
sg12
g13
sg263
g1059
sg265
g266
sba(ipoplib
MemVar
p1063
(dp1064
g566
I0
sg567
Vdouble
p1065
sg4
g1044
sg568
Nsg569
g1039
sg570
I0
sg571
(dp1066
g1044
(ipoplib
BaseForm
p1067
(dp1068
g575
g1065
sg568
g1063
sg576
g605
sbssg578
g1044
sg12
g13
sg263
g1065
sg265
g266
sba(ipoplib
MemVar
p1069
(dp1070
g566
I0
sg567
Vdouble
p1071
sg4
g1045
sg568
Nsg569
g1039
sg570
I0
sg571
(dp1072
g1045
(ipoplib
BaseForm
p1073
(dp1074
g575
g1071
sg568
g1069
sg576
S'20000000'
p1075
sbssg578
g1045
sg12
g13
sg263
g1071
sg265
g266
sba(ipoplib
MemVar
p1076
(dp1077
g566
I0
sg567
Vdouble
p1078
sg4
g1046
sg568
Nsg569
g1039
sg570
I0
sg571
(dp1079
g1046
(ipoplib
BaseForm
p1080
(dp1081
g575
g1078
sg568
g1076
sg576
S'400000'
p1082
sbssg578
g1046
sg12
g13
sg263
g1078
sg265
g266
sba(ipoplib
MemVar
p1083
(dp1084
g566
I0
sg567
Vdouble
p1085
sg4
g1047
sg568
Nsg569
g1039
sg570
I0
sg571
(dp1086
g1047
(ipoplib
BaseForm
p1087
(dp1088
g575
g1085
sg568
g1083
sg576
g651
sbssg578
g1047
sg12
g13
sg263
g1085
sg265
g266
sba(ipoplib
MemVar
p1089
(dp1090
g566
I0
sg567
VStock
p1091
sg4
g1048
sg568
Nsg569
g1039
sg570
I0
sg571
(dp1092
g502
(ipoplib
MemVar
p1093
(dp1094
g566
I1
sg567
g507
sg4
Vprices
p1095
sg568
g1089
sg569
g1039
sg570
V100
p1096
sg571
(dp1097
g1095
(ipoplib
BaseForm
p1098
(dp1099
g575
g507
sg568
g1093
sg576
S'50+normal(0,1)'
p1100
sbsg599
(ipoplib
BaseFormStatic
p1101
(dp1102
g575
g18
sg568
g1093
sg576
S'100'
p1103
sbssg578
g502
sg12
g13
sg263
g507
sg265
g606
sbsg501
(ipoplib
BaseForm
p1104
(dp1105
g575
g509
sg568
g1089
sg576
g605
sbsg499
(ipoplib
BaseForm
p1106
(dp1107
g575
g511
sg568
g1089
sg576
g605
sbsg503
(ipoplib
MemVar
p1108
(dp1109
g566
I1
sg567
g513
sg4
Vreturns
p1110
sg568
g1089
sg569
g1039
sg570
V100
p1111
sg571
(dp1112
g599
(ipoplib
BaseFormStatic
p1113
(dp1114
g575
g18
sg568
g1108
sg576
S'100'
p1115
sbsg1110
(ipoplib
BaseForm
p1116
(dp1117
g575
g513
sg568
g1108
sg576
S'normal(0,1)'
p1118
sbssg578
g503
sg12
g13
sg263
g513
sg265
g606
sbsg500
(ipoplib
BaseForm
p1119
(dp1120
g575
g515
sg568
g1089
sg576
g605
sbssg578
g1048
sg12
g13
sg263
g1091
sg265
g266
sbasg265
g266
sbasS'constants'
p1121
(lp1122
(ipoplib
Constant
p1123
(dp1124
S'value'
p1125
g605
sg4
Vnr_params
p1126
sS'ctype'
p1127
Vint
p1128
sg265
V10, Number of parameters in a portfolio rule.
p1129
sba(ipoplib
Constant
p1130
(dp1131
g1125
g605
sg4
Vprint_debug
p1132
sg1127
Vint
p1133
sg265
V0 or 1, Boolean for debugging print statements.
p1134
sba(ipoplib
Constant
p1135
(dp1136
g1125
g605
sg4
Vprint_log
p1137
sg1127
Vint
p1138
sg265
V0 or 1, A flag to print logging output to terminal or to file.
p1139
sbasbsS'numAgents'
p1140
(dp1141
VClearinghouse
p1142
I1
sVFirm
p1143
I2
sVFinancialAgent
p1144
I1
sVHousehold
p1145
I400
sVBank
p1146
I1
ssS'pop'
p1147
(lp1148
(ipoplib
AgentInstance
p1149
(dp1150
S'instantiated'
p1151
I1
sg12
g13
sS'values'
p1152
(dp1153
g960
(lp1154
F0.0
aI0
a(lp1155
a(lp1156
a(lp1157
asg958
I1
sg959
(lp1158
ssS'agentname'
p1159
g1142
sba(ipoplib
AgentInstance
p1160
(dp1161
g1151
I1
sg12
g13
sg1152
(dp1162
g1044
F0.0
sg1046
F400000.0
sg1043
F0.0
sg1045
F20000000.0
sg1047
F1.0
sg1042
I2
sg1048
(lp1163
I0
aI0
aI0
a(lp1164
F48.525405615396387
aF50.456012362147611
aF50.120516320658204
aF50.357643440519546
aF51.002766107255766
aF48.264903915415111
aF48.94671193478846
aF50.176885203223989
aF48.566375750367058
aF49.911434912284726
aF49.172027781101349
aF50.211406350480146
aF49.115129251033075
aF49.933708997127482
aF49.564271112385022
aF51.955241136823886
aF47.597904505825859
aF48.964200653898473
aF49.201879624897195
aF50.168985651048025
aF50.582655608718888
aF49.801720290604408
aF48.537242877057764
aF48.244612143114608
aF51.143532796970185
aF49.507102852242809
aF49.324288774314653
aF51.081476044961207
aF49.137416457766008
aF50.999914437878211
aF50.314558008144772
aF53.227229411707036
aF49.976546223145604
aF48.735154399874645
aF52.075381464827018
aF50.208705836045553
aF51.58617442929836
aF49.882029797384384
aF49.988839923901089
aF50.077700728755794
aF49.898490765587646
aF50.324013774177999
aF49.256536528934518
aF51.025162370079101
aF51.46517970877693
aF48.301266017623597
aF49.446148531706534
aF51.035332544728547
aF49.853080743900428
aF50.016626517237412
aF49.300978057745709
aF50.748524599446938
aF50.275938999387229
aF49.720566233779962
aF50.834457564057324
aF50.243036857153122
aF50.66042508794753
aF50.554087889001714
aF49.892798677016479
aF49.055009801028689
aF49.814026834286842
aF49.185348977509726
aF50.721102032558768
aF49.641868155779925
aF49.730413852105649
aF50.056958739798858
aF49.032042848955562
aF49.854764435331333
aF50.111877447761309
aF51.247610096498903
aF51.00824782458767
aF49.062803214080141
aF50.010878370138698
aF49.748706508533985
aF50.152334041228826
aF48.759382663812744
aF49.258688341310688
aF50.398643473032621
aF50.191068108409588
aF51.179514930097909
aF50.49398227183854
aF48.120218302977506
aF50.662722666871112
aF51.506662387527875
aF50.462247310818817
aF50.284478859458936
aF50.391158240509192
aF50.247806021744793
aF49.321539281542371
aF51.497297455460561
aF49.384219313429313
aF50.660894480153495
aF50.189706192165502
aF49.770451693384096
aF49.885247730889091
aF50.256006387640966
aF49.519187475765527
aF49.773896768260258
aF51.239842027084009
aF48.573745013323347
aa(lp1165
F-0.81218190935754808
aF-1.2302609261059636
aF-0.25356912507822271
aF1.2190840146469071
aF-2.277912669035477
aF1.1782262174488569
aF-0.74767298437002705
aF-0.25648170822749317
aF-1.6362090585185243
aF-0.18410583122592297
aF0.70587059663235774
aF-0.42396653579060545
aF1.4137669064839571
aF-0.038956671406741153
aF0.14137413445685537
aF0.21413920197434033
aF0.78184776429418557
aF-1.0155453765534506
aF0.46630503965927333
aF-0.35155828197442135
aF-0.063181878585448104
aF-0.73590286711997954
aF0.8289039075653285
aF-0.63182877926134295
aF0.10836480370996557
aF1.0026998919827868
aF-0.71131600643614401
aF-1.9927624561819375
aF-0.58899385451219932
aF-1.3202504182492965
aF-0.54513447315463825
aF-0.98726834516418571
aF-0.7686068365498171
aF0.54310985793377653
aF0.39458282600704603
aF-0.1767400239097151
aF-1.0990207509222425
aF0.34736691178143253
aF0.76677407331378422
aF-1.0462510459346692
aF1.9149752041170569
aF-0.47873332678679981
aF0.68749444697403883
aF-0.030515755905156358
aF0.023371041257064795
aF-1.9272349217932496
aF-0.084546392625021893
aF0.49440227033066719
aF0.18881692264011407
aF-0.35294611350306165
aF0.13314046862654871
aF1.1151459592332755
aF-0.12520697793099481
aF-0.11742320856240163
aF-0.057172440254029039
aF-2.0850818161398683
aF0.31382047518884965
aF-0.59751186280491153
aF-0.56500087730896797
aF1.1145452696642564
aF1.6321666702661304
aF-0.24021679527148646
aF0.18598757332081581
aF-1.1548639022318543
aF-0.60965730392927187
aF-1.0479860027278147
aF0.37136324004262861
aF-0.19573286363298412
aF-0.14856476373117108
aF0.20014782403056278
aF-1.5159676496884857
aF-1.9822913277396284
aF-0.29983052516489483
aF0.12744320044728155
aF-0.97402148139987366
aF0.52774169413084526
aF1.8830441752686913
aF-0.605609743265898
aF-0.46641092828747599
aF1.1531127114087012
aF0.085056994727770938
aF-0.71709254918888443
aF0.98479139266207383
aF-0.20163038654405097
aF-0.012259581197971102
aF-0.59377436405200368
aF1.008437180627519
aF0.0032891674457797295
aF-0.43959491970449777
aF-0.39514948662566707
aF0.66237683760915989
aF0.21344916868829586
aF-0.068933925687240549
aF-0.090094738498373836
aF-0.46171552330450705
aF-0.0097002391957997734
aF0.38634824318735594
aF1.8348935977571292
aF-2.0067507313671813
aF1.2384391501932899
aassg1159
g1143
sba(ipoplib
AgentInstance
p1166
(dp1167
g1151
I1
sg12
g13
sg1152
(dp1168
g1044
F0.0
sg1046
F400000.0
sg1043
F0.0
sg1045
F20000000.0
sg1047
F1.0
sg1042
I3
sg1048
(lp1169
I0
aI0
aI0
a(lp1170
F49.481653093827461
aF48.89727232206063
aF49.170988474211306
aF50.091235156532932
aF52.512950593211855
aF49.707961004519746
aF51.199530333825244
aF50.940378731848
aF50.47302896530497
aF49.96066205364427
aF50.166413091217265
aF50.91714703598911
aF50.645846425666605
aF52.158861440120781
aF50.365580552034487
aF49.994925337089647
aF50.164628703009697
aF48.92942088705189
aF50.290032138388739
aF50.400313311217872
aF51.131337077328993
aF49.622062572575508
aF50.977906820568407
aF51.880886019191664
aF49.858071441403347
aF49.071494128636836
aF50.661590338336836
aF49.845654405540238
aF51.355817755755041
aF49.305434409092335
aF49.759028598293817
aF49.901470268270131
aF50.89283836361308
aF49.614140575991939
aF50.227409017713335
aF49.991718161897751
aF48.944143449840148
aF48.942340807099207
aF50.458022768837225
aF50.122460385716572
aF51.147185477709691
aF48.027084803795702
aF51.042899040960165
aF49.590021829694514
aF51.511662970833584
aF48.047811904001087
aF48.73227657534396
aF48.594984838766429
aF47.760660364561801
aF50.110424035111784
aF50.796211189611142
aF50.314384864578685
aF51.583600833585081
aF49.185968740615778
aF50.729763280982702
aF49.080209185614166
aF48.616743551297162
aF49.581651410238479
aF50.447998531845833
aF52.146283839549973
aF50.055519815590351
aF48.926728081637087
aF51.24121667307805
aF50.224605308374457
aF49.460819966098207
aF49.504365851660751
aF50.962677550384228
aF49.638865088227071
aF49.42739593041096
aF50.762824873413393
aF49.410693741383483
aF50.905999764193751
aF49.74799021483873
aF49.11964115281247
aF48.796759027396845
aF49.882731798362798
aF50.151510438462786
aF48.821143101889035
aF50.174145409938724
aF50.574444492435426
aF51.05736664179625
aF48.043437026988649
aF49.539622837644956
aF50.033444505370895
aF49.591005551082631
aF48.707188257291932
aF49.746591109841809
aF50.20956678938078
aF49.43932824762863
aF49.960383888641942
aF53.025445882511839
aF49.436578686260049
aF51.611345414076979
aF50.399236366043418
aF51.40268071615008
aF49.288116514594755
aF51.005026951450041
aF49.528231021615603
aF49.167453060301455
aF50.001787102277326
aa(lp1171
F1.0245417157132179
aF-0.69446479677968465
aF-1.44087877476837
aF0.92453303708352208
aF0.16229092776805631
aF1.6559082622627184
aF0.97707884411990864
aF-1.6543677232483507
aF0.57727050538705704
aF-0.19115753862381218
aF0.75632066713422774
aF-0.15176236484594152
aF1.002365348463351
aF-0.35591145655221768
aF0.063882907962468191
aF-0.35920368315655316
aF-0.85404862653658686
aF1.4330404237588381
aF0.18674207901331324
aF-0.62276256562699828
aF-1.3355123189628857
aF-1.9206512638106068
aF0.011560572933912766
aF-1.4858642797341586
aF-1.0774944747521362
aF-1.2351327061055513
aF0.28492822806108603
aF1.0002353560148209
aF0.24992061060933021
aF0.0049117632494697031
aF-1.9730209522209285
aF-0.78838627720221421
aF1.1052259797386359
aF0.57489554811060462
aF1.1987033831580531
aF1.5737167153085883
aF-0.6350316572671616
aF1.4732528171323849
aF-0.76128364323359099
aF0.43186798827964723
aF1.4583550138396701
aF0.30148843672346126
aF-0.086750338822088102
aF0.49063489138504662
aF0.39859727174565801
aF0.54452233842820374
aF-0.83492252640748177
aF0.34719757206048707
aF-0.56749923151510329
aF-0.025593210385761647
aF-1.3378729875752342
aF-0.58187697412551764
aF-1.8556340144433985
aF0.49838261112565185
aF1.471314206107488
aF-0.010677279288051168
aF-0.17262432690314286
aF-0.85822221831730794
aF2.0043255655425529
aF1.1233965191457229
aF-0.34068956169120979
aF-1.6390795563287304
aF0.9469326937731305
aF0.51585817722649985
aF0.075958440009438952
aF0.79056487481431481
aF-1.8096296437277033
aF-0.41153439604183856
aF-0.3811948946039152
aF0.69990579693441168
aF1.1337857480173237
aF0.28073372098211724
aF0.88012463013445141
aF0.42950016430533011
aF0.74164258657984705
aF0.89516587385695701
aF-0.82534082505805384
aF1.5011297747917554
aF-0.61480752964272845
aF0.28734833700278678
aF0.88531599539584949
aF-0.35376540415181412
aF0.62584949406965784
aF0.29798093433590866
aF-0.11382454931638371
aF-2.0993749543104649
aF-0.51055172548472061
aF-1.3238991501665651
aF-0.29956569032588426
aF-0.22873003628975844
aF0.083351934107045528
aF2.0317751186639472
aF-1.9324600191498509
aF1.574094357281778
aF0.44799992049095444
aF0.13693572350975775
aF1.1545416013708796
aF0.43911206742153586
aF0.34159698212841672
aF-0.98574312341032944
aassg1159
g1143
sba(ipoplib
AgentInstance
p1172
(dp1173
g1151
I1
sg12
g13
sg1152
(dp1174
g559
(lp1175
I100
a(lp1176
(lp1177
I0
aI0
aF0.0
aF0.0
aF0.01
a(lp1178
F0.0
aF0.0
aF0.0
aF0.0
aF0.0
aaa(lp1179
I1
aI0
aF0.0
aF0.0
aF0.01
a(lp1180
F0.0
aF0.0
aF0.0
aF0.0
aF0.0
aaa(lp1181
I2
aI0
aF0.0
aF0.0
aF0.01
a(lp1182
F0.0
aF0.0
aF0.0
aF0.0
aF0.0
aaa(lp1183
I3
aI0
aF0.0
aF0.0
aF0.01
a(lp1184
F0.0
aF0.0
aF0.0
aF0.0
aF0.0
aaa(lp1185
I4
aI0
aF0.0
aF0.0
aF0.01
a(lp1186
F0.0
aF0.0
aF0.0
aF0.0
aF0.0
aaa(lp1187
I5
aI0
aF0.0
aF0.0
aF0.01
a(lp1188
F0.0
aF0.0
aF0.0
aF0.0
aF0.0
aaa(lp1189
I6
aI0
aF0.0
aF0.0
aF0.01
a(lp1190
F0.0
aF0.0
aF0.0
aF0.0
aF0.0
aaa(lp1191
I7
aI0
aF0.0
aF0.0
aF0.01
a(lp1192
F0.0
aF0.0
aF0.0
aF0.0
aF0.0
aaa(lp1193
I8
aI0
aF0.0
aF0.0
aF0.01
a(lp1194
F0.0
aF0.0
aF0.0
aF0.0
aF0.0
aaa(lp1195
I9
aI0
aF0.0
aF0.0
aF0.01
a(lp1196
F0.0
aF0.0
aF0.0
aF0.0
aF0.0
aaa(lp1197
I10
aI0
aF0.0
aF0.0
aF0.01
a(lp1198
F0.0
aF0.0
aF0.0
aF0.0
aF0.0
aaa(lp1199
I11
aI0
aF0.0
aF0.0
aF0.01
a(lp1200
F0.0
aF0.0
aF0.0
aF0.0
aF0.0
aaa(lp1201
I12
aI0
aF0.0
aF0.0
aF0.01
a(lp1202
F0.0
aF0.0
aF0.0
aF0.0
aF0.0
aaa(lp1203
I13
aI0
aF0.0
aF0.0
aF0.01
a(lp1204
F0.0
aF0.0
aF0.0
aF0.0
aF0.0
aaa(lp1205
I14
aI0
aF0.0
aF0.0
aF0.01
a(lp1206
F0.0
aF0.0
aF0.0
aF0.0
aF0.0
aaa(lp1207
I15
aI0
aF0.0
aF0.0
aF0.01
a(lp1208
F0.0
aF0.0
aF0.0
aF0.0
aF0.0
aaa(lp1209
I16
aI0
aF0.0
aF0.0
aF0.01
a(lp1210
F0.0
aF0.0
aF0.0
aF0.0
aF0.0
aaa(lp1211
I17
aI0
aF0.0
aF0.0
aF0.01
a(lp1212
F0.0
aF0.0
aF0.0
aF0.0
aF0.0
aaa(lp1213
I18
aI0
aF0.0
aF0.0
aF0.01
a(lp1214
F0.0
aF0.0
aF0.0
aF0.0
aF0.0
aaa(lp1215
I19
aI0
aF0.0
aF0.0
aF0.01
a(lp1216
F0.0
aF0.0
aF0.0
aF0.0
aF0.0
aaa(lp1217
I20
aI0
aF0.0
aF0.0
aF0.01
a(lp1218
F0.0
aF0.0
aF0.0
aF0.0
aF0.0
aaa(lp1219
I21
aI0
aF0.0
aF0.0
aF0.01
a(lp1220
F0.0
aF0.0
aF0.0
aF0.0
aF0.0
aaa(lp1221
I22
aI0
aF0.0
aF0.0
aF0.01
a(lp1222
F0.0
aF0.0
aF0.0
aF0.0
aF0.0
aaa(lp1223
I23
aI0
aF0.0
aF0.0
aF0.01
a(lp1224
F0.0
aF0.0
aF0.0
aF0.0
aF0.0
aaa(lp1225
I24
aI0
aF0.0
aF0.0
aF0.01
a(lp1226
F0.0
aF0.0
aF0.0
aF0.0
aF0.0
aaa(lp1227
I25
aI0
aF0.0
aF0.0
aF0.01
a(lp1228
F0.0
aF0.0
aF0.0
aF0.0
aF0.0
aaa(lp1229
I26
aI0
aF0.0
aF0.0
aF0.01
a(lp1230
F0.0
aF0.0
aF0.0
aF0.0
aF0.0
aaa(lp1231
I27
aI0
aF0.0
aF0.0
aF0.01
a(lp1232
F0.0
aF0.0
aF0.0
aF0.0
aF0.0
aaa(lp1233
I28
aI0
aF0.0
aF0.0
aF0.01
a(lp1234
F0.0
aF0.0
aF0.0
aF0.0
aF0.0
aaa(lp1235
I29
aI0
aF0.0
aF0.0
aF0.01
a(lp1236
F0.0
aF0.0
aF0.0
aF0.0
aF0.0
aaa(lp1237
I30
aI0
aF0.0
aF0.0
aF0.01
a(lp1238
F0.0
aF0.0
aF0.0
aF0.0
aF0.0
aaa(lp1239
I31
aI0
aF0.0
aF0.0
aF0.01
a(lp1240
F0.0
aF0.0
aF0.0
aF0.0
aF0.0
aaa(lp1241
I32
aI0
aF0.0
aF0.0
aF0.01
a(lp1242
F0.0
aF0.0
aF0.0
aF0.0
aF0.0
aaa(lp1243
I33
aI0
aF0.0
aF0.0
aF0.01
a(lp1244
F0.0
aF0.0
aF0.0
aF0.0
aF0.0
aaa(lp1245
I34
aI0
aF0.0
aF0.0
aF0.01
a(lp1246
F0.0
aF0.0
aF0.0
aF0.0
aF0.0
aaa(lp1247
I35
aI0
aF0.0
aF0.0
aF0.01
a(lp1248
F0.0
aF0.0
aF0.0
aF0.0
aF0.0
aaa(lp1249
I36
aI0
aF0.0
aF0.0
aF0.01
a(lp1250
F0.0
aF0.0
aF0.0
aF0.0
aF0.0
aaa(lp1251
I37
aI0
aF0.0
aF0.0
aF0.01
a(lp1252
F0.0
aF0.0
aF0.0
aF0.0
aF0.0
aaa(lp1253
I38
aI0
aF0.0
aF0.0
aF0.01
a(lp1254
F0.0
aF0.0
aF0.0
aF0.0
aF0.0
aaa(lp1255
I39
aI0
aF0.0
aF0.0
aF0.01
a(lp1256
F0.0
aF0.0
aF0.0
aF0.0
aF0.0
aaa(lp1257
I40
aI0
aF0.0
aF0.0
aF0.01
a(lp1258
F0.0
aF0.0
aF0.0
aF0.0
aF0.0
aaa(lp1259
I41
aI0
aF0.0
aF0.0
aF0.01
a(lp1260
F0.0
aF0.0
aF0.0
aF0.0
aF0.0
aaa(lp1261
I42
aI0
aF0.0
aF0.0
aF0.01
a(lp1262
F0.0
aF0.0
aF0.0
aF0.0
aF0.0
aaa(lp1263
I43
aI0
aF0.0
aF0.0
aF0.01
a(lp1264
F0.0
aF0.0
aF0.0
aF0.0
aF0.0
aaa(lp1265
I44
aI0
aF0.0
aF0.0
aF0.01
a(lp1266
F0.0
aF0.0
aF0.0
aF0.0
aF0.0
aaa(lp1267
I45
aI0
aF0.0
aF0.0
aF0.01
a(lp1268
F0.0
aF0.0
aF0.0
aF0.0
aF0.0
aaa(lp1269
I46
aI0
aF0.0
aF0.0
aF0.01
a(lp1270
F0.0
aF0.0
aF0.0
aF0.0
aF0.0
aaa(lp1271
I47
aI0
aF0.0
aF0.0
aF0.01
a(lp1272
F0.0
aF0.0
aF0.0
aF0.0
aF0.0
aaa(lp1273
I48
aI0
aF0.0
aF0.0
aF0.01
a(lp1274
F0.0
aF0.0
aF0.0
aF0.0
aF0.0
aaa(lp1275
I49
aI0
aF0.0
aF0.0
aF0.01
a(lp1276
F0.0
aF0.0
aF0.0
aF0.0
aF0.0
aaa(lp1277
I50
aI0
aF0.0
aF0.0
aF0.01
a(lp1278
F0.0
aF0.0
aF0.0
aF0.0
aF0.0
aaa(lp1279
I51
aI0
aF0.0
aF0.0
aF0.01
a(lp1280
F0.0
aF0.0
aF0.0
aF0.0
aF0.0
aaa(lp1281
I52
aI0
aF0.0
aF0.0
aF0.01
a(lp1282
F0.0
aF0.0
aF0.0
aF0.0
aF0.0
aaa(lp1283
I53
aI0
aF0.0
aF0.0
aF0.01
a(lp1284
F0.0
aF0.0
aF0.0
aF0.0
aF0.0
aaa(lp1285
I54
aI0
aF0.0
aF0.0
aF0.01
a(lp1286
F0.0
aF0.0
aF0.0
aF0.0
aF0.0
aaa(lp1287
I55
aI0
aF0.0
aF0.0
aF0.01
a(lp1288
F0.0
aF0.0
aF0.0
aF0.0
aF0.0
aaa(lp1289
I56
aI0
aF0.0
aF0.0
aF0.01
a(lp1290
F0.0
aF0.0
aF0.0
aF0.0
aF0.0
aaa(lp1291
I57
aI0
aF0.0
aF0.0
aF0.01
a(lp1292
F0.0
aF0.0
aF0.0
aF0.0
aF0.0
aaa(lp1293
I58
aI0
aF0.0
aF0.0
aF0.01
a(lp1294
F0.0
aF0.0
aF0.0
aF0.0
aF0.0
aaa(lp1295
I59
aI0
aF0.0
aF0.0
aF0.01
a(lp1296
F0.0
aF0.0
aF0.0
aF0.0
aF0.0
aaa(lp1297
I60
aI0
aF0.0
aF0.0
aF0.01
a(lp1298
F0.0
aF0.0
aF0.0
aF0.0
aF0.0
aaa(lp1299
I61
aI0
aF0.0
aF0.0
aF0.01
a(lp1300
F0.0
aF0.0
aF0.0
aF0.0
aF0.0
aaa(lp1301
I62
aI0
aF0.0
aF0.0
aF0.01
a(lp1302
F0.0
aF0.0
aF0.0
aF0.0
aF0.0
aaa(lp1303
I63
aI0
aF0.0
aF0.0
aF0.01
a(lp1304
F0.0
aF0.0
aF0.0
aF0.0
aF0.0
aaa(lp1305
I64
aI0
aF0.0
aF0.0
aF0.01
a(lp1306
F0.0
aF0.0
aF0.0
aF0.0
aF0.0
aaa(lp1307
I65
aI0
aF0.0
aF0.0
aF0.01
a(lp1308
F0.0
aF0.0
aF0.0
aF0.0
aF0.0
aaa(lp1309
I66
aI0
aF0.0
aF0.0
aF0.01
a(lp1310
F0.0
aF0.0
aF0.0
aF0.0
aF0.0
aaa(lp1311
I67
aI0
aF0.0
aF0.0
aF0.01
a(lp1312
F0.0
aF0.0
aF0.0
aF0.0
aF0.0
aaa(lp1313
I68
aI0
aF0.0
aF0.0
aF0.01
a(lp1314
F0.0
aF0.0
aF0.0
aF0.0
aF0.0
aaa(lp1315
I69
aI0
aF0.0
aF0.0
aF0.01
a(lp1316
F0.0
aF0.0
aF0.0
aF0.0
aF0.0
aaa(lp1317
I70
aI0
aF0.0
aF0.0
aF0.01
a(lp1318
F0.0
aF0.0
aF0.0
aF0.0
aF0.0
aaa(lp1319
I71
aI0
aF0.0
aF0.0
aF0.01
a(lp1320
F0.0
aF0.0
aF0.0
aF0.0
aF0.0
aaa(lp1321
I72
aI0
aF0.0
aF0.0
aF0.01
a(lp1322
F0.0
aF0.0
aF0.0
aF0.0
aF0.0
aaa(lp1323
I73
aI0
aF0.0
aF0.0
aF0.01
a(lp1324
F0.0
aF0.0
aF0.0
aF0.0
aF0.0
aaa(lp1325
I74
aI0
aF0.0
aF0.0
aF0.01
a(lp1326
F0.0
aF0.0
aF0.0
aF0.0
aF0.0
aaa(lp1327
I75
aI0
aF0.0
aF0.0
aF0.01
a(lp1328
F0.0
aF0.0
aF0.0
aF0.0
aF0.0
aaa(lp1329
I76
aI0
aF0.0
aF0.0
aF0.01
a(lp1330
F0.0
aF0.0
aF0.0
aF0.0
aF0.0
aaa(lp1331
I77
aI0
aF0.0
aF0.0
aF0.01
a(lp1332
F0.0
aF0.0
aF0.0
aF0.0
aF0.0
aaa(lp1333
I78
aI0
aF0.0
aF0.0
aF0.01
a(lp1334
F0.0
aF0.0
aF0.0
aF0.0
aF0.0
aaa(lp1335
I79
aI0
aF0.0
aF0.0
aF0.01
a(lp1336
F0.0
aF0.0
aF0.0
aF0.0
aF0.0
aaa(lp1337
I80
aI0
aF0.0
aF0.0
aF0.01
a(lp1338
F0.0
aF0.0
aF0.0
aF0.0
aF0.0
aaa(lp1339
I81
aI0
aF0.0
aF0.0
aF0.01
a(lp1340
F0.0
aF0.0
aF0.0
aF0.0
aF0.0
aaa(lp1341
I82
aI0
aF0.0
aF0.0
aF0.01
a(lp1342
F0.0
aF0.0
aF0.0
aF0.0
aF0.0
aaa(lp1343
I83
aI0
aF0.0
aF0.0
aF0.01
a(lp1344
F0.0
aF0.0
aF0.0
aF0.0
aF0.0
aaa(lp1345
I84
aI0
aF0.0
aF0.0
aF0.01
a(lp1346
F0.0
aF0.0
aF0.0
aF0.0
aF0.0
aaa(lp1347
I85
aI0
aF0.0
aF0.0
aF0.01
a(lp1348
F0.0
aF0.0
aF0.0
aF0.0
aF0.0
aaa(lp1349
I86
aI0
aF0.0
aF0.0
aF0.01
a(lp1350
F0.0
aF0.0
aF0.0
aF0.0
aF0.0
aaa(lp1351
I87
aI0
aF0.0
aF0.0
aF0.01
a(lp1352
F0.0
aF0.0
aF0.0
aF0.0
aF0.0
aaa(lp1353
I88
aI0
aF0.0
aF0.0
aF0.01
a(lp1354
F0.0
aF0.0
aF0.0
aF0.0
aF0.0
aaa(lp1355
I89
aI0
aF0.0
aF0.0
aF0.01
a(lp1356
F0.0
aF0.0
aF0.0
aF0.0
aF0.0
aaa(lp1357
I90
aI0
aF0.0
aF0.0
aF0.01
a(lp1358
F0.0
aF0.0
aF0.0
aF0.0
aF0.0
aaa(lp1359
I91
aI0
aF0.0
aF0.0
aF0.01
a(lp1360
F0.0
aF0.0
aF0.0
aF0.0
aF0.0
aaa(lp1361
I92
aI0
aF0.0
aF0.0
aF0.01
a(lp1362
F0.0
aF0.0
aF0.0
aF0.0
aF0.0
aaa(lp1363
I93
aI0
aF0.0
aF0.0
aF0.01
a(lp1364
F0.0
aF0.0
aF0.0
aF0.0
aF0.0
aaa(lp1365
I94
aI0
aF0.0
aF0.0
aF0.01
a(lp1366
F0.0
aF0.0
aF0.0
aF0.0
aF0.0
aaa(lp1367
I95
aI0
aF0.0
aF0.0
aF0.01
a(lp1368
F0.0
aF0.0
aF0.0
aF0.0
aF0.0
aaa(lp1369
I96
aI0
aF0.0
aF0.0
aF0.01
a(lp1370
F0.0
aF0.0
aF0.0
aF0.0
aF0.0
aaa(lp1371
I97
aI0
aF0.0
aF0.0
aF0.01
a(lp1372
F0.0
aF0.0
aF0.0
aF0.0
aF0.0
aaa(lp1373
I98
aI0
aF0.0
aF0.0
aF0.01
a(lp1374
F0.0
aF0.0
aF0.0
aF0.0
aF0.0
aaa(lp1375
I99
aI0
aF0.0
aF0.0
aF0.01
a(lp1376
F0.0
aF0.0
aF0.0
aF0.0
aF0.0
aaaasg560
(lp1377
F1.0
aF1.0
aI5
aI100
aF0.25
aI1
aI0
a(lp1378
F1.0
aF1.0
aF1.0
aF1.0
aF0.25
aaI-1
aI1
a(lp1379
F20.0
aF5.0
aF3.0
aF1.0
aF2.0
aa(lp1380
F60.0
aF10.0
aF5.0
aF5.0
aF3.0
aasg186
I4
sg561
(lp1381
F0.0
aF0.0
aF0.0
aF1.0
assg1159
g1144
sba(ipoplib
AgentInstance
p1382
(dp1383
g1151
I0
sg12
g13
sg1152
(dp1384
g692
(lp1385
I100
aF0.0
aI88
a(lp1386
(lp1387
I0
aF0.0
aF0.0
aF0.0
aF0.01
a(lp1388
F0.0
aF0.0
aF0.0
aF0.0
aF0.0
aaa(lp1389
I1
aF0.0
aF0.0
aF0.0
aF0.01
a(lp1390
F0.0
aF0.0
aF0.0
aF0.0
aF0.0
aaa(lp1391
I2
aF0.0
aF0.0
aF0.0
aF0.01
a(lp1392
F0.0
aF0.0
aF0.0
aF0.0
aF0.0
aaa(lp1393
I3
aF0.0
aF0.0
aF0.0
aF0.01
a(lp1394
F0.0
aF0.0
aF0.0
aF0.0
aF0.0
aaa(lp1395
I4
aF0.0
aF0.0
aF0.0
aF0.01
a(lp1396
F0.0
aF0.0
aF0.0
aF0.0
aF0.0
aaa(lp1397
I5
aF0.0
aF0.0
aF0.0
aF0.01
a(lp1398
F0.0
aF0.0
aF0.0
aF0.0
aF0.0
aaa(lp1399
I6
aF0.0
aF0.0
aF0.0
aF0.01
a(lp1400
F0.0
aF0.0
aF0.0
aF0.0
aF0.0
aaa(lp1401
I7
aF0.0
aF0.0
aF0.0
aF0.01
a(lp1402
F0.0
aF0.0
aF0.0
aF0.0
aF0.0
aaa(lp1403
I8
aF0.0
aF0.0
aF0.0
aF0.01
a(lp1404
F0.0
aF0.0
aF0.0
aF0.0
aF0.0
aaa(lp1405
I9
aF0.0
aF0.0
aF0.0
aF0.01
a(lp1406
F0.0
aF0.0
aF0.0
aF0.0
aF0.0
aaa(lp1407
I10
aF0.0
aF0.0
aF0.0
aF0.01
a(lp1408
F0.0
aF0.0
aF0.0
aF0.0
aF0.0
aaa(lp1409
I11
aF0.0
aF0.0
aF0.0
aF0.01
a(lp1410
F0.0
aF0.0
aF0.0
aF0.0
aF0.0
aaa(lp1411
I12
aF0.0
aF0.0
aF0.0
aF0.01
a(lp1412
F0.0
aF0.0
aF0.0
aF0.0
aF0.0
aaa(lp1413
I13
aF0.0
aF0.0
aF0.0
aF0.01
a(lp1414
F0.0
aF0.0
aF0.0
aF0.0
aF0.0
aaa(lp1415
I14
aF0.0
aF0.0
aF0.0
aF0.01
a(lp1416
F0.0
aF0.0
aF0.0
aF0.0
aF0.0
aaa(lp1417
I15
aF0.0
aF0.0
aF0.0
aF0.01
a(lp1418
F0.0
aF0.0
aF0.0
aF0.0
aF0.0
aaa(lp1419
I16
aF0.0
aF0.0
aF0.0
aF0.01
a(lp1420
F0.0
aF0.0
aF0.0
aF0.0
aF0.0
aaa(lp1421
I17
aF0.0
aF0.0
aF0.0
aF0.01
a(lp1422
F0.0
aF0.0
aF0.0
aF0.0
aF0.0
aaa(lp1423
I18
aF0.0
aF0.0
aF0.0
aF0.01
a(lp1424
F0.0
aF0.0
aF0.0
aF0.0
aF0.0
aaa(lp1425
I19
aF0.0
aF0.0
aF0.0
aF0.01
a(lp1426
F0.0
aF0.0
aF0.0
aF0.0
aF0.0
aaa(lp1427
I20
aF0.0
aF0.0
aF0.0
aF0.01
a(lp1428
F0.0
aF0.0
aF0.0
aF0.0
aF0.0
aaa(lp1429
I21
aF0.0
aF0.0
aF0.0
aF0.01
a(lp1430
F0.0
aF0.0
aF0.0
aF0.0
aF0.0
aaa(lp1431
I22
aF0.0
aF0.0
aF0.0
aF0.01
a(lp1432
F0.0
aF0.0
aF0.0
aF0.0
aF0.0
aaa(lp1433
I23
aF0.0
aF0.0
aF0.0
aF0.01
a(lp1434
F0.0
aF0.0
aF0.0
aF0.0
aF0.0
aaa(lp1435
I24
aF0.0
aF0.0
aF0.0
aF0.01
a(lp1436
F0.0
aF0.0
aF0.0
aF0.0
aF0.0
aaa(lp1437
I25
aF0.0
aF0.0
aF0.0
aF0.01
a(lp1438
F0.0
aF0.0
aF0.0
aF0.0
aF0.0
aaa(lp1439
I26
aF0.0
aF0.0
aF0.0
aF0.01
a(lp1440
F0.0
aF0.0
aF0.0
aF0.0
aF0.0
aaa(lp1441
I27
aF0.0
aF0.0
aF0.0
aF0.01
a(lp1442
F0.0
aF0.0
aF0.0
aF0.0
aF0.0
aaa(lp1443
I28
aF0.0
aF0.0
aF0.0
aF0.01
a(lp1444
F0.0
aF0.0
aF0.0
aF0.0
aF0.0
aaa(lp1445
I29
aF0.0
aF0.0
aF0.0
aF0.01
a(lp1446
F0.0
aF0.0
aF0.0
aF0.0
aF0.0
aaa(lp1447
I30
aF0.0
aF0.0
aF0.0
aF0.01
a(lp1448
F0.0
aF0.0
aF0.0
aF0.0
aF0.0
aaa(lp1449
I31
aF0.0
aF0.0
aF0.0
aF0.01
a(lp1450
F0.0
aF0.0
aF0.0
aF0.0
aF0.0
aaa(lp1451
I32
aF0.0
aF0.0
aF0.0
aF0.01
a(lp1452
F0.0
aF0.0
aF0.0
aF0.0
aF0.0
aaa(lp1453
I33
aF0.0
aF0.0
aF0.0
aF0.01
a(lp1454
F0.0
aF0.0
aF0.0
aF0.0
aF0.0
aaa(lp1455
I34
aF0.0
aF0.0
aF0.0
aF0.01
a(lp1456
F0.0
aF0.0
aF0.0
aF0.0
aF0.0
aaa(lp1457
I35
aF0.0
aF0.0
aF0.0
aF0.01
a(lp1458
F0.0
aF0.0
aF0.0
aF0.0
aF0.0
aaa(lp1459
I36
aF0.0
aF0.0
aF0.0
aF0.01
a(lp1460
F0.0
aF0.0
aF0.0
aF0.0
aF0.0
aaa(lp1461
I37
aF0.0
aF0.0
aF0.0
aF0.01
a(lp1462
F0.0
aF0.0
aF0.0
aF0.0
aF0.0
aaa(lp1463
I38
aF0.0
aF0.0
aF0.0
aF0.01
a(lp1464
F0.0
aF0.0
aF0.0
aF0.0
aF0.0
aaa(lp1465
I39
aF0.0
aF0.0
aF0.0
aF0.01
a(lp1466
F0.0
aF0.0
aF0.0
aF0.0
aF0.0
aaa(lp1467
I40
aF0.0
aF0.0
aF0.0
aF0.01
a(lp1468
F0.0
aF0.0
aF0.0
aF0.0
aF0.0
aaa(lp1469
I41
aF0.0
aF0.0
aF0.0
aF0.01
a(lp1470
F0.0
aF0.0
aF0.0
aF0.0
aF0.0
aaa(lp1471
I42
aF0.0
aF0.0
aF0.0
aF0.01
a(lp1472
F0.0
aF0.0
aF0.0
aF0.0
aF0.0
aaa(lp1473
I43
aF0.0
aF0.0
aF0.0
aF0.01
a(lp1474
F0.0
aF0.0
aF0.0
aF0.0
aF0.0
aaa(lp1475
I44
aF0.0
aF0.0
aF0.0
aF0.01
a(lp1476
F0.0
aF0.0
aF0.0
aF0.0
aF0.0
aaa(lp1477
I45
aF0.0
aF0.0
aF0.0
aF0.01
a(lp1478
F0.0
aF0.0
aF0.0
aF0.0
aF0.0
aaa(lp1479
I46
aF0.0
aF0.0
aF0.0
aF0.01
a(lp1480
F0.0
aF0.0
aF0.0
aF0.0
aF0.0
aaa(lp1481
I47
aF0.0
aF0.0
aF0.0
aF0.01
a(lp1482
F0.0
aF0.0
aF0.0
aF0.0
aF0.0
aaa(lp1483
I48
aF0.0
aF0.0
aF0.0
aF0.01
a(lp1484
F0.0
aF0.0
aF0.0
aF0.0
aF0.0
aaa(lp1485
I49
aF0.0
aF0.0
aF0.0
aF0.01
a(lp1486
F0.0
aF0.0
aF0.0
aF0.0
aF0.0
aaa(lp1487
I50
aF0.0
aF0.0
aF0.0
aF0.01
a(lp1488
F0.0
aF0.0
aF0.0
aF0.0
aF0.0
aaa(lp1489
I51
aF0.0
aF0.0
aF0.0
aF0.01
a(lp1490
F0.0
aF0.0
aF0.0
aF0.0
aF0.0
aaa(lp1491
I52
aF0.0
aF0.0
aF0.0
aF0.01
a(lp1492
F0.0
aF0.0
aF0.0
aF0.0
aF0.0
aaa(lp1493
I53
aF0.0
aF0.0
aF0.0
aF0.01
a(lp1494
F0.0
aF0.0
aF0.0
aF0.0
aF0.0
aaa(lp1495
I54
aF0.0
aF0.0
aF0.0
aF0.01
a(lp1496
F0.0
aF0.0
aF0.0
aF0.0
aF0.0
aaa(lp1497
I55
aF0.0
aF0.0
aF0.0
aF0.01
a(lp1498
F0.0
aF0.0
aF0.0
aF0.0
aF0.0
aaa(lp1499
I56
aF0.0
aF0.0
aF0.0
aF0.01
a(lp1500
F0.0
aF0.0
aF0.0
aF0.0
aF0.0
aaa(lp1501
I57
aF0.0
aF0.0
aF0.0
aF0.01
a(lp1502
F0.0
aF0.0
aF0.0
aF0.0
aF0.0
aaa(lp1503
I58
aF0.0
aF0.0
aF0.0
aF0.01
a(lp1504
F0.0
aF0.0
aF0.0
aF0.0
aF0.0
aaa(lp1505
I59
aF0.0
aF0.0
aF0.0
aF0.01
a(lp1506
F0.0
aF0.0
aF0.0
aF0.0
aF0.0
aaa(lp1507
I60
aF0.0
aF0.0
aF0.0
aF0.01
a(lp1508
F0.0
aF0.0
aF0.0
aF0.0
aF0.0
aaa(lp1509
I61
aF0.0
aF0.0
aF0.0
aF0.01
a(lp1510
F0.0
aF0.0
aF0.0
aF0.0
aF0.0
aaa(lp1511
I62
aF0.0
aF0.0
aF0.0
aF0.01
a(lp1512
F0.0
aF0.0
aF0.0
aF0.0
aF0.0
aaa(lp1513
I63
aF0.0
aF0.0
aF0.0
aF0.01
a(lp1514
F0.0
aF0.0
aF0.0
aF0.0
aF0.0
aaa(lp1515
I64
aF0.0
aF0.0
aF0.0
aF0.01
a(lp1516
F0.0
aF0.0
aF0.0
aF0.0
aF0.0
aaa(lp1517
I65
aF0.0
aF0.0
aF0.0
aF0.01
a(lp1518
F0.0
aF0.0
aF0.0
aF0.0
aF0.0
aaa(lp1519
I66
aF0.0
aF0.0
aF0.0
aF0.01
a(lp1520
F0.0
aF0.0
aF0.0
aF0.0
aF0.0
aaa(lp1521
I67
aF0.0
aF0.0
aF0.0
aF0.01
a(lp1522
F0.0
aF0.0
aF0.0
aF0.0
aF0.0
aaa(lp1523
I68
aF0.0
aF0.0
aF0.0
aF0.01
a(lp1524
F0.0
aF0.0
aF0.0
aF0.0
aF0.0
aaa(lp1525
I69
aF0.0
aF0.0
aF0.0
aF0.01
a(lp1526
F0.0
aF0.0
aF0.0
aF0.0
aF0.0
aaa(lp1527
I70
aF0.0
aF0.0
aF0.0
aF0.01
a(lp1528
F0.0
aF0.0
aF0.0
aF0.0
aF0.0
aaa(lp1529
I71
aF0.0
aF0.0
aF0.0
aF0.01
a(lp1530
F0.0
aF0.0
aF0.0
aF0.0
aF0.0
aaa(lp1531
I72
aF0.0
aF0.0
aF0.0
aF0.01
a(lp1532
F0.0
aF0.0
aF0.0
aF0.0
aF0.0
aaa(lp1533
I73
aF0.0
aF0.0
aF0.0
aF0.01
a(lp1534
F0.0
aF0.0
aF0.0
aF0.0
aF0.0
aaa(lp1535
I74
aF0.0
aF0.0
aF0.0
aF0.01
a(lp1536
F0.0
aF0.0
aF0.0
aF0.0
aF0.0
aaa(lp1537
I75
aF0.0
aF0.0
aF0.0
aF0.01
a(lp1538
F0.0
aF0.0
aF0.0
aF0.0
aF0.0
aaa(lp1539
I76
aF0.0
aF0.0
aF0.0
aF0.01
a(lp1540
F0.0
aF0.0
aF0.0
aF0.0
aF0.0
aaa(lp1541
I77
aF0.0
aF0.0
aF0.0
aF0.01
a(lp1542
F0.0
aF0.0
aF0.0
aF0.0
aF0.0
aaa(lp1543
I78
aF0.0
aF0.0
aF0.0
aF0.01
a(lp1544
F0.0
aF0.0
aF0.0
aF0.0
aF0.0
aaa(lp1545
I79
aF0.0
aF0.0
aF0.0
aF0.01
a(lp1546
F0.0
aF0.0
aF0.0
aF0.0
aF0.0
aaa(lp1547
I80
aF0.0
aF0.0
aF0.0
aF0.01
a(lp1548
F0.0
aF0.0
aF0.0
aF0.0
aF0.0
aaa(lp1549
I81
aF0.0
aF0.0
aF0.0
aF0.01
a(lp1550
F0.0
aF0.0
aF0.0
aF0.0
aF0.0
aaa(lp1551
I82
aF0.0
aF0.0
aF0.0
aF0.01
a(lp1552
F0.0
aF0.0
aF0.0
aF0.0
aF0.0
aaa(lp1553
I83
aF0.0
aF0.0
aF0.0
aF0.01
a(lp1554
F0.0
aF0.0
aF0.0
aF0.0
aF0.0
aaa(lp1555
I84
aF0.0
aF0.0
aF0.0
aF0.01
a(lp1556
F0.0
aF0.0
aF0.0
aF0.0
aF0.0
aaa(lp1557
I85
aF0.0
aF0.0
aF0.0
aF0.01
a(lp1558
F0.0
aF0.0
aF0.0
aF0.0
aF0.0
aaa(lp1559
I86
aF0.0
aF0.0
aF0.0
aF0.01
a(lp1560
F0.0
aF0.0
aF0.0
aF0.0
aF0.0
aaa(lp1561
I87
aF0.0
aF0.0
aF0.0
aF0.01
a(lp1562
F0.0
aF0.0
aF0.0
aF0.0
aF0.0
aaa(lp1563
I88
aF0.0
aF0.0
aF0.0
aF0.01
a(lp1564
F0.0
aF0.0
aF0.0
aF0.0
aF0.0
aaa(lp1565
I89
aF0.0
aF0.0
aF0.0
aF0.01
a(lp1566
F0.0
aF0.0
aF0.0
aF0.0
aF0.0
aaa(lp1567
I90
aF0.0
aF0.0
aF0.0
aF0.01
a(lp1568
F0.0
aF0.0
aF0.0
aF0.0
aF0.0
aaa(lp1569
I91
aF0.0
aF0.0
aF0.0
aF0.01
a(lp1570
F0.0
aF0.0
aF0.0
aF0.0
aF0.0
aaa(lp1571
I92
aF0.0
aF0.0
aF0.0
aF0.01
a(lp1572
F0.0
aF0.0
aF0.0
aF0.0
aF0.0
aaa(lp1573
I93
aF0.0
aF0.0
aF0.0
aF0.01
a(lp1574
F0.0
aF0.0
aF0.0
aF0.0
aF0.0
aaa(lp1575
I94
aF0.0
aF0.0
aF0.0
aF0.01
a(lp1576
F0.0
aF0.0
aF0.0
aF0.0
aF0.0
aaa(lp1577
I95
aF0.0
aF0.0
aF0.0
aF0.01
a(lp1578
F0.0
aF0.0
aF0.0
aF0.0
aF0.0
aaa(lp1579
I96
aF0.0
aF0.0
aF0.0
aF0.01
a(lp1580
F0.0
aF0.0
aF0.0
aF0.0
aF0.0
aaa(lp1581
I97
aF0.0
aF0.0
aF0.0
aF0.01
a(lp1582
F0.0
aF0.0
aF0.0
aF0.0
aF0.0
aaa(lp1583
I98
aF0.0
aF0.0
aF0.0
aF0.01
a(lp1584
F0.0
aF0.0
aF0.0
aF0.0
aF0.0
aaa(lp1585
I99
aF0.0
aF0.0
aF0.0
aF0.01
a(lp1586
F0.0
aF0.0
aF0.0
aF0.0
aF0.0
aaaasg703
I59
sg693
F0.0
sg699
F0.0
sg701
F0.0
sg698
(lp1587
sg704
I8
sg226
F0.70512216649468018
sg694
(lp1588
sg244
F0.050000000000000003
sg695
(lp1589
sg702
F0.0
sg217
I1
sg705
I0
sg235
F0.90000000000000002
sg697
(lp1590
sg696
(lp1591
(lp1592
I0
aI1000
aF50.0
aa(lp1593
I0
aI1000
aF50.0
aasg208
I5
sg691
(lp1594
F1.0
aF0.0
aF1.0
aF1.0
asg700
F0.0
ssg1159
g1145
sba(ipoplib
AgentInstance
p1595
(dp1596
g1151
I0
sg12
g13
sg1152
(dp1597
sg1159
g1145
sba(ipoplib
AgentInstance
p1598
(dp1599
g1151
I0
sg12
g13
sg1152
(dp1600
sg1159
g1145
sba(ipoplib
AgentInstance
p1601
(dp1602
g1151
I0
sg12
g13
sg1152
(dp1603
sg1159
g1145
sba(ipoplib
AgentInstance
p1604
(dp1605
g1151
I0
sg12
g13
sg1152
(dp1606
sg1159
g1145
sba(ipoplib
AgentInstance
p1607
(dp1608
g1151
I0
sg12
g13
sg1152
(dp1609
sg1159
g1145
sba(ipoplib
AgentInstance
p1610
(dp1611
g1151
I0
sg12
g13
sg1152
(dp1612
sg1159
g1145
sba(ipoplib
AgentInstance
p1613
(dp1614
g1151
I0
sg12
g13
sg1152
(dp1615
sg1159
g1145
sba(ipoplib
AgentInstance
p1616
(dp1617
g1151
I0
sg12
g13
sg1152
(dp1618
sg1159
g1145
sba(ipoplib
AgentInstance
p1619
(dp1620
g1151
I0
sg12
g13
sg1152
(dp1621
sg1159
g1145
sba(ipoplib
AgentInstance
p1622
(dp1623
g1151
I0
sg12
g13
sg1152
(dp1624
sg1159
g1145
sba(ipoplib
AgentInstance
p1625
(dp1626
g1151
I0
sg12
g13
sg1152
(dp1627
sg1159
g1145
sba(ipoplib
AgentInstance
p1628
(dp1629
g1151
I0
sg12
g13
sg1152
(dp1630
sg1159
g1145
sba(ipoplib
AgentInstance
p1631
(dp1632
g1151
I0
sg12
g13
sg1152
(dp1633
sg1159
g1145
sba(ipoplib
AgentInstance
p1634
(dp1635
g1151
I0
sg12
g13
sg1152
(dp1636
sg1159
g1145
sba(ipoplib
AgentInstance
p1637
(dp1638
g1151
I0
sg12
g13
sg1152
(dp1639
sg1159
g1145
sba(ipoplib
AgentInstance
p1640
(dp1641
g1151
I0
sg12
g13
sg1152
(dp1642
sg1159
g1145
sba(ipoplib
AgentInstance
p1643
(dp1644
g1151
I0
sg12
g13
sg1152
(dp1645
sg1159
g1145
sba(ipoplib
AgentInstance
p1646
(dp1647
g1151
I0
sg12
g13
sg1152
(dp1648
sg1159
g1145
sba(ipoplib
AgentInstance
p1649
(dp1650
g1151
I0
sg12
g13
sg1152
(dp1651
sg1159
g1145
sba(ipoplib
AgentInstance
p1652
(dp1653
g1151
I0
sg12
g13
sg1152
(dp1654
sg1159
g1145
sba(ipoplib
AgentInstance
p1655
(dp1656
g1151
I0
sg12
g13
sg1152
(dp1657
sg1159
g1145
sba(ipoplib
AgentInstance
p1658
(dp1659
g1151
I0
sg12
g13
sg1152
(dp1660
sg1159
g1145
sba(ipoplib
AgentInstance
p1661
(dp1662
g1151
I0
sg12
g13
sg1152
(dp1663
sg1159
g1145
sba(ipoplib
AgentInstance
p1664
(dp1665
g1151
I0
sg12
g13
sg1152
(dp1666
sg1159
g1145
sba(ipoplib
AgentInstance
p1667
(dp1668
g1151
I0
sg12
g13
sg1152
(dp1669
sg1159
g1145
sba(ipoplib
AgentInstance
p1670
(dp1671
g1151
I0
sg12
g13
sg1152
(dp1672
sg1159
g1145
sba(ipoplib
AgentInstance
p1673
(dp1674
g1151
I0
sg12
g13
sg1152
(dp1675
sg1159
g1145
sba(ipoplib
AgentInstance
p1676
(dp1677
g1151
I0
sg12
g13
sg1152
(dp1678
sg1159
g1145
sba(ipoplib
AgentInstance
p1679
(dp1680
g1151
I0
sg12
g13
sg1152
(dp1681
sg1159
g1145
sba(ipoplib
AgentInstance
p1682
(dp1683
g1151
I0
sg12
g13
sg1152
(dp1684
sg1159
g1145
sba(ipoplib
AgentInstance
p1685
(dp1686
g1151
I0
sg12
g13
sg1152
(dp1687
sg1159
g1145
sba(ipoplib
AgentInstance
p1688
(dp1689
g1151
I0
sg12
g13
sg1152
(dp1690
sg1159
g1145
sba(ipoplib
AgentInstance
p1691
(dp1692
g1151
I0
sg12
g13
sg1152
(dp1693
sg1159
g1145
sba(ipoplib
AgentInstance
p1694
(dp1695
g1151
I0
sg12
g13
sg1152
(dp1696
sg1159
g1145
sba(ipoplib
AgentInstance
p1697
(dp1698
g1151
I0
sg12
g13
sg1152
(dp1699
sg1159
g1145
sba(ipoplib
AgentInstance
p1700
(dp1701
g1151
I0
sg12
g13
sg1152
(dp1702
sg1159
g1145
sba(ipoplib
AgentInstance
p1703
(dp1704
g1151
I0
sg12
g13
sg1152
(dp1705
sg1159
g1145
sba(ipoplib
AgentInstance
p1706
(dp1707
g1151
I0
sg12
g13
sg1152
(dp1708
sg1159
g1145
sba(ipoplib
AgentInstance
p1709
(dp1710
g1151
I0
sg12
g13
sg1152
(dp1711
sg1159
g1145
sba(ipoplib
AgentInstance
p1712
(dp1713
g1151
I0
sg12
g13
sg1152
(dp1714
sg1159
g1145
sba(ipoplib
AgentInstance
p1715
(dp1716
g1151
I0
sg12
g13
sg1152
(dp1717
sg1159
g1145
sba(ipoplib
AgentInstance
p1718
(dp1719
g1151
I0
sg12
g13
sg1152
(dp1720
sg1159
g1145
sba(ipoplib
AgentInstance
p1721
(dp1722
g1151
I0
sg12
g13
sg1152
(dp1723
sg1159
g1145
sba(ipoplib
AgentInstance
p1724
(dp1725
g1151
I0
sg12
g13
sg1152
(dp1726
sg1159
g1145
sba(ipoplib
AgentInstance
p1727
(dp1728
g1151
I0
sg12
g13
sg1152
(dp1729
sg1159
g1145
sba(ipoplib
AgentInstance
p1730
(dp1731
g1151
I0
sg12
g13
sg1152
(dp1732
sg1159
g1145
sba(ipoplib
AgentInstance
p1733
(dp1734
g1151
I0
sg12
g13
sg1152
(dp1735
sg1159
g1145
sba(ipoplib
AgentInstance
p1736
(dp1737
g1151
I0
sg12
g13
sg1152
(dp1738
sg1159
g1145
sba(ipoplib
AgentInstance
p1739
(dp1740
g1151
I0
sg12
g13
sg1152
(dp1741
sg1159
g1145
sba(ipoplib
AgentInstance
p1742
(dp1743
g1151
I0
sg12
g13
sg1152
(dp1744
sg1159
g1145
sba(ipoplib
AgentInstance
p1745
(dp1746
g1151
I0
sg12
g13
sg1152
(dp1747
sg1159
g1145
sba(ipoplib
AgentInstance
p1748
(dp1749
g1151
I0
sg12
g13
sg1152
(dp1750
sg1159
g1145
sba(ipoplib
AgentInstance
p1751
(dp1752
g1151
I0
sg12
g13
sg1152
(dp1753
sg1159
g1145
sba(ipoplib
AgentInstance
p1754
(dp1755
g1151
I0
sg12
g13
sg1152
(dp1756
sg1159
g1145
sba(ipoplib
AgentInstance
p1757
(dp1758
g1151
I0
sg12
g13
sg1152
(dp1759
sg1159
g1145
sba(ipoplib
AgentInstance
p1760
(dp1761
g1151
I0
sg12
g13
sg1152
(dp1762
sg1159
g1145
sba(ipoplib
AgentInstance
p1763
(dp1764
g1151
I0
sg12
g13
sg1152
(dp1765
sg1159
g1145
sba(ipoplib
AgentInstance
p1766
(dp1767
g1151
I0
sg12
g13
sg1152
(dp1768
sg1159
g1145
sba(ipoplib
AgentInstance
p1769
(dp1770
g1151
I0
sg12
g13
sg1152
(dp1771
sg1159
g1145
sba(ipoplib
AgentInstance
p1772
(dp1773
g1151
I0
sg12
g13
sg1152
(dp1774
sg1159
g1145
sba(ipoplib
AgentInstance
p1775
(dp1776
g1151
I0
sg12
g13
sg1152
(dp1777
sg1159
g1145
sba(ipoplib
AgentInstance
p1778
(dp1779
g1151
I0
sg12
g13
sg1152
(dp1780
sg1159
g1145
sba(ipoplib
AgentInstance
p1781
(dp1782
g1151
I0
sg12
g13
sg1152
(dp1783
sg1159
g1145
sba(ipoplib
AgentInstance
p1784
(dp1785
g1151
I0
sg12
g13
sg1152
(dp1786
sg1159
g1145
sba(ipoplib
AgentInstance
p1787
(dp1788
g1151
I0
sg12
g13
sg1152
(dp1789
sg1159
g1145
sba(ipoplib
AgentInstance
p1790
(dp1791
g1151
I0
sg12
g13
sg1152
(dp1792
sg1159
g1145
sba(ipoplib
AgentInstance
p1793
(dp1794
g1151
I0
sg12
g13
sg1152
(dp1795
sg1159
g1145
sba(ipoplib
AgentInstance
p1796
(dp1797
g1151
I0
sg12
g13
sg1152
(dp1798
sg1159
g1145
sba(ipoplib
AgentInstance
p1799
(dp1800
g1151
I0
sg12
g13
sg1152
(dp1801
sg1159
g1145
sba(ipoplib
AgentInstance
p1802
(dp1803
g1151
I0
sg12
g13
sg1152
(dp1804
sg1159
g1145
sba(ipoplib
AgentInstance
p1805
(dp1806
g1151
I0
sg12
g13
sg1152
(dp1807
sg1159
g1145
sba(ipoplib
AgentInstance
p1808
(dp1809
g1151
I0
sg12
g13
sg1152
(dp1810
sg1159
g1145
sba(ipoplib
AgentInstance
p1811
(dp1812
g1151
I0
sg12
g13
sg1152
(dp1813
sg1159
g1145
sba(ipoplib
AgentInstance
p1814
(dp1815
g1151
I0
sg12
g13
sg1152
(dp1816
sg1159
g1145
sba(ipoplib
AgentInstance
p1817
(dp1818
g1151
I0
sg12
g13
sg1152
(dp1819
sg1159
g1145
sba(ipoplib
AgentInstance
p1820
(dp1821
g1151
I0
sg12
g13
sg1152
(dp1822
sg1159
g1145
sba(ipoplib
AgentInstance
p1823
(dp1824
g1151
I0
sg12
g13
sg1152
(dp1825
sg1159
g1145
sba(ipoplib
AgentInstance
p1826
(dp1827
g1151
I0
sg12
g13
sg1152
(dp1828
sg1159
g1145
sba(ipoplib
AgentInstance
p1829
(dp1830
g1151
I0
sg12
g13
sg1152
(dp1831
sg1159
g1145
sba(ipoplib
AgentInstance
p1832
(dp1833
g1151
I0
sg12
g13
sg1152
(dp1834
sg1159
g1145
sba(ipoplib
AgentInstance
p1835
(dp1836
g1151
I0
sg12
g13
sg1152
(dp1837
sg1159
g1145
sba(ipoplib
AgentInstance
p1838
(dp1839
g1151
I0
sg12
g13
sg1152
(dp1840
sg1159
g1145
sba(ipoplib
AgentInstance
p1841
(dp1842
g1151
I0
sg12
g13
sg1152
(dp1843
sg1159
g1145
sba(ipoplib
AgentInstance
p1844
(dp1845
g1151
I0
sg12
g13
sg1152
(dp1846
sg1159
g1145
sba(ipoplib
AgentInstance
p1847
(dp1848
g1151
I0
sg12
g13
sg1152
(dp1849
sg1159
g1145
sba(ipoplib
AgentInstance
p1850
(dp1851
g1151
I0
sg12
g13
sg1152
(dp1852
sg1159
g1145
sba(ipoplib
AgentInstance
p1853
(dp1854
g1151
I0
sg12
g13
sg1152
(dp1855
sg1159
g1145
sba(ipoplib
AgentInstance
p1856
(dp1857
g1151
I0
sg12
g13
sg1152
(dp1858
sg1159
g1145
sba(ipoplib
AgentInstance
p1859
(dp1860
g1151
I0
sg12
g13
sg1152
(dp1861
sg1159
g1145
sba(ipoplib
AgentInstance
p1862
(dp1863
g1151
I0
sg12
g13
sg1152
(dp1864
sg1159
g1145
sba(ipoplib
AgentInstance
p1865
(dp1866
g1151
I0
sg12
g13
sg1152
(dp1867
sg1159
g1145
sba(ipoplib
AgentInstance
p1868
(dp1869
g1151
I0
sg12
g13
sg1152
(dp1870
sg1159
g1145
sba(ipoplib
AgentInstance
p1871
(dp1872
g1151
I0
sg12
g13
sg1152
(dp1873
sg1159
g1145
sba(ipoplib
AgentInstance
p1874
(dp1875
g1151
I0
sg12
g13
sg1152
(dp1876
sg1159
g1145
sba(ipoplib
AgentInstance
p1877
(dp1878
g1151
I0
sg12
g13
sg1152
(dp1879
sg1159
g1145
sba(ipoplib
AgentInstance
p1880
(dp1881
g1151
I0
sg12
g13
sg1152
(dp1882
sg1159
g1145
sba(ipoplib
AgentInstance
p1883
(dp1884
g1151
I0
sg12
g13
sg1152
(dp1885
sg1159
g1145
sba(ipoplib
AgentInstance
p1886
(dp1887
g1151
I0
sg12
g13
sg1152
(dp1888
sg1159
g1145
sba(ipoplib
AgentInstance
p1889
(dp1890
g1151
I0
sg12
g13
sg1152
(dp1891
sg1159
g1145
sba(ipoplib
AgentInstance
p1892
(dp1893
g1151
I0
sg12
g13
sg1152
(dp1894
sg1159
g1145
sba(ipoplib
AgentInstance
p1895
(dp1896
g1151
I0
sg12
g13
sg1152
(dp1897
sg1159
g1145
sba(ipoplib
AgentInstance
p1898
(dp1899
g1151
I0
sg12
g13
sg1152
(dp1900
sg1159
g1145
sba(ipoplib
AgentInstance
p1901
(dp1902
g1151
I0
sg12
g13
sg1152
(dp1903
sg1159
g1145
sba(ipoplib
AgentInstance
p1904
(dp1905
g1151
I0
sg12
g13
sg1152
(dp1906
sg1159
g1145
sba(ipoplib
AgentInstance
p1907
(dp1908
g1151
I0
sg12
g13
sg1152
(dp1909
sg1159
g1145
sba(ipoplib
AgentInstance
p1910
(dp1911
g1151
I0
sg12
g13
sg1152
(dp1912
sg1159
g1145
sba(ipoplib
AgentInstance
p1913
(dp1914
g1151
I0
sg12
g13
sg1152
(dp1915
sg1159
g1145
sba(ipoplib
AgentInstance
p1916
(dp1917
g1151
I0
sg12
g13
sg1152
(dp1918
sg1159
g1145
sba(ipoplib
AgentInstance
p1919
(dp1920
g1151
I0
sg12
g13
sg1152
(dp1921
sg1159
g1145
sba(ipoplib
AgentInstance
p1922
(dp1923
g1151
I0
sg12
g13
sg1152
(dp1924
sg1159
g1145
sba(ipoplib
AgentInstance
p1925
(dp1926
g1151
I0
sg12
g13
sg1152
(dp1927
sg1159
g1145
sba(ipoplib
AgentInstance
p1928
(dp1929
g1151
I0
sg12
g13
sg1152
(dp1930
sg1159
g1145
sba(ipoplib
AgentInstance
p1931
(dp1932
g1151
I0
sg12
g13
sg1152
(dp1933
sg1159
g1145
sba(ipoplib
AgentInstance
p1934
(dp1935
g1151
I0
sg12
g13
sg1152
(dp1936
sg1159
g1145
sba(ipoplib
AgentInstance
p1937
(dp1938
g1151
I0
sg12
g13
sg1152
(dp1939
sg1159
g1145
sba(ipoplib
AgentInstance
p1940
(dp1941
g1151
I0
sg12
g13
sg1152
(dp1942
sg1159
g1145
sba(ipoplib
AgentInstance
p1943
(dp1944
g1151
I0
sg12
g13
sg1152
(dp1945
sg1159
g1145
sba(ipoplib
AgentInstance
p1946
(dp1947
g1151
I0
sg12
g13
sg1152
(dp1948
sg1159
g1145
sba(ipoplib
AgentInstance
p1949
(dp1950
g1151
I0
sg12
g13
sg1152
(dp1951
sg1159
g1145
sba(ipoplib
AgentInstance
p1952
(dp1953
g1151
I0
sg12
g13
sg1152
(dp1954
sg1159
g1145
sba(ipoplib
AgentInstance
p1955
(dp1956
g1151
I0
sg12
g13
sg1152
(dp1957
sg1159
g1145
sba(ipoplib
AgentInstance
p1958
(dp1959
g1151
I0
sg12
g13
sg1152
(dp1960
sg1159
g1145
sba(ipoplib
AgentInstance
p1961
(dp1962
g1151
I0
sg12
g13
sg1152
(dp1963
sg1159
g1145
sba(ipoplib
AgentInstance
p1964
(dp1965
g1151
I0
sg12
g13
sg1152
(dp1966
sg1159
g1145
sba(ipoplib
AgentInstance
p1967
(dp1968
g1151
I0
sg12
g13
sg1152
(dp1969
sg1159
g1145
sba(ipoplib
AgentInstance
p1970
(dp1971
g1151
I0
sg12
g13
sg1152
(dp1972
sg1159
g1145
sba(ipoplib
AgentInstance
p1973
(dp1974
g1151
I0
sg12
g13
sg1152
(dp1975
sg1159
g1145
sba(ipoplib
AgentInstance
p1976
(dp1977
g1151
I0
sg12
g13
sg1152
(dp1978
sg1159
g1145
sba(ipoplib
AgentInstance
p1979
(dp1980
g1151
I0
sg12
g13
sg1152
(dp1981
sg1159
g1145
sba(ipoplib
AgentInstance
p1982
(dp1983
g1151
I0
sg12
g13
sg1152
(dp1984
sg1159
g1145
sba(ipoplib
AgentInstance
p1985
(dp1986
g1151
I0
sg12
g13
sg1152
(dp1987
sg1159
g1145
sba(ipoplib
AgentInstance
p1988
(dp1989
g1151
I0
sg12
g13
sg1152
(dp1990
sg1159
g1145
sba(ipoplib
AgentInstance
p1991
(dp1992
g1151
I0
sg12
g13
sg1152
(dp1993
sg1159
g1145
sba(ipoplib
AgentInstance
p1994
(dp1995
g1151
I0
sg12
g13
sg1152
(dp1996
sg1159
g1145
sba(ipoplib
AgentInstance
p1997
(dp1998
g1151
I0
sg12
g13
sg1152
(dp1999
sg1159
g1145
sba(ipoplib
AgentInstance
p2000
(dp2001
g1151
I0
sg12
g13
sg1152
(dp2002
sg1159
g1145
sba(ipoplib
AgentInstance
p2003
(dp2004
g1151
I0
sg12
g13
sg1152
(dp2005
sg1159
g1145
sba(ipoplib
AgentInstance
p2006
(dp2007
g1151
I0
sg12
g13
sg1152
(dp2008
sg1159
g1145
sba(ipoplib
AgentInstance
p2009
(dp2010
g1151
I0
sg12
g13
sg1152
(dp2011
sg1159
g1145
sba(ipoplib
AgentInstance
p2012
(dp2013
g1151
I0
sg12
g13
sg1152
(dp2014
sg1159
g1145
sba(ipoplib
AgentInstance
p2015
(dp2016
g1151
I0
sg12
g13
sg1152
(dp2017
sg1159
g1145
sba(ipoplib
AgentInstance
p2018
(dp2019
g1151
I0
sg12
g13
sg1152
(dp2020
sg1159
g1145
sba(ipoplib
AgentInstance
p2021
(dp2022
g1151
I0
sg12
g13
sg1152
(dp2023
sg1159
g1145
sba(ipoplib
AgentInstance
p2024
(dp2025
g1151
I0
sg12
g13
sg1152
(dp2026
sg1159
g1145
sba(ipoplib
AgentInstance
p2027
(dp2028
g1151
I0
sg12
g13
sg1152
(dp2029
sg1159
g1145
sba(ipoplib
AgentInstance
p2030
(dp2031
g1151
I0
sg12
g13
sg1152
(dp2032
sg1159
g1145
sba(ipoplib
AgentInstance
p2033
(dp2034
g1151
I0
sg12
g13
sg1152
(dp2035
sg1159
g1145
sba(ipoplib
AgentInstance
p2036
(dp2037
g1151
I0
sg12
g13
sg1152
(dp2038
sg1159
g1145
sba(ipoplib
AgentInstance
p2039
(dp2040
g1151
I0
sg12
g13
sg1152
(dp2041
sg1159
g1145
sba(ipoplib
AgentInstance
p2042
(dp2043
g1151
I0
sg12
g13
sg1152
(dp2044
sg1159
g1145
sba(ipoplib
AgentInstance
p2045
(dp2046
g1151
I0
sg12
g13
sg1152
(dp2047
sg1159
g1145
sba(ipoplib
AgentInstance
p2048
(dp2049
g1151
I0
sg12
g13
sg1152
(dp2050
sg1159
g1145
sba(ipoplib
AgentInstance
p2051
(dp2052
g1151
I0
sg12
g13
sg1152
(dp2053
sg1159
g1145
sba(ipoplib
AgentInstance
p2054
(dp2055
g1151
I0
sg12
g13
sg1152
(dp2056
sg1159
g1145
sba(ipoplib
AgentInstance
p2057
(dp2058
g1151
I0
sg12
g13
sg1152
(dp2059
sg1159
g1145
sba(ipoplib
AgentInstance
p2060
(dp2061
g1151
I0
sg12
g13
sg1152
(dp2062
sg1159
g1145
sba(ipoplib
AgentInstance
p2063
(dp2064
g1151
I0
sg12
g13
sg1152
(dp2065
sg1159
g1145
sba(ipoplib
AgentInstance
p2066
(dp2067
g1151
I0
sg12
g13
sg1152
(dp2068
sg1159
g1145
sba(ipoplib
AgentInstance
p2069
(dp2070
g1151
I0
sg12
g13
sg1152
(dp2071
sg1159
g1145
sba(ipoplib
AgentInstance
p2072
(dp2073
g1151
I0
sg12
g13
sg1152
(dp2074
sg1159
g1145
sba(ipoplib
AgentInstance
p2075
(dp2076
g1151
I0
sg12
g13
sg1152
(dp2077
sg1159
g1145
sba(ipoplib
AgentInstance
p2078
(dp2079
g1151
I0
sg12
g13
sg1152
(dp2080
sg1159
g1145
sba(ipoplib
AgentInstance
p2081
(dp2082
g1151
I0
sg12
g13
sg1152
(dp2083
sg1159
g1145
sba(ipoplib
AgentInstance
p2084
(dp2085
g1151
I0
sg12
g13
sg1152
(dp2086
sg1159
g1145
sba(ipoplib
AgentInstance
p2087
(dp2088
g1151
I0
sg12
g13
sg1152
(dp2089
sg1159
g1145
sba(ipoplib
AgentInstance
p2090
(dp2091
g1151
I0
sg12
g13
sg1152
(dp2092
sg1159
g1145
sba(ipoplib
AgentInstance
p2093
(dp2094
g1151
I0
sg12
g13
sg1152
(dp2095
sg1159
g1145
sba(ipoplib
AgentInstance
p2096
(dp2097
g1151
I0
sg12
g13
sg1152
(dp2098
sg1159
g1145
sba(ipoplib
AgentInstance
p2099
(dp2100
g1151
I0
sg12
g13
sg1152
(dp2101
sg1159
g1145
sba(ipoplib
AgentInstance
p2102
(dp2103
g1151
I0
sg12
g13
sg1152
(dp2104
sg1159
g1145
sba(ipoplib
AgentInstance
p2105
(dp2106
g1151
I0
sg12
g13
sg1152
(dp2107
sg1159
g1145
sba(ipoplib
AgentInstance
p2108
(dp2109
g1151
I0
sg12
g13
sg1152
(dp2110
sg1159
g1145
sba(ipoplib
AgentInstance
p2111
(dp2112
g1151
I0
sg12
g13
sg1152
(dp2113
sg1159
g1145
sba(ipoplib
AgentInstance
p2114
(dp2115
g1151
I0
sg12
g13
sg1152
(dp2116
sg1159
g1145
sba(ipoplib
AgentInstance
p2117
(dp2118
g1151
I0
sg12
g13
sg1152
(dp2119
sg1159
g1145
sba(ipoplib
AgentInstance
p2120
(dp2121
g1151
I0
sg12
g13
sg1152
(dp2122
sg1159
g1145
sba(ipoplib
AgentInstance
p2123
(dp2124
g1151
I0
sg12
g13
sg1152
(dp2125
sg1159
g1145
sba(ipoplib
AgentInstance
p2126
(dp2127
g1151
I0
sg12
g13
sg1152
(dp2128
sg1159
g1145
sba(ipoplib
AgentInstance
p2129
(dp2130
g1151
I0
sg12
g13
sg1152
(dp2131
sg1159
g1145
sba(ipoplib
AgentInstance
p2132
(dp2133
g1151
I0
sg12
g13
sg1152
(dp2134
sg1159
g1145
sba(ipoplib
AgentInstance
p2135
(dp2136
g1151
I0
sg12
g13
sg1152
(dp2137
sg1159
g1145
sba(ipoplib
AgentInstance
p2138
(dp2139
g1151
I0
sg12
g13
sg1152
(dp2140
sg1159
g1145
sba(ipoplib
AgentInstance
p2141
(dp2142
g1151
I0
sg12
g13
sg1152
(dp2143
sg1159
g1145
sba(ipoplib
AgentInstance
p2144
(dp2145
g1151
I0
sg12
g13
sg1152
(dp2146
sg1159
g1145
sba(ipoplib
AgentInstance
p2147
(dp2148
g1151
I0
sg12
g13
sg1152
(dp2149
sg1159
g1145
sba(ipoplib
AgentInstance
p2150
(dp2151
g1151
I0
sg12
g13
sg1152
(dp2152
sg1159
g1145
sba(ipoplib
AgentInstance
p2153
(dp2154
g1151
I0
sg12
g13
sg1152
(dp2155
sg1159
g1145
sba(ipoplib
AgentInstance
p2156
(dp2157
g1151
I0
sg12
g13
sg1152
(dp2158
sg1159
g1145
sba(ipoplib
AgentInstance
p2159
(dp2160
g1151
I0
sg12
g13
sg1152
(dp2161
sg1159
g1145
sba(ipoplib
AgentInstance
p2162
(dp2163
g1151
I0
sg12
g13
sg1152
(dp2164
sg1159
g1145
sba(ipoplib
AgentInstance
p2165
(dp2166
g1151
I0
sg12
g13
sg1152
(dp2167
sg1159
g1145
sba(ipoplib
AgentInstance
p2168
(dp2169
g1151
I0
sg12
g13
sg1152
(dp2170
sg1159
g1145
sba(ipoplib
AgentInstance
p2171
(dp2172
g1151
I0
sg12
g13
sg1152
(dp2173
sg1159
g1145
sba(ipoplib
AgentInstance
p2174
(dp2175
g1151
I0
sg12
g13
sg1152
(dp2176
sg1159
g1145
sba(ipoplib
AgentInstance
p2177
(dp2178
g1151
I0
sg12
g13
sg1152
(dp2179
sg1159
g1145
sba(ipoplib
AgentInstance
p2180
(dp2181
g1151
I0
sg12
g13
sg1152
(dp2182
sg1159
g1145
sba(ipoplib
AgentInstance
p2183
(dp2184
g1151
I0
sg12
g13
sg1152
(dp2185
sg1159
g1145
sba(ipoplib
AgentInstance
p2186
(dp2187
g1151
I0
sg12
g13
sg1152
(dp2188
sg1159
g1145
sba(ipoplib
AgentInstance
p2189
(dp2190
g1151
I0
sg12
g13
sg1152
(dp2191
sg1159
g1145
sba(ipoplib
AgentInstance
p2192
(dp2193
g1151
I0
sg12
g13
sg1152
(dp2194
sg1159
g1145
sba(ipoplib
AgentInstance
p2195
(dp2196
g1151
I0
sg12
g13
sg1152
(dp2197
sg1159
g1145
sba(ipoplib
AgentInstance
p2198
(dp2199
g1151
I0
sg12
g13
sg1152
(dp2200
sg1159
g1145
sba(ipoplib
AgentInstance
p2201
(dp2202
g1151
I0
sg12
g13
sg1152
(dp2203
sg1159
g1145
sba(ipoplib
AgentInstance
p2204
(dp2205
g1151
I0
sg12
g13
sg1152
(dp2206
sg1159
g1145
sba(ipoplib
AgentInstance
p2207
(dp2208
g1151
I0
sg12
g13
sg1152
(dp2209
sg1159
g1145
sba(ipoplib
AgentInstance
p2210
(dp2211
g1151
I0
sg12
g13
sg1152
(dp2212
sg1159
g1145
sba(ipoplib
AgentInstance
p2213
(dp2214
g1151
I0
sg12
g13
sg1152
(dp2215
sg1159
g1145
sba(ipoplib
AgentInstance
p2216
(dp2217
g1151
I0
sg12
g13
sg1152
(dp2218
sg1159
g1145
sba(ipoplib
AgentInstance
p2219
(dp2220
g1151
I0
sg12
g13
sg1152
(dp2221
sg1159
g1145
sba(ipoplib
AgentInstance
p2222
(dp2223
g1151
I0
sg12
g13
sg1152
(dp2224
sg1159
g1145
sba(ipoplib
AgentInstance
p2225
(dp2226
g1151
I0
sg12
g13
sg1152
(dp2227
sg1159
g1145
sba(ipoplib
AgentInstance
p2228
(dp2229
g1151
I0
sg12
g13
sg1152
(dp2230
sg1159
g1145
sba(ipoplib
AgentInstance
p2231
(dp2232
g1151
I0
sg12
g13
sg1152
(dp2233
sg1159
g1145
sba(ipoplib
AgentInstance
p2234
(dp2235
g1151
I0
sg12
g13
sg1152
(dp2236
sg1159
g1145
sba(ipoplib
AgentInstance
p2237
(dp2238
g1151
I0
sg12
g13
sg1152
(dp2239
sg1159
g1145
sba(ipoplib
AgentInstance
p2240
(dp2241
g1151
I0
sg12
g13
sg1152
(dp2242
sg1159
g1145
sba(ipoplib
AgentInstance
p2243
(dp2244
g1151
I0
sg12
g13
sg1152
(dp2245
sg1159
g1145
sba(ipoplib
AgentInstance
p2246
(dp2247
g1151
I0
sg12
g13
sg1152
(dp2248
sg1159
g1145
sba(ipoplib
AgentInstance
p2249
(dp2250
g1151
I0
sg12
g13
sg1152
(dp2251
sg1159
g1145
sba(ipoplib
AgentInstance
p2252
(dp2253
g1151
I0
sg12
g13
sg1152
(dp2254
sg1159
g1145
sba(ipoplib
AgentInstance
p2255
(dp2256
g1151
I0
sg12
g13
sg1152
(dp2257
sg1159
g1145
sba(ipoplib
AgentInstance
p2258
(dp2259
g1151
I0
sg12
g13
sg1152
(dp2260
sg1159
g1145
sba(ipoplib
AgentInstance
p2261
(dp2262
g1151
I0
sg12
g13
sg1152
(dp2263
sg1159
g1145
sba(ipoplib
AgentInstance
p2264
(dp2265
g1151
I0
sg12
g13
sg1152
(dp2266
sg1159
g1145
sba(ipoplib
AgentInstance
p2267
(dp2268
g1151
I0
sg12
g13
sg1152
(dp2269
sg1159
g1145
sba(ipoplib
AgentInstance
p2270
(dp2271
g1151
I0
sg12
g13
sg1152
(dp2272
sg1159
g1145
sba(ipoplib
AgentInstance
p2273
(dp2274
g1151
I0
sg12
g13
sg1152
(dp2275
sg1159
g1145
sba(ipoplib
AgentInstance
p2276
(dp2277
g1151
I0
sg12
g13
sg1152
(dp2278
sg1159
g1145
sba(ipoplib
AgentInstance
p2279
(dp2280
g1151
I0
sg12
g13
sg1152
(dp2281
sg1159
g1145
sba(ipoplib
AgentInstance
p2282
(dp2283
g1151
I0
sg12
g13
sg1152
(dp2284
sg1159
g1145
sba(ipoplib
AgentInstance
p2285
(dp2286
g1151
I0
sg12
g13
sg1152
(dp2287
sg1159
g1145
sba(ipoplib
AgentInstance
p2288
(dp2289
g1151
I0
sg12
g13
sg1152
(dp2290
sg1159
g1145
sba(ipoplib
AgentInstance
p2291
(dp2292
g1151
I0
sg12
g13
sg1152
(dp2293
sg1159
g1145
sba(ipoplib
AgentInstance
p2294
(dp2295
g1151
I0
sg12
g13
sg1152
(dp2296
sg1159
g1145
sba(ipoplib
AgentInstance
p2297
(dp2298
g1151
I0
sg12
g13
sg1152
(dp2299
sg1159
g1145
sba(ipoplib
AgentInstance
p2300
(dp2301
g1151
I0
sg12
g13
sg1152
(dp2302
sg1159
g1145
sba(ipoplib
AgentInstance
p2303
(dp2304
g1151
I0
sg12
g13
sg1152
(dp2305
sg1159
g1145
sba(ipoplib
AgentInstance
p2306
(dp2307
g1151
I0
sg12
g13
sg1152
(dp2308
sg1159
g1145
sba(ipoplib
AgentInstance
p2309
(dp2310
g1151
I0
sg12
g13
sg1152
(dp2311
sg1159
g1145
sba(ipoplib
AgentInstance
p2312
(dp2313
g1151
I0
sg12
g13
sg1152
(dp2314
sg1159
g1145
sba(ipoplib
AgentInstance
p2315
(dp2316
g1151
I0
sg12
g13
sg1152
(dp2317
sg1159
g1145
sba(ipoplib
AgentInstance
p2318
(dp2319
g1151
I0
sg12
g13
sg1152
(dp2320
sg1159
g1145
sba(ipoplib
AgentInstance
p2321
(dp2322
g1151
I0
sg12
g13
sg1152
(dp2323
sg1159
g1145
sba(ipoplib
AgentInstance
p2324
(dp2325
g1151
I0
sg12
g13
sg1152
(dp2326
sg1159
g1145
sba(ipoplib
AgentInstance
p2327
(dp2328
g1151
I0
sg12
g13
sg1152
(dp2329
sg1159
g1145
sba(ipoplib
AgentInstance
p2330
(dp2331
g1151
I0
sg12
g13
sg1152
(dp2332
sg1159
g1145
sba(ipoplib
AgentInstance
p2333
(dp2334
g1151
I0
sg12
g13
sg1152
(dp2335
sg1159
g1145
sba(ipoplib
AgentInstance
p2336
(dp2337
g1151
I0
sg12
g13
sg1152
(dp2338
sg1159
g1145
sba(ipoplib
AgentInstance
p2339
(dp2340
g1151
I0
sg12
g13
sg1152
(dp2341
sg1159
g1145
sba(ipoplib
AgentInstance
p2342
(dp2343
g1151
I0
sg12
g13
sg1152
(dp2344
sg1159
g1145
sba(ipoplib
AgentInstance
p2345
(dp2346
g1151
I0
sg12
g13
sg1152
(dp2347
sg1159
g1145
sba(ipoplib
AgentInstance
p2348
(dp2349
g1151
I0
sg12
g13
sg1152
(dp2350
sg1159
g1145
sba(ipoplib
AgentInstance
p2351
(dp2352
g1151
I0
sg12
g13
sg1152
(dp2353
sg1159
g1145
sba(ipoplib
AgentInstance
p2354
(dp2355
g1151
I0
sg12
g13
sg1152
(dp2356
sg1159
g1145
sba(ipoplib
AgentInstance
p2357
(dp2358
g1151
I0
sg12
g13
sg1152
(dp2359
sg1159
g1145
sba(ipoplib
AgentInstance
p2360
(dp2361
g1151
I0
sg12
g13
sg1152
(dp2362
sg1159
g1145
sba(ipoplib
AgentInstance
p2363
(dp2364
g1151
I0
sg12
g13
sg1152
(dp2365
sg1159
g1145
sba(ipoplib
AgentInstance
p2366
(dp2367
g1151
I0
sg12
g13
sg1152
(dp2368
sg1159
g1145
sba(ipoplib
AgentInstance
p2369
(dp2370
g1151
I0
sg12
g13
sg1152
(dp2371
sg1159
g1145
sba(ipoplib
AgentInstance
p2372
(dp2373
g1151
I0
sg12
g13
sg1152
(dp2374
sg1159
g1145
sba(ipoplib
AgentInstance
p2375
(dp2376
g1151
I0
sg12
g13
sg1152
(dp2377
sg1159
g1145
sba(ipoplib
AgentInstance
p2378
(dp2379
g1151
I0
sg12
g13
sg1152
(dp2380
sg1159
g1145
sba(ipoplib
AgentInstance
p2381
(dp2382
g1151
I0
sg12
g13
sg1152
(dp2383
sg1159
g1145
sba(ipoplib
AgentInstance
p2384
(dp2385
g1151
I0
sg12
g13
sg1152
(dp2386
sg1159
g1145
sba(ipoplib
AgentInstance
p2387
(dp2388
g1151
I0
sg12
g13
sg1152
(dp2389
sg1159
g1145
sba(ipoplib
AgentInstance
p2390
(dp2391
g1151
I0
sg12
g13
sg1152
(dp2392
sg1159
g1145
sba(ipoplib
AgentInstance
p2393
(dp2394
g1151
I0
sg12
g13
sg1152
(dp2395
sg1159
g1145
sba(ipoplib
AgentInstance
p2396
(dp2397
g1151
I0
sg12
g13
sg1152
(dp2398
sg1159
g1145
sba(ipoplib
AgentInstance
p2399
(dp2400
g1151
I0
sg12
g13
sg1152
(dp2401
sg1159
g1145
sba(ipoplib
AgentInstance
p2402
(dp2403
g1151
I0
sg12
g13
sg1152
(dp2404
sg1159
g1145
sba(ipoplib
AgentInstance
p2405
(dp2406
g1151
I0
sg12
g13
sg1152
(dp2407
sg1159
g1145
sba(ipoplib
AgentInstance
p2408
(dp2409
g1151
I0
sg12
g13
sg1152
(dp2410
sg1159
g1145
sba(ipoplib
AgentInstance
p2411
(dp2412
g1151
I0
sg12
g13
sg1152
(dp2413
sg1159
g1145
sba(ipoplib
AgentInstance
p2414
(dp2415
g1151
I0
sg12
g13
sg1152
(dp2416
sg1159
g1145
sba(ipoplib
AgentInstance
p2417
(dp2418
g1151
I0
sg12
g13
sg1152
(dp2419
sg1159
g1145
sba(ipoplib
AgentInstance
p2420
(dp2421
g1151
I0
sg12
g13
sg1152
(dp2422
sg1159
g1145
sba(ipoplib
AgentInstance
p2423
(dp2424
g1151
I0
sg12
g13
sg1152
(dp2425
sg1159
g1145
sba(ipoplib
AgentInstance
p2426
(dp2427
g1151
I0
sg12
g13
sg1152
(dp2428
sg1159
g1145
sba(ipoplib
AgentInstance
p2429
(dp2430
g1151
I0
sg12
g13
sg1152
(dp2431
sg1159
g1145
sba(ipoplib
AgentInstance
p2432
(dp2433
g1151
I0
sg12
g13
sg1152
(dp2434
sg1159
g1145
sba(ipoplib
AgentInstance
p2435
(dp2436
g1151
I0
sg12
g13
sg1152
(dp2437
sg1159
g1145
sba(ipoplib
AgentInstance
p2438
(dp2439
g1151
I0
sg12
g13
sg1152
(dp2440
sg1159
g1145
sba(ipoplib
AgentInstance
p2441
(dp2442
g1151
I0
sg12
g13
sg1152
(dp2443
sg1159
g1145
sba(ipoplib
AgentInstance
p2444
(dp2445
g1151
I0
sg12
g13
sg1152
(dp2446
sg1159
g1145
sba(ipoplib
AgentInstance
p2447
(dp2448
g1151
I0
sg12
g13
sg1152
(dp2449
sg1159
g1145
sba(ipoplib
AgentInstance
p2450
(dp2451
g1151
I0
sg12
g13
sg1152
(dp2452
sg1159
g1145
sba(ipoplib
AgentInstance
p2453
(dp2454
g1151
I0
sg12
g13
sg1152
(dp2455
sg1159
g1145
sba(ipoplib
AgentInstance
p2456
(dp2457
g1151
I0
sg12
g13
sg1152
(dp2458
sg1159
g1145
sba(ipoplib
AgentInstance
p2459
(dp2460
g1151
I0
sg12
g13
sg1152
(dp2461
sg1159
g1145
sba(ipoplib
AgentInstance
p2462
(dp2463
g1151
I0
sg12
g13
sg1152
(dp2464
sg1159
g1145
sba(ipoplib
AgentInstance
p2465
(dp2466
g1151
I0
sg12
g13
sg1152
(dp2467
sg1159
g1145
sba(ipoplib
AgentInstance
p2468
(dp2469
g1151
I0
sg12
g13
sg1152
(dp2470
sg1159
g1145
sba(ipoplib
AgentInstance
p2471
(dp2472
g1151
I0
sg12
g13
sg1152
(dp2473
sg1159
g1145
sba(ipoplib
AgentInstance
p2474
(dp2475
g1151
I0
sg12
g13
sg1152
(dp2476
sg1159
g1145
sba(ipoplib
AgentInstance
p2477
(dp2478
g1151
I0
sg12
g13
sg1152
(dp2479
sg1159
g1145
sba(ipoplib
AgentInstance
p2480
(dp2481
g1151
I0
sg12
g13
sg1152
(dp2482
sg1159
g1145
sba(ipoplib
AgentInstance
p2483
(dp2484
g1151
I0
sg12
g13
sg1152
(dp2485
sg1159
g1145
sba(ipoplib
AgentInstance
p2486
(dp2487
g1151
I0
sg12
g13
sg1152
(dp2488
sg1159
g1145
sba(ipoplib
AgentInstance
p2489
(dp2490
g1151
I0
sg12
g13
sg1152
(dp2491
sg1159
g1145
sba(ipoplib
AgentInstance
p2492
(dp2493
g1151
I0
sg12
g13
sg1152
(dp2494
sg1159
g1145
sba(ipoplib
AgentInstance
p2495
(dp2496
g1151
I0
sg12
g13
sg1152
(dp2497
sg1159
g1145
sba(ipoplib
AgentInstance
p2498
(dp2499
g1151
I0
sg12
g13
sg1152
(dp2500
sg1159
g1145
sba(ipoplib
AgentInstance
p2501
(dp2502
g1151
I0
sg12
g13
sg1152
(dp2503
sg1159
g1145
sba(ipoplib
AgentInstance
p2504
(dp2505
g1151
I0
sg12
g13
sg1152
(dp2506
sg1159
g1145
sba(ipoplib
AgentInstance
p2507
(dp2508
g1151
I0
sg12
g13
sg1152
(dp2509
sg1159
g1145
sba(ipoplib
AgentInstance
p2510
(dp2511
g1151
I0
sg12
g13
sg1152
(dp2512
sg1159
g1145
sba(ipoplib
AgentInstance
p2513
(dp2514
g1151
I0
sg12
g13
sg1152
(dp2515
sg1159
g1145
sba(ipoplib
AgentInstance
p2516
(dp2517
g1151
I0
sg12
g13
sg1152
(dp2518
sg1159
g1145
sba(ipoplib
AgentInstance
p2519
(dp2520
g1151
I0
sg12
g13
sg1152
(dp2521
sg1159
g1145
sba(ipoplib
AgentInstance
p2522
(dp2523
g1151
I0
sg12
g13
sg1152
(dp2524
sg1159
g1145
sba(ipoplib
AgentInstance
p2525
(dp2526
g1151
I0
sg12
g13
sg1152
(dp2527
sg1159
g1145
sba(ipoplib
AgentInstance
p2528
(dp2529
g1151
I0
sg12
g13
sg1152
(dp2530
sg1159
g1145
sba(ipoplib
AgentInstance
p2531
(dp2532
g1151
I0
sg12
g13
sg1152
(dp2533
sg1159
g1145
sba(ipoplib
AgentInstance
p2534
(dp2535
g1151
I0
sg12
g13
sg1152
(dp2536
sg1159
g1145
sba(ipoplib
AgentInstance
p2537
(dp2538
g1151
I0
sg12
g13
sg1152
(dp2539
sg1159
g1145
sba(ipoplib
AgentInstance
p2540
(dp2541
g1151
I0
sg12
g13
sg1152
(dp2542
sg1159
g1145
sba(ipoplib
AgentInstance
p2543
(dp2544
g1151
I0
sg12
g13
sg1152
(dp2545
sg1159
g1145
sba(ipoplib
AgentInstance
p2546
(dp2547
g1151
I0
sg12
g13
sg1152
(dp2548
sg1159
g1145
sba(ipoplib
AgentInstance
p2549
(dp2550
g1151
I0
sg12
g13
sg1152
(dp2551
sg1159
g1145
sba(ipoplib
AgentInstance
p2552
(dp2553
g1151
I0
sg12
g13
sg1152
(dp2554
sg1159
g1145
sba(ipoplib
AgentInstance
p2555
(dp2556
g1151
I0
sg12
g13
sg1152
(dp2557
sg1159
g1145
sba(ipoplib
AgentInstance
p2558
(dp2559
g1151
I0
sg12
g13
sg1152
(dp2560
sg1159
g1145
sba(ipoplib
AgentInstance
p2561
(dp2562
g1151
I0
sg12
g13
sg1152
(dp2563
sg1159
g1145
sba(ipoplib
AgentInstance
p2564
(dp2565
g1151
I0
sg12
g13
sg1152
(dp2566
sg1159
g1145
sba(ipoplib
AgentInstance
p2567
(dp2568
g1151
I0
sg12
g13
sg1152
(dp2569
sg1159
g1145
sba(ipoplib
AgentInstance
p2570
(dp2571
g1151
I0
sg12
g13
sg1152
(dp2572
sg1159
g1145
sba(ipoplib
AgentInstance
p2573
(dp2574
g1151
I0
sg12
g13
sg1152
(dp2575
sg1159
g1145
sba(ipoplib
AgentInstance
p2576
(dp2577
g1151
I0
sg12
g13
sg1152
(dp2578
sg1159
g1145
sba(ipoplib
AgentInstance
p2579
(dp2580
g1151
I0
sg12
g13
sg1152
(dp2581
sg1159
g1145
sba(ipoplib
AgentInstance
p2582
(dp2583
g1151
I0
sg12
g13
sg1152
(dp2584
sg1159
g1145
sba(ipoplib
AgentInstance
p2585
(dp2586
g1151
I0
sg12
g13
sg1152
(dp2587
sg1159
g1145
sba(ipoplib
AgentInstance
p2588
(dp2589
g1151
I0
sg12
g13
sg1152
(dp2590
sg1159
g1145
sba(ipoplib
AgentInstance
p2591
(dp2592
g1151
I0
sg12
g13
sg1152
(dp2593
sg1159
g1145
sba(ipoplib
AgentInstance
p2594
(dp2595
g1151
I0
sg12
g13
sg1152
(dp2596
sg1159
g1145
sba(ipoplib
AgentInstance
p2597
(dp2598
g1151
I0
sg12
g13
sg1152
(dp2599
sg1159
g1145
sba(ipoplib
AgentInstance
p2600
(dp2601
g1151
I0
sg12
g13
sg1152
(dp2602
sg1159
g1145
sba(ipoplib
AgentInstance
p2603
(dp2604
g1151
I0
sg12
g13
sg1152
(dp2605
sg1159
g1145
sba(ipoplib
AgentInstance
p2606
(dp2607
g1151
I0
sg12
g13
sg1152
(dp2608
sg1159
g1145
sba(ipoplib
AgentInstance
p2609
(dp2610
g1151
I0
sg12
g13
sg1152
(dp2611
sg1159
g1145
sba(ipoplib
AgentInstance
p2612
(dp2613
g1151
I0
sg12
g13
sg1152
(dp2614
sg1159
g1145
sba(ipoplib
AgentInstance
p2615
(dp2616
g1151
I0
sg12
g13
sg1152
(dp2617
sg1159
g1145
sba(ipoplib
AgentInstance
p2618
(dp2619
g1151
I0
sg12
g13
sg1152
(dp2620
sg1159
g1145
sba(ipoplib
AgentInstance
p2621
(dp2622
g1151
I0
sg12
g13
sg1152
(dp2623
sg1159
g1145
sba(ipoplib
AgentInstance
p2624
(dp2625
g1151
I0
sg12
g13
sg1152
(dp2626
sg1159
g1145
sba(ipoplib
AgentInstance
p2627
(dp2628
g1151
I0
sg12
g13
sg1152
(dp2629
sg1159
g1145
sba(ipoplib
AgentInstance
p2630
(dp2631
g1151
I0
sg12
g13
sg1152
(dp2632
sg1159
g1145
sba(ipoplib
AgentInstance
p2633
(dp2634
g1151
I0
sg12
g13
sg1152
(dp2635
sg1159
g1145
sba(ipoplib
AgentInstance
p2636
(dp2637
g1151
I0
sg12
g13
sg1152
(dp2638
sg1159
g1145
sba(ipoplib
AgentInstance
p2639
(dp2640
g1151
I0
sg12
g13
sg1152
(dp2641
sg1159
g1145
sba(ipoplib
AgentInstance
p2642
(dp2643
g1151
I0
sg12
g13
sg1152
(dp2644
sg1159
g1145
sba(ipoplib
AgentInstance
p2645
(dp2646
g1151
I0
sg12
g13
sg1152
(dp2647
sg1159
g1145
sba(ipoplib
AgentInstance
p2648
(dp2649
g1151
I0
sg12
g13
sg1152
(dp2650
sg1159
g1145
sba(ipoplib
AgentInstance
p2651
(dp2652
g1151
I0
sg12
g13
sg1152
(dp2653
sg1159
g1145
sba(ipoplib
AgentInstance
p2654
(dp2655
g1151
I0
sg12
g13
sg1152
(dp2656
sg1159
g1145
sba(ipoplib
AgentInstance
p2657
(dp2658
g1151
I0
sg12
g13
sg1152
(dp2659
sg1159
g1145
sba(ipoplib
AgentInstance
p2660
(dp2661
g1151
I0
sg12
g13
sg1152
(dp2662
sg1159
g1145
sba(ipoplib
AgentInstance
p2663
(dp2664
g1151
I0
sg12
g13
sg1152
(dp2665
sg1159
g1145
sba(ipoplib
AgentInstance
p2666
(dp2667
g1151
I0
sg12
g13
sg1152
(dp2668
sg1159
g1145
sba(ipoplib
AgentInstance
p2669
(dp2670
g1151
I0
sg12
g13
sg1152
(dp2671
sg1159
g1145
sba(ipoplib
AgentInstance
p2672
(dp2673
g1151
I0
sg12
g13
sg1152
(dp2674
sg1159
g1145
sba(ipoplib
AgentInstance
p2675
(dp2676
g1151
I0
sg12
g13
sg1152
(dp2677
sg1159
g1145
sba(ipoplib
AgentInstance
p2678
(dp2679
g1151
I0
sg12
g13
sg1152
(dp2680
sg1159
g1145
sba(ipoplib
AgentInstance
p2681
(dp2682
g1151
I0
sg12
g13
sg1152
(dp2683
sg1159
g1145
sba(ipoplib
AgentInstance
p2684
(dp2685
g1151
I0
sg12
g13
sg1152
(dp2686
sg1159
g1145
sba(ipoplib
AgentInstance
p2687
(dp2688
g1151
I0
sg12
g13
sg1152
(dp2689
sg1159
g1145
sba(ipoplib
AgentInstance
p2690
(dp2691
g1151
I0
sg12
g13
sg1152
(dp2692
sg1159
g1145
sba(ipoplib
AgentInstance
p2693
(dp2694
g1151
I0
sg12
g13
sg1152
(dp2695
sg1159
g1145
sba(ipoplib
AgentInstance
p2696
(dp2697
g1151
I0
sg12
g13
sg1152
(dp2698
sg1159
g1145
sba(ipoplib
AgentInstance
p2699
(dp2700
g1151
I0
sg12
g13
sg1152
(dp2701
sg1159
g1145
sba(ipoplib
AgentInstance
p2702
(dp2703
g1151
I0
sg12
g13
sg1152
(dp2704
sg1159
g1145
sba(ipoplib
AgentInstance
p2705
(dp2706
g1151
I0
sg12
g13
sg1152
(dp2707
sg1159
g1145
sba(ipoplib
AgentInstance
p2708
(dp2709
g1151
I0
sg12
g13
sg1152
(dp2710
sg1159
g1145
sba(ipoplib
AgentInstance
p2711
(dp2712
g1151
I0
sg12
g13
sg1152
(dp2713
sg1159
g1145
sba(ipoplib
AgentInstance
p2714
(dp2715
g1151
I0
sg12
g13
sg1152
(dp2716
sg1159
g1145
sba(ipoplib
AgentInstance
p2717
(dp2718
g1151
I0
sg12
g13
sg1152
(dp2719
sg1159
g1145
sba(ipoplib
AgentInstance
p2720
(dp2721
g1151
I0
sg12
g13
sg1152
(dp2722
sg1159
g1145
sba(ipoplib
AgentInstance
p2723
(dp2724
g1151
I0
sg12
g13
sg1152
(dp2725
sg1159
g1145
sba(ipoplib
AgentInstance
p2726
(dp2727
g1151
I0
sg12
g13
sg1152
(dp2728
sg1159
g1145
sba(ipoplib
AgentInstance
p2729
(dp2730
g1151
I0
sg12
g13
sg1152
(dp2731
sg1159
g1145
sba(ipoplib
AgentInstance
p2732
(dp2733
g1151
I0
sg12
g13
sg1152
(dp2734
sg1159
g1145
sba(ipoplib
AgentInstance
p2735
(dp2736
g1151
I0
sg12
g13
sg1152
(dp2737
sg1159
g1145
sba(ipoplib
AgentInstance
p2738
(dp2739
g1151
I0
sg12
g13
sg1152
(dp2740
sg1159
g1145
sba(ipoplib
AgentInstance
p2741
(dp2742
g1151
I0
sg12
g13
sg1152
(dp2743
sg1159
g1145
sba(ipoplib
AgentInstance
p2744
(dp2745
g1151
I0
sg12
g13
sg1152
(dp2746
sg1159
g1145
sba(ipoplib
AgentInstance
p2747
(dp2748
g1151
I0
sg12
g13
sg1152
(dp2749
sg1159
g1145
sba(ipoplib
AgentInstance
p2750
(dp2751
g1151
I0
sg12
g13
sg1152
(dp2752
sg1159
g1145
sba(ipoplib
AgentInstance
p2753
(dp2754
g1151
I0
sg12
g13
sg1152
(dp2755
sg1159
g1145
sba(ipoplib
AgentInstance
p2756
(dp2757
g1151
I0
sg12
g13
sg1152
(dp2758
sg1159
g1145
sba(ipoplib
AgentInstance
p2759
(dp2760
g1151
I0
sg12
g13
sg1152
(dp2761
sg1159
g1145
sba(ipoplib
AgentInstance
p2762
(dp2763
g1151
I0
sg12
g13
sg1152
(dp2764
sg1159
g1145
sba(ipoplib
AgentInstance
p2765
(dp2766
g1151
I0
sg12
g13
sg1152
(dp2767
sg1159
g1145
sba(ipoplib
AgentInstance
p2768
(dp2769
g1151
I0
sg12
g13
sg1152
(dp2770
sg1159
g1145
sba(ipoplib
AgentInstance
p2771
(dp2772
g1151
I0
sg12
g13
sg1152
(dp2773
sg1159
g1145
sba(ipoplib
AgentInstance
p2774
(dp2775
g1151
I0
sg12
g13
sg1152
(dp2776
sg1159
g1145
sba(ipoplib
AgentInstance
p2777
(dp2778
g1151
I0
sg12
g13
sg1152
(dp2779
sg1159
g1145
sba(ipoplib
AgentInstance
p2780
(dp2781
g1151
I0
sg12
g13
sg1152
(dp2782
sg1159
g1145
sba(ipoplib
AgentInstance
p2783
(dp2784
g1151
I0
sg12
g13
sg1152
(dp2785
sg1159
g1145
sba(ipoplib
AgentInstance
p2786
(dp2787
g1151
I0
sg12
g13
sg1152
(dp2788
sg1159
g1145
sba(ipoplib
AgentInstance
p2789
(dp2790
g1151
I0
sg12
g13
sg1152
(dp2791
sg1159
g1145
sba(ipoplib
AgentInstance
p2792
(dp2793
g1151
I0
sg12
g13
sg1152
(dp2794
sg1159
g1146
sbasS'popmap'
p2795
(dp2796
g1143
(lp2797
g1160
ag1166
asg1142
(lp2798
g1149
asg1145
(lp2799
g1382
ag1595
ag1598
ag1601
ag1604
ag1607
ag1610
ag1613
ag1616
ag1619
ag1622
ag1625
ag1628
ag1631
ag1634
ag1637
ag1640
ag1643
ag1646
ag1649
ag1652
ag1655
ag1658
ag1661
ag1664
ag1667
ag1670
ag1673
ag1676
ag1679
ag1682
ag1685
ag1688
ag1691
ag1694
ag1697
ag1700
ag1703
ag1706
ag1709
ag1712
ag1715
ag1718
ag1721
ag1724
ag1727
ag1730
ag1733
ag1736
ag1739
ag1742
ag1745
ag1748
ag1751
ag1754
ag1757
ag1760
ag1763
ag1766
ag1769
ag1772
ag1775
ag1778
ag1781
ag1784
ag1787
ag1790
ag1793
ag1796
ag1799
ag1802
ag1805
ag1808
ag1811
ag1814
ag1817
ag1820
ag1823
ag1826
ag1829
ag1832
ag1835
ag1838
ag1841
ag1844
ag1847
ag1850
ag1853
ag1856
ag1859
ag1862
ag1865
ag1868
ag1871
ag1874
ag1877
ag1880
ag1883
ag1886
ag1889
ag1892
ag1895
ag1898
ag1901
ag1904
ag1907
ag1910
ag1913
ag1916
ag1919
ag1922
ag1925
ag1928
ag1931
ag1934
ag1937
ag1940
ag1943
ag1946
ag1949
ag1952
ag1955
ag1958
ag1961
ag1964
ag1967
ag1970
ag1973
ag1976
ag1979
ag1982
ag1985
ag1988
ag1991
ag1994
ag1997
ag2000
ag2003
ag2006
ag2009
ag2012
ag2015
ag2018
ag2021
ag2024
ag2027
ag2030
ag2033
ag2036
ag2039
ag2042
ag2045
ag2048
ag2051
ag2054
ag2057
ag2060
ag2063
ag2066
ag2069
ag2072
ag2075
ag2078
ag2081
ag2084
ag2087
ag2090
ag2093
ag2096
ag2099
ag2102
ag2105
ag2108
ag2111
ag2114
ag2117
ag2120
ag2123
ag2126
ag2129
ag2132
ag2135
ag2138
ag2141
ag2144
ag2147
ag2150
ag2153
ag2156
ag2159
ag2162
ag2165
ag2168
ag2171
ag2174
ag2177
ag2180
ag2183
ag2186
ag2189
ag2192
ag2195
ag2198
ag2201
ag2204
ag2207
ag2210
ag2213
ag2216
ag2219
ag2222
ag2225
ag2228
ag2231
ag2234
ag2237
ag2240
ag2243
ag2246
ag2249
ag2252
ag2255
ag2258
ag2261
ag2264
ag2267
ag2270
ag2273
ag2276
ag2279
ag2282
ag2285
ag2288
ag2291
ag2294
ag2297
ag2300
ag2303
ag2306
ag2309
ag2312
ag2315
ag2318
ag2321
ag2324
ag2327
ag2330
ag2333
ag2336
ag2339
ag2342
ag2345
ag2348
ag2351
ag2354
ag2357
ag2360
ag2363
ag2366
ag2369
ag2372
ag2375
ag2378
ag2381
ag2384
ag2387
ag2390
ag2393
ag2396
ag2399
ag2402
ag2405
ag2408
ag2411
ag2414
ag2417
ag2420
ag2423
ag2426
ag2429
ag2432
ag2435
ag2438
ag2441
ag2444
ag2447
ag2450
ag2453
ag2456
ag2459
ag2462
ag2465
ag2468
ag2471
ag2474
ag2477
ag2480
ag2483
ag2486
ag2489
ag2492
ag2495
ag2498
ag2501
ag2504
ag2507
ag2510
ag2513
ag2516
ag2519
ag2522
ag2525
ag2528
ag2531
ag2534
ag2537
ag2540
ag2543
ag2546
ag2549
ag2552
ag2555
ag2558
ag2561
ag2564
ag2567
ag2570
ag2573
ag2576
ag2579
ag2582
ag2585
ag2588
ag2591
ag2594
ag2597
ag2600
ag2603
ag2606
ag2609
ag2612
ag2615
ag2618
ag2621
ag2624
ag2627
ag2630
ag2633
ag2636
ag2639
ag2642
ag2645
ag2648
ag2651
ag2654
ag2657
ag2660
ag2663
ag2666
ag2669
ag2672
ag2675
ag2678
ag2681
ag2684
ag2687
ag2690
ag2693
ag2696
ag2699
ag2702
ag2705
ag2708
ag2711
ag2714
ag2717
ag2720
ag2723
ag2726
ag2729
ag2732
ag2735
ag2738
ag2741
ag2744
ag2747
ag2750
ag2753
ag2756
ag2759
ag2762
ag2765
ag2768
ag2771
ag2774
ag2777
ag2780
ag2783
ag2786
ag2789
asg1144
(lp2800
g1172
asg1146
(lp2801
g2792
assbasS'state'
p2802
S'newpop'
p2803
sS'version'
p2804
S'0.1.0'
p2805
sg12
(ipoplib
Model
p2806
(dp2807
g15
(dp2808
g17
g18
sg4
VEurace
p2809
sg20
(ipoplib
MultiDict
p2810
(dp2811
g23
I0
sg24
(dp2812
Vxmodel
p2813
(lp2814
(ipoplib
MultiDict
p2815
(dp2816
g23
I0
sg24
(dp2817
Venvironment
p2818
(lp2819
(ipoplib
MultiDict
p2820
(dp2821
g23
I0
sg24
(dp2822
Vfunctionfiles
p2823
(lp2824
(ipoplib
MultiDict
p2825
(dp2826
g23
I0
sg24
(dp2827
sbasVtimeunits
p2828
(lp2829
(ipoplib
MultiDict
p2830
(dp2831
g23
I0
sg24
(dp2832
Vtimeunit
p2833
(lp2834
(ipoplib
MultiDict
p2835
(dp2836
g23
I0
sg24
(dp2837
Vname
p2838
(lp2839
Vdaily
p2840
asVunit
p2841
(lp2842
Viteration
p2843
asVperiod
p2844
(lp2845
V1
p2846
assba(ipoplib
MultiDict
p2847
(dp2848
g23
I0
sg24
(dp2849
Vname
p2850
(lp2851
Vweekly
p2852
asVunit
p2853
(lp2854
Vdaily
p2855
asVperiod
p2856
(lp2857
V5
p2858
assba(ipoplib
MultiDict
p2859
(dp2860
g23
I0
sg24
(dp2861
Vname
p2862
(lp2863
Vmonthly
p2864
asVunit
p2865
(lp2866
Vweekly
p2867
asVperiod
p2868
(lp2869
V4
p2870
assba(ipoplib
MultiDict
p2871
(dp2872
g23
I0
sg24
(dp2873
Vname
p2874
(lp2875
Vquarterly
p2876
asVunit
p2877
(lp2878
Vmonthly
p2879
asVperiod
p2880
(lp2881
V3
p2882
assba(ipoplib
MultiDict
p2883
(dp2884
g23
I0
sg24
(dp2885
Vname
p2886
(lp2887
Vyearly
p2888
asVunit
p2889
(lp2890
Vmonthly
p2891
asVperiod
p2892
(lp2893
V12
p2894
assba(ipoplib
MultiDict
p2895
(dp2896
g23
I0
sg24
(dp2897
Vname
p2898
(lp2899
Vmillionyearly
p2900
asVunit
p2901
(lp2902
Vyearly
p2903
asVperiod
p2904
(lp2905
V1000000
p2906
assbassbassbasVname
p2907
(lp2908
g2809
asVmodels
p2909
(lp2910
(ipoplib
MultiDict
p2911
(dp2912
g23
I0
sg24
(dp2913
Vmodel
p2914
(lp2915
(ipoplib
MultiDict
p2916
(dp2917
g23
I0
sg24
(dp2918
Venabled
p2919
(lp2920
Vtrue
p2921
asVfile
p2922
(lp2923
Vewa_learning/model.xml
p2924
assba(ipoplib
MultiDict
p2925
(dp2926
g23
I0
sg24
(dp2927
Venabled
p2928
(lp2929
Vtrue
p2930
asVfile
p2931
(lp2932
VFM_UG/model.xml
p2933
assbassbasVmessages
p2934
(lp2935
(ipoplib
MultiDict
p2936
(dp2937
g23
I0
sg24
(dp2938
sbasN(lp2939
VModels to include in Eurace model
p2940
aVGeneral agent memory
p2941
asVversion
p2942
(lp2943
V0.01
p2944
asVagents
p2945
(lp2946
(ipoplib
MultiDict
p2947
(dp2948
g23
I0
sg24
(dp2949
Vxagent
p2950
(lp2951
(ipoplib
MultiDict
p2952
(dp2953
g23
I0
sg24
(dp2954
Vname
p2955
(lp2956
g1144
asVmemory
p2957
(lp2958
(ipoplib
MultiDict
p2959
(dp2960
g23
I0
sg24
(dp2961
Vvariable
p2962
(lp2963
(ipoplib
MultiDict
p2964
(dp2965
g23
I0
sg24
(dp2966
Vtype
p2967
(lp2968
Vint
p2969
asVname
p2970
(lp2971
Vid
p2972
assbassbassba(ipoplib
MultiDict
p2973
(dp2974
g23
I0
sg24
(dp2975
Vname
p2976
(lp2977
g1145
asVmemory
p2978
(lp2979
(ipoplib
MultiDict
p2980
(dp2981
g23
I0
sg24
(dp2982
Vvariable
p2983
(lp2984
(ipoplib
MultiDict
p2985
(dp2986
g23
I0
sg24
(dp2987
Vtype
p2988
(lp2989
Vint
p2990
asVname
p2991
(lp2992
Vid
p2993
assba(ipoplib
MultiDict
p2994
(dp2995
g23
I0
sg24
(dp2996
Vtype
p2997
(lp2998
Vint
p2999
asVname
p3000
(lp3001
Vday_of_month_to_act
p3002
assba(ipoplib
MultiDict
p3003
(dp3004
g23
I0
sg24
(dp3005
Vtype
p3006
(lp3007
Vdouble
p3008
asVname
p3009
(lp3010
Vglobal_rnd
p3011
assba(ipoplib
MultiDict
p3012
(dp3013
g23
I0
sg24
(dp3014
Vtype
p3015
(lp3016
Vdouble
p3017
asVname
p3018
(lp3019
Vprob_random
p3020
assba(ipoplib
MultiDict
p3021
(dp3022
g23
I0
sg24
(dp3023
Vtype
p3024
(lp3025
Vdouble
p3026
asVname
p3027
(lp3028
Vprob_fund
p3029
assbassbassbassbasVdescription
p3030
(lp3031
VIntegration of AFM + EWA
p3032
assbassbsg248
g18
ssg249
(lp3033
(ipoplib
DataType
p3034
(dp3035
g253
(lp3036
VEWA_rho
p3037
aVEWA_phi
p3038
aVEWA_delta
p3039
aVEWA_beta
p3040
asg4
VEWAParameterStruct
p3041
sg260
(dp3042
g3038
(dp3043
g263
Vdouble
p3044
sg265
g266
ssg3040
(dp3045
g263
Vdouble
p3046
sg265
g266
ssg3037
(dp3047
g263
Vdouble
p3048
sg265
g266
ssg3039
(dp3049
g263
Vdouble
p3050
sg265
g266
sssg265
VStruct for the EWA Parameters
p3051
sba(ipoplib
DataType
p3052
(dp3053
g253
(lp3054
Vprob_cross
p3055
aVprob_mut
p3056
aVstring_size
p3057
aVpop_size
p3058
aVreproduction_proportion
p3059
aVsingle_point_cross_over
p3060
aVelection
p3061
aVstepsize[5]
p3062
aVdelta_min
p3063
aVdelta_max
p3064
aVmin_values[5]
p3065
aVmax_values[5]
p3066
asg4
VGAParameterStruct
p3067
sg260
(dp3068
g3065
(dp3069
g263
Vdouble
p3070
sg265
VMinimum values for each parameter
p3071
ssg3063
(dp3072
g263
Vint
p3073
sg265
VLower bound on number of units to mutate inside the mutation range: delta_min can be negative or positive.
p3074
ssg3055
(dp3075
g263
Vdouble
p3076
sg265
VCrossover probability
p3077
ssg3066
(dp3078
g263
Vdouble
p3079
sg265
VMaximum values for each parameter
p3080
ssg3060
(dp3081
g263
Vint
p3082
sg265
VDummy for single-point crossover operator (1: use single-point; 0: use 2-point cross-over)
p3083
ssg3056
(dp3084
g263
Vdouble
p3085
sg265
VMutation probability
p3086
ssg3064
(dp3087
g263
Vint
p3088
sg265
VUpper bound on number of units to mutate inside the mutation range: delta_max should be positive.
p3089
ssg3057
(dp3090
g263
Vint
p3091
sg265
g266
ssg3061
(dp3092
g263
Vint
p3093
sg265
VDummy for election operator
p3094
ssg3059
(dp3095
g263
Vdouble
p3096
sg265
VProportion of population that reproduces
p3097
ssg3062
(dp3098
g263
Vdouble
p3099
sg265
VMutation stepsize for each parameter
p3100
ssg3058
(dp3101
g263
Vint
p3102
sg265
VSize of the rule population
p3103
sssg265
VStruct for the GA Parameters
p3104
sba(ipoplib
DataType
p3105
(dp3106
g253
(lp3107
Vid
p3108
aVcounter
p3109
aVperformance
p3110
aVavg_performance
p3111
aVselection_prob
p3112
aVparameters[5]
p3113
asg4
VPublicClassifierRule
p3114
sg260
(dp3115
g3112
(dp3116
g263
Vdouble
p3117
sg265
VSelection probability for the rule
p3118
ssg3113
(dp3119
g263
Vdouble
p3120
sg265
VParameter values encoding the rule
p3121
ssg3109
(dp3122
g263
Vint
p3123
sg265
VUser counter for each rule
p3124
ssg3111
(dp3125
g263
Vdouble
p3126
sg265
VAverage performance for each rule (=total performance/counter)
p3127
ssg3110
(dp3128
g263
Vdouble
p3129
sg265
VTotal performance for each rule
p3130
ssg3108
(dp3131
g263
Vint
p3132
sg265
Vid for the rule
p3133
sssg265
VDatatype for the central classifier system. The system is a dynamic array of PublicClassifierRules !Subject to change!
p3134
sba(ipoplib
DataType
p3135
(dp3136
g253
(lp3137
Vid
p3138
aVmy_performance
p3139
aVavg_performance
p3140
aVattraction
p3141
aVchoiceprob
p3142
aVparameters[5]
p3143
asg4
VPrivateClassifierRule
p3144
sg260
(dp3145
g3143
(dp3146
g263
Vdouble
p3147
sg265
VParameter values encoding the rule
p3148
ssg3142
(dp3149
g263
Vdouble
p3150
sg265
VAgent choice probabilities
p3151
ssg3139
(dp3152
g263
Vdouble
p3153
sg265
VAgent performance with current_rule (0.0 if this rule is not currently used)
p3154
ssg3141
(dp3155
g263
Vdouble
p3156
sg265
VAgent attractions
p3157
ssg3140
(dp3158
g263
Vdouble
p3159
sg265
VAverage performance for this rule across population (copied from Central CS)
p3160
ssg3138
(dp3161
g263
Vint
p3162
sg265
Vid for each rule
p3163
sssg265
VDatatype for the private classifier system inside each agent. The system is a dynamic array of PrivateClassifierRule.  !Subject to change!
p3164
sba(ipoplib
DataType
p3165
(dp3166
g253
(lp3167
Vnr_rules
p3168
aVruletable[100]
p3169
asg4
VSimplePublicClassifierSystem
p3170
sg260
(dp3171
g3168
(dp3172
g263
Vint
p3173
sg265
VTotal number of rules in the rule set
p3174
ssg3169
(dp3175
g263
VPublicClassifierRule
p3176
sg265
VStatic array of 100 public classifier rules of homogeneous type
p3177
sssg265
VDatatype for the central classifier system. Simple version allows for rules of the same strategy type (all rules use the same function). !Subject to change!
p3178
sba(ipoplib
DataType
p3179
(dp3180
g253
(lp3181
Vnr_rules
p3182
aVexperience
p3183
aVcurrent_rule
p3184
aVruletable[100]
p3185
asg4
VSimplePrivateClassifierSystem
p3186
sg260
(dp3187
g3182
(dp3188
g263
Vint
p3189
sg265
VTotal number of rules in the rule set
p3190
ssg3184
(dp3191
g263
Vint
p3192
sg265
VCurrent rule in use by the agent
p3193
ssg3185
(dp3194
g263
VPrivateClassifierRule
p3195
sg265
VStatic array of 100 private classifier rules of homogeneous type
p3196
ssg3183
(dp3197
g263
Vdouble
p3198
sg265
VExperience variable for EWA learning
p3199
sssg265
VDatatype for the private classifier system inside each agent. Simple version allows for rules of the same strategy type (all rules use the same function). !Subject to change!
p3200
sba(ipoplib
DataType
p3201
(dp3202
g253
(lp3203
Vnr_types
p3204
aVnr_rules_per_type
p3205
aVnr_rules
p3206
aVruletable[100]
p3207
asg4
VComplexPublicClassifierSystem
p3208
sg260
(dp3209
g3206
(dp3210
g263
Vint
p3211
sg265
VTotal number of rules in the rule set
p3212
ssg3205
(dp3213
g263
Vint_array
p3214
sg265
VNr_rules_per_type may differ per type: size of subpopulations
p3215
ssg3207
(dp3216
g263
VPublicClassifierRule
p3217
sg265
VStatic array of 100 public classifier rules of heterogenous type
p3218
ssg3204
(dp3219
g263
Vint
p3220
sg265
VNumber of subpopulations (different types of rules)
p3221
sssg265
VDatatype for the central classifier system. This complex version allows for heterogeneous rule sets. !Subject to change!
p3222
sba(ipoplib
DataType
p3223
(dp3224
g253
(lp3225
Vissuer
p3226
aVquantity
p3227
aVprice
p3228
aVassetId
p3229
asg4
VOrder
p3230
sg260
(dp3231
g3229
(dp3232
g263
Vint
p3233
sg265
g266
ssg3228
(dp3234
g263
Vdouble
p3235
sg265
g266
ssg3227
(dp3236
g263
Vint
p3237
sg265
g266
ssg3226
(dp3238
g263
Vint
p3239
sg265
g266
sssg265
VADT order
p3240
sba(ipoplib
DataType
p3241
(dp3242
g253
(lp3243
Vasset_id
p3244
aVexpectedPriceReturns
p3245
aVexpectedTotalReturns
p3246
aVexpectedCashFlowYield
p3247
aVvolatility
p3248
aVexpectedEarning
p3249
aVexpectedEarningPayout
p3250
aVlast_price
p3251
aVutility
p3252
asg4
VBelief
p3253
sg260
(dp3254
g3244
(dp3255
g263
Vint
p3256
sg265
g266
ssg3245
(dp3257
g263
Vdouble
p3258
sg265
g266
ssg3246
(dp3259
g263
Vdouble
p3260
sg265
g266
ssg3249
(dp3261
g263
Vdouble
p3262
sg265
g266
ssg3250
(dp3263
g263
Vdouble
p3264
sg265
g266
ssg3247
(dp3265
g263
Vdouble
p3266
sg265
g266
ssg3251
(dp3267
g263
Vdouble
p3268
sg265
g266
ssg3252
(dp3269
g263
Vdouble
p3270
sg265
g266
ssg3248
(dp3271
g263
Vdouble
p3272
sg265
g266
sssg265
VADT Belief
p3273
sba(ipoplib
DataType
p3274
(dp3275
g253
(lp3276
Vid
p3277
aVnrOutStandingShares
p3278
aVindex
p3279
aVprices[100]
p3280
aVreturns[100]
p3281
asg4
VStock
p3282
sg260
(dp3283
g3280
(dp3284
g263
Vdouble
p3285
sg265
g266
ssg3279
(dp3286
g263
Vint
p3287
sg265
g266
ssg3277
(dp3288
g263
Vint
p3289
sg265
g266
ssg3281
(dp3290
g263
Vdouble
p3291
sg265
g266
ssg3278
(dp3292
g263
Vint
p3293
sg265
g266
sssg265
VADT Stock
p3294
sba(ipoplib
DataType
p3295
(dp3296
g253
(lp3297
Vid
p3298
aVquantity
p3299
aVlastPrice
p3300
asg4
VAsset
p3301
sg260
(dp3302
g3298
(dp3303
g263
Vint
p3304
sg265
g266
ssg3300
(dp3305
g263
Vdouble
p3306
sg265
g266
ssg3299
(dp3307
g263
Vint
p3308
sg265
g266
sssg265
VADT Asset
p3309
sba(ipoplib
DataType
p3310
(dp3311
g253
(lp3312
VlastPrice
p3313
aVquantity
p3314
aVsellOrders
p3315
aVbuyOrders
p3316
aVprices
p3317
asg4
VClearingMechanism
p3318
sg260
(dp3319
g3317
(dp3320
g263
Vdouble_array
p3321
sg265
g266
ssg3316
(dp3322
g263
VOrder_array
p3323
sg265
g266
ssg3315
(dp3324
g263
VOrder_array
p3325
sg265
g266
ssg3313
(dp3326
g263
Vdouble
p3327
sg265
g266
ssg3314
(dp3328
g263
Vint
p3329
sg265
g266
sssg265
VADT clearing mechanism
p3330
sbasg553
(lp3331
(ipoplib
Agent
p3332
(dp3333
g557
(lp3334
g2972
aVpublic_classifiersystem
p3335
aVGA_parameters
p3336
aVEWA_parameters
p3337
asg4
g1144
sg562
(lp3338
(ipoplib
MemVar
p3339
(dp3340
g566
I0
sg567
g2969
sg4
g2972
sg568
Nsg569
g3332
sg570
I0
sg571
(dp3341
g2972
(ipoplib
BaseForm
p3342
(dp3343
g575
g18
sg568
g3339
sg576
g605
sbssg578
g2972
sg12
g2806
sg263
g2969
sg265
g266
sba(ipoplib
MemVar
p3344
(dp3345
g566
I0
sg567
VSimplePublicClassifierSystem
p3346
sg4
g3335
sg568
Nsg569
g3332
sg570
I0
sg571
(dp3347
g3168
(ipoplib
BaseForm
p3348
(dp3349
g575
g3173
sg568
g3344
sg576
g605
sbsg3169
(ipoplib
MemVar
p3350
(dp3351
g566
I1
sg567
g3176
sg4
Vruletable
p3352
sg568
g3344
sg569
g3332
sg570
V100
p3353
sg571
(dp3354
g3112
(ipoplib
BaseForm
p3355
(dp3356
g575
g3117
sg568
g3350
sg576
g605
sbsg3113
(ipoplib
MemVar
p3357
(dp3358
g566
I1
sg567
g3120
sg4
Vparameters
p3359
sg568
g3350
sg569
g3332
sg570
g597
sg571
(dp3360
g599
(ipoplib
BaseFormStatic
p3361
(dp3362
g575
g18
sg568
g3357
sg576
g605
sbsg3359
(ipoplib
BaseForm
p3363
(dp3364
g575
g3120
sg568
g3357
sg576
g605
sbssg578
g3113
sg12
g2806
sg263
g3120
sg265
g606
sbsg3109
(ipoplib
BaseForm
p3365
(dp3366
g575
g3123
sg568
g3350
sg576
g605
sbsg599
(ipoplib
BaseFormStatic
p3367
(dp3368
g575
g18
sg568
g3350
sg576
g605
sbsg3111
(ipoplib
BaseForm
p3369
(dp3370
g575
g3126
sg568
g3350
sg576
g605
sbsg3110
(ipoplib
BaseForm
p3371
(dp3372
g575
g3129
sg568
g3350
sg576
g605
sbsg3108
(ipoplib
BaseForm
p3373
(dp3374
g575
g3132
sg568
g3350
sg576
g605
sbssg578
g3169
sg12
g2806
sg263
g3176
sg265
g606
sbssg578
g3335
sg12
g2806
sg263
g3346
sg265
g266
sba(ipoplib
MemVar
p3375
(dp3376
g566
I0
sg567
VGAParameterStruct
p3377
sg4
g3336
sg568
Nsg569
g3332
sg570
I0
sg571
(dp3378
g3065
(ipoplib
MemVar
p3379
(dp3380
g566
I1
sg567
g3070
sg4
Vmin_values
p3381
sg568
g3375
sg569
g3332
sg570
g597
sg571
(dp3382
g599
(ipoplib
BaseFormStatic
p3383
(dp3384
g575
g18
sg568
g3379
sg576
g605
sbsg3381
(ipoplib
BaseForm
p3385
(dp3386
g575
g3070
sg568
g3379
sg576
g605
sbssg578
g3065
sg12
g2806
sg263
g3070
sg265
g606
sbsg3063
(ipoplib
BaseForm
p3387
(dp3388
g575
g3073
sg568
g3375
sg576
g605
sbsg3055
(ipoplib
BaseForm
p3389
(dp3390
g575
g3076
sg568
g3375
sg576
g605
sbsg3066
(ipoplib
MemVar
p3391
(dp3392
g566
I1
sg567
g3079
sg4
Vmax_values
p3393
sg568
g3375
sg569
g3332
sg570
g597
sg571
(dp3394
g599
(ipoplib
BaseFormStatic
p3395
(dp3396
g575
g18
sg568
g3391
sg576
g605
sbsg3393
(ipoplib
BaseForm
p3397
(dp3398
g575
g3079
sg568
g3391
sg576
g605
sbssg578
g3066
sg12
g2806
sg263
g3079
sg265
g606
sbsg3060
(ipoplib
BaseForm
p3399
(dp3400
g575
g3082
sg568
g3375
sg576
g605
sbsg3056
(ipoplib
BaseForm
p3401
(dp3402
g575
g3085
sg568
g3375
sg576
g605
sbsg3064
(ipoplib
BaseForm
p3403
(dp3404
g575
g3088
sg568
g3375
sg576
g605
sbsg3057
(ipoplib
BaseForm
p3405
(dp3406
g575
g3091
sg568
g3375
sg576
g605
sbsg3061
(ipoplib
BaseForm
p3407
(dp3408
g575
g3093
sg568
g3375
sg576
g605
sbsg3059
(ipoplib
BaseForm
p3409
(dp3410
g575
g3096
sg568
g3375
sg576
g605
sbsg3062
(ipoplib
MemVar
p3411
(dp3412
g566
I1
sg567
g3099
sg4
Vstepsize
p3413
sg568
g3375
sg569
g3332
sg570
g597
sg571
(dp3414
g599
(ipoplib
BaseFormStatic
p3415
(dp3416
g575
g18
sg568
g3411
sg576
g605
sbsg3413
(ipoplib
BaseForm
p3417
(dp3418
g575
g3099
sg568
g3411
sg576
g605
sbssg578
g3062
sg12
g2806
sg263
g3099
sg265
g606
sbsg3058
(ipoplib
BaseForm
p3419
(dp3420
g575
g3102
sg568
g3375
sg576
g605
sbssg578
g3336
sg12
g2806
sg263
g3377
sg265
g266
sba(ipoplib
MemVar
p3421
(dp3422
g566
I0
sg567
VEWAParameterStruct
p3423
sg4
g3337
sg568
Nsg569
g3332
sg570
I0
sg571
(dp3424
g3038
(ipoplib
BaseForm
p3425
(dp3426
g575
g3044
sg568
g3421
sg576
g605
sbsg3040
(ipoplib
BaseForm
p3427
(dp3428
g575
g3046
sg568
g3421
sg576
g605
sbsg3037
(ipoplib
BaseForm
p3429
(dp3430
g575
g3048
sg568
g3421
sg576
g605
sbsg3039
(ipoplib
BaseForm
p3431
(dp3432
g575
g3050
sg568
g3421
sg576
g605
sbssg578
g3337
sg12
g2806
sg263
g3423
sg265
g266
sbasg265
g266
sba(ipoplib
Agent
p3433
(dp3434
g557
(lp3435
g2993
ag3002
ag3011
ag3020
ag3029
aVEWA_parameters
p3436
aVprivate_classifiersystem
p3437
aVwealth
p3438
aVbeliefs
p3439
aVpendingOrders
p3440
aVassetsowned
p3441
aVassetWeights
p3442
aVassetUtilities
p3443
aVpayment_account
p3444
aVconsumption_badget
p3445
aVcash_on_hand
p3446
aVportfolio_badget
p3447
aVforwardWindow
p3448
aVbackwardWindow
p3449
aVbins
p3450
aVrandomWeight
p3451
aVfundamentalWeight
p3452
aVchartistWeight
p3453
aVholdingPeriodToForwardW
p3454
aVlossaversion
p3455
asg4
g1145
sg562
(lp3456
(ipoplib
MemVar
p3457
(dp3458
g566
I0
sg567
g2990
sg4
g2993
sg568
Nsg569
g3433
sg570
I0
sg571
(dp3459
g2993
(ipoplib
BaseForm
p3460
(dp3461
g575
g18
sg568
g3457
sg576
g605
sbssg578
g2993
sg12
g2806
sg263
g2990
sg265
g266
sba(ipoplib
MemVar
p3462
(dp3463
g566
I0
sg567
g2999
sg4
g3002
sg568
Nsg569
g3433
sg570
I0
sg571
(dp3464
g3002
(ipoplib
BaseForm
p3465
(dp3466
g575
g2999
sg568
g3462
sg576
g605
sbssg578
g3002
sg12
g2806
sg263
g2999
sg265
g266
sba(ipoplib
MemVar
p3467
(dp3468
g566
I0
sg567
g3008
sg4
g3011
sg568
Nsg569
g3433
sg570
I0
sg571
(dp3469
g3011
(ipoplib
BaseForm
p3470
(dp3471
g575
g3008
sg568
g3467
sg576
g605
sbssg578
g3011
sg12
g2806
sg263
g3008
sg265
g266
sba(ipoplib
MemVar
p3472
(dp3473
g566
I0
sg567
g3017
sg4
g3020
sg568
Nsg569
g3433
sg570
I0
sg571
(dp3474
g3020
(ipoplib
BaseForm
p3475
(dp3476
g575
g3017
sg568
g3472
sg576
g605
sbssg578
g3020
sg12
g2806
sg263
g3017
sg265
g266
sba(ipoplib
MemVar
p3477
(dp3478
g566
I0
sg567
g3026
sg4
g3029
sg568
Nsg569
g3433
sg570
I0
sg571
(dp3479
g3029
(ipoplib
BaseForm
p3480
(dp3481
g575
g3026
sg568
g3477
sg576
g605
sbssg578
g3029
sg12
g2806
sg263
g3026
sg265
g266
sba(ipoplib
MemVar
p3482
(dp3483
g566
I0
sg567
VEWAParameterStruct
p3484
sg4
g3436
sg568
Nsg569
g3433
sg570
I0
sg571
(dp3485
g3038
(ipoplib
BaseForm
p3486
(dp3487
g575
g3044
sg568
g3482
sg576
g605
sbsg3040
(ipoplib
BaseForm
p3488
(dp3489
g575
g3046
sg568
g3482
sg576
g605
sbsg3037
(ipoplib
BaseForm
p3490
(dp3491
g575
g3048
sg568
g3482
sg576
g605
sbsg3039
(ipoplib
BaseForm
p3492
(dp3493
g575
g3050
sg568
g3482
sg576
g605
sbssg578
g3436
sg12
g2806
sg263
g3484
sg265
g266
sba(ipoplib
MemVar
p3494
(dp3495
g566
I0
sg567
VSimplePrivateClassifierSystem
p3496
sg4
g3437
sg568
Nsg569
g3433
sg570
I0
sg571
(dp3497
g3182
(ipoplib
BaseForm
p3498
(dp3499
g575
g3189
sg568
g3494
sg576
g605
sbsg3184
(ipoplib
BaseForm
p3500
(dp3501
g575
g3192
sg568
g3494
sg576
g605
sbsg3185
(ipoplib
MemVar
p3502
(dp3503
g566
I1
sg567
g3195
sg4
Vruletable
p3504
sg568
g3494
sg569
g3433
sg570
V100
p3505
sg571
(dp3506
g3141
(ipoplib
BaseForm
p3507
(dp3508
g575
g3156
sg568
g3502
sg576
g605
sbsg3143
(ipoplib
MemVar
p3509
(dp3510
g566
I1
sg567
g3147
sg4
Vparameters
p3511
sg568
g3502
sg569
g3433
sg570
g597
sg571
(dp3512
g599
(ipoplib
BaseFormStatic
p3513
(dp3514
g575
g18
sg568
g3509
sg576
g605
sbsg3511
(ipoplib
BaseForm
p3515
(dp3516
g575
g3147
sg568
g3509
sg576
g605
sbssg578
g3143
sg12
g2806
sg263
g3147
sg265
g606
sbsg3142
(ipoplib
BaseForm
p3517
(dp3518
g575
g3150
sg568
g3502
sg576
g605
sbsg3139
(ipoplib
BaseForm
p3519
(dp3520
g575
g3153
sg568
g3502
sg576
g605
sbsg599
(ipoplib
BaseFormStatic
p3521
(dp3522
g575
g18
sg568
g3502
sg576
g605
sbsg3140
(ipoplib
BaseForm
p3523
(dp3524
g575
g3159
sg568
g3502
sg576
g605
sbsg3138
(ipoplib
BaseForm
p3525
(dp3526
g575
g3162
sg568
g3502
sg576
g605
sbssg578
g3185
sg12
g2806
sg263
g3195
sg265
g606
sbsg3183
(ipoplib
BaseForm
p3527
(dp3528
g575
g3198
sg568
g3494
sg576
g605
sbssg578
g3437
sg12
g2806
sg263
g3496
sg265
g266
sba(ipoplib
MemVar
p3529
(dp3530
g566
I0
sg567
Vdouble
p3531
sg4
g3438
sg568
Nsg569
g3433
sg570
I0
sg571
(dp3532
g3438
(ipoplib
BaseForm
p3533
(dp3534
g575
g3531
sg568
g3529
sg576
g605
sbssg578
g3438
sg12
g2806
sg263
g3531
sg265
g266
sba(ipoplib
MemVar
p3535
(dp3536
g566
I1
sg567
VBelief_array
p3537
sg4
g3439
sg568
Nsg569
g3433
sg570
I0
sg571
(dp3538
g3244
(ipoplib
BaseForm
p3539
(dp3540
g575
g3256
sg568
g3535
sg576
g605
sbsg3245
(ipoplib
BaseForm
p3541
(dp3542
g575
g3258
sg568
g3535
sg576
g605
sbsg3246
(ipoplib
BaseForm
p3543
(dp3544
g575
g3260
sg568
g3535
sg576
g605
sbsg3249
(ipoplib
BaseForm
p3545
(dp3546
g575
g3262
sg568
g3535
sg576
g605
sbsg3250
(ipoplib
BaseForm
p3547
(dp3548
g575
g3264
sg568
g3535
sg576
g605
sbsg3247
(ipoplib
BaseForm
p3549
(dp3550
g575
g3266
sg568
g3535
sg576
g605
sbsg3251
(ipoplib
BaseForm
p3551
(dp3552
g575
g3268
sg568
g3535
sg576
g605
sbsg599
(ipoplib
BaseForm
p3553
(dp3554
g575
g822
sg568
g3535
sg576
g605
sbsg3252
(ipoplib
BaseForm
p3555
(dp3556
g575
g3270
sg568
g3535
sg576
g605
sbsg3248
(ipoplib
BaseForm
p3557
(dp3558
g575
g3272
sg568
g3535
sg576
g605
sbssg578
g3439
sg12
g2806
sg263
VBelief
p3559
sg265
g266
sba(ipoplib
MemVar
p3560
(dp3561
g566
I1
sg567
VOrder_array
p3562
sg4
g3440
sg568
Nsg569
g3433
sg570
I0
sg571
(dp3563
g3229
(ipoplib
BaseForm
p3564
(dp3565
g575
g3233
sg568
g3560
sg576
g605
sbsg599
(ipoplib
BaseForm
p3566
(dp3567
g575
g822
sg568
g3560
sg576
g605
sbsg3228
(ipoplib
BaseForm
p3568
(dp3569
g575
g3235
sg568
g3560
sg576
g605
sbsg3227
(ipoplib
BaseForm
p3570
(dp3571
g575
g3237
sg568
g3560
sg576
g605
sbsg3226
(ipoplib
BaseForm
p3572
(dp3573
g575
g3239
sg568
g3560
sg576
g605
sbssg578
g3440
sg12
g2806
sg263
VOrder
p3574
sg265
g266
sba(ipoplib
MemVar
p3575
(dp3576
g566
I1
sg567
VAsset_array
p3577
sg4
g3441
sg568
Nsg569
g3433
sg570
I0
sg571
(dp3578
g599
(ipoplib
BaseForm
p3579
(dp3580
g575
g822
sg568
g3575
sg576
g605
sbsg3298
(ipoplib
BaseForm
p3581
(dp3582
g575
g3304
sg568
g3575
sg576
g605
sbsg3300
(ipoplib
BaseForm
p3583
(dp3584
g575
g3306
sg568
g3575
sg576
g605
sbsg3299
(ipoplib
BaseForm
p3585
(dp3586
g575
g3308
sg568
g3575
sg576
g605
sbssg578
g3441
sg12
g2806
sg263
VAsset
p3587
sg265
g266
sba(ipoplib
MemVar
p3588
(dp3589
g566
I1
sg567
Vdouble_array
p3590
sg4
g3442
sg568
Nsg569
g3433
sg570
I0
sg571
(dp3591
g599
(ipoplib
BaseForm
p3592
(dp3593
g575
g822
sg568
g3588
sg576
g605
sbsg3442
(ipoplib
BaseForm
p3594
(dp3595
g575
Vdouble
p3596
sg568
g3588
sg576
g605
sbssg578
g3442
sg12
g2806
sg263
g3596
sg265
g266
sba(ipoplib
MemVar
p3597
(dp3598
g566
I1
sg567
Vdouble_array
p3599
sg4
g3443
sg568
Nsg569
g3433
sg570
I0
sg571
(dp3600
g599
(ipoplib
BaseForm
p3601
(dp3602
g575
g822
sg568
g3597
sg576
g605
sbsg3443
(ipoplib
BaseForm
p3603
(dp3604
g575
Vdouble
p3605
sg568
g3597
sg576
g605
sbssg578
g3443
sg12
g2806
sg263
g3605
sg265
g266
sba(ipoplib
MemVar
p3606
(dp3607
g566
I0
sg567
Vdouble
p3608
sg4
g3444
sg568
Nsg569
g3433
sg570
I0
sg571
(dp3609
g3444
(ipoplib
BaseForm
p3610
(dp3611
g575
g3608
sg568
g3606
sg576
g605
sbssg578
g3444
sg12
g2806
sg263
g3608
sg265
g266
sba(ipoplib
MemVar
p3612
(dp3613
g566
I0
sg567
Vdouble
p3614
sg4
g3445
sg568
Nsg569
g3433
sg570
I0
sg571
(dp3615
g3445
(ipoplib
BaseForm
p3616
(dp3617
g575
g3614
sg568
g3612
sg576
g605
sbssg578
g3445
sg12
g2806
sg263
g3614
sg265
g266
sba(ipoplib
MemVar
p3618
(dp3619
g566
I0
sg567
Vdouble
p3620
sg4
g3446
sg568
Nsg569
g3433
sg570
I0
sg571
(dp3621
g3446
(ipoplib
BaseForm
p3622
(dp3623
g575
g3620
sg568
g3618
sg576
g605
sbssg578
g3446
sg12
g2806
sg263
g3620
sg265
g266
sba(ipoplib
MemVar
p3624
(dp3625
g566
I0
sg567
Vdouble
p3626
sg4
g3447
sg568
Nsg569
g3433
sg570
I0
sg571
(dp3627
g3447
(ipoplib
BaseForm
p3628
(dp3629
g575
g3626
sg568
g3624
sg576
g605
sbssg578
g3447
sg12
g2806
sg263
g3626
sg265
g266
sba(ipoplib
MemVar
p3630
(dp3631
g566
I0
sg567
Vint
p3632
sg4
g3448
sg568
Nsg569
g3433
sg570
I0
sg571
(dp3633
g3448
(ipoplib
BaseForm
p3634
(dp3635
g575
g3632
sg568
g3630
sg576
g605
sbssg578
g3448
sg12
g2806
sg263
g3632
sg265
g266
sba(ipoplib
MemVar
p3636
(dp3637
g566
I0
sg567
Vint
p3638
sg4
g3449
sg568
Nsg569
g3433
sg570
I0
sg571
(dp3639
g3449
(ipoplib
BaseForm
p3640
(dp3641
g575
g3638
sg568
g3636
sg576
g605
sbssg578
g3449
sg12
g2806
sg263
g3638
sg265
g266
sba(ipoplib
MemVar
p3642
(dp3643
g566
I0
sg567
Vint
p3644
sg4
g3450
sg568
Nsg569
g3433
sg570
I0
sg571
(dp3645
g3450
(ipoplib
BaseForm
p3646
(dp3647
g575
g3644
sg568
g3642
sg576
g605
sbssg578
g3450
sg12
g2806
sg263
g3644
sg265
g266
sba(ipoplib
MemVar
p3648
(dp3649
g566
I0
sg567
Vdouble
p3650
sg4
g3451
sg568
Nsg569
g3433
sg570
I0
sg571
(dp3651
g3451
(ipoplib
BaseForm
p3652
(dp3653
g575
g3650
sg568
g3648
sg576
g605
sbssg578
g3451
sg12
g2806
sg263
g3650
sg265
g266
sba(ipoplib
MemVar
p3654
(dp3655
g566
I0
sg567
Vdouble
p3656
sg4
g3452
sg568
Nsg569
g3433
sg570
I0
sg571
(dp3657
g3452
(ipoplib
BaseForm
p3658
(dp3659
g575
g3656
sg568
g3654
sg576
g605
sbssg578
g3452
sg12
g2806
sg263
g3656
sg265
g266
sba(ipoplib
MemVar
p3660
(dp3661
g566
I0
sg567
Vdouble
p3662
sg4
g3453
sg568
Nsg569
g3433
sg570
I0
sg571
(dp3663
g3453
(ipoplib
BaseForm
p3664
(dp3665
g575
g3662
sg568
g3660
sg576
g605
sbssg578
g3453
sg12
g2806
sg263
g3662
sg265
g266
sba(ipoplib
MemVar
p3666
(dp3667
g566
I0
sg567
Vint
p3668
sg4
g3454
sg568
Nsg569
g3433
sg570
I0
sg571
(dp3669
g3454
(ipoplib
BaseForm
p3670
(dp3671
g575
g3668
sg568
g3666
sg576
g605
sbssg578
g3454
sg12
g2806
sg263
g3668
sg265
g266
sba(ipoplib
MemVar
p3672
(dp3673
g566
I0
sg567
Vdouble
p3674
sg4
g3455
sg568
Nsg569
g3433
sg570
I0
sg571
(dp3675
g3455
(ipoplib
BaseForm
p3676
(dp3677
g575
g3674
sg568
g3672
sg576
g605
sbssg578
g3455
sg12
g2806
sg263
g3674
sg265
g266
sbasg265
g266
sba(ipoplib
Agent
p3678
(dp3679
g557
(lp3680
Vid
p3681
aVassets
p3682
aVclearingmechanism
p3683
asg4
g1142
sg562
(lp3684
(ipoplib
MemVar
p3685
(dp3686
g566
I0
sg567
Vint
p3687
sg4
g3681
sg568
Nsg569
g3678
sg570
I0
sg571
(dp3688
g3681
(ipoplib
BaseForm
p3689
(dp3690
g575
g18
sg568
g3685
sg576
g605
sbssg578
g3681
sg12
g2806
sg263
g3687
sg265
g266
sba(ipoplib
MemVar
p3691
(dp3692
g566
I1
sg567
VAsset_array
p3693
sg4
g3682
sg568
Nsg569
g3678
sg570
I0
sg571
(dp3694
g599
(ipoplib
BaseForm
p3695
(dp3696
g575
g822
sg568
g3691
sg576
g605
sbsg3298
(ipoplib
BaseForm
p3697
(dp3698
g575
g3304
sg568
g3691
sg576
g605
sbsg3300
(ipoplib
BaseForm
p3699
(dp3700
g575
g3306
sg568
g3691
sg576
g605
sbsg3299
(ipoplib
BaseForm
p3701
(dp3702
g575
g3308
sg568
g3691
sg576
g605
sbssg578
g3682
sg12
g2806
sg263
VAsset
p3703
sg265
g266
sba(ipoplib
MemVar
p3704
(dp3705
g566
I0
sg567
VClearingMechanism
p3706
sg4
g3683
sg568
Nsg569
g3678
sg570
I0
sg571
(dp3707
g3317
(ipoplib
MemVar
p3708
(dp3709
g566
I1
sg567
g3321
sg4
g3317
sg568
g3704
sg569
g3678
sg570
I0
sg571
(dp3710
g3317
(ipoplib
BaseForm
p3711
(dp3712
g575
Vdouble
p3713
sg568
g3708
sg576
g605
sbsg599
(ipoplib
BaseForm
p3714
(dp3715
g575
g822
sg568
g3708
sg576
g605
sbssg578
g3317
sg12
g2806
sg263
g3713
sg265
g606
sbsg3316
(ipoplib
MemVar
p3716
(dp3717
g566
I1
sg567
g3323
sg4
g3316
sg568
g3704
sg569
g3678
sg570
I0
sg571
(dp3718
g3229
(ipoplib
BaseForm
p3719
(dp3720
g575
g3233
sg568
g3716
sg576
g605
sbsg599
(ipoplib
BaseForm
p3721
(dp3722
g575
g822
sg568
g3716
sg576
g605
sbsg3228
(ipoplib
BaseForm
p3723
(dp3724
g575
g3235
sg568
g3716
sg576
g605
sbsg3227
(ipoplib
BaseForm
p3725
(dp3726
g575
g3237
sg568
g3716
sg576
g605
sbsg3226
(ipoplib
BaseForm
p3727
(dp3728
g575
g3239
sg568
g3716
sg576
g605
sbssg578
g3316
sg12
g2806
sg263
VOrder
p3729
sg265
g606
sbsg3315
(ipoplib
MemVar
p3730
(dp3731
g566
I1
sg567
g3325
sg4
g3315
sg568
g3704
sg569
g3678
sg570
I0
sg571
(dp3732
g3229
(ipoplib
BaseForm
p3733
(dp3734
g575
g3233
sg568
g3730
sg576
g605
sbsg599
(ipoplib
BaseForm
p3735
(dp3736
g575
g822
sg568
g3730
sg576
g605
sbsg3228
(ipoplib
BaseForm
p3737
(dp3738
g575
g3235
sg568
g3730
sg576
g605
sbsg3227
(ipoplib
BaseForm
p3739
(dp3740
g575
g3237
sg568
g3730
sg576
g605
sbsg3226
(ipoplib
BaseForm
p3741
(dp3742
g575
g3239
sg568
g3730
sg576
g605
sbssg578
g3315
sg12
g2806
sg263
VOrder
p3743
sg265
g606
sbsg3313
(ipoplib
BaseForm
p3744
(dp3745
g575
g3327
sg568
g3704
sg576
g605
sbsg3314
(ipoplib
BaseForm
p3746
(dp3747
g575
g3329
sg568
g3704
sg576
g605
sbssg578
g3683
sg12
g2806
sg263
g3706
sg265
g266
sbasg265
g266
sba(ipoplib
Agent
p3748
(dp3749
g557
(lp3750
Vid
p3751
asg4
g1146
sg562
(lp3752
(ipoplib
MemVar
p3753
(dp3754
g566
I0
sg567
Vint
p3755
sg4
g3751
sg568
Nsg569
g3748
sg570
I0
sg571
(dp3756
g3751
(ipoplib
BaseForm
p3757
(dp3758
g575
g18
sg568
g3753
sg576
g605
sbssg578
g3751
sg12
g2806
sg263
g3755
sg265
g266
sbasg265
g266
sba(ipoplib
Agent
p3759
(dp3760
g557
(lp3761
Vid
p3762
aVearnings
p3763
aVearnings_payout
p3764
aVequity
p3765
aVcurrent_shares_outstanding
p3766
aVcurrent_dividend_per_share
p3767
aVstock
p3768
asg4
g1143
sg562
(lp3769
(ipoplib
MemVar
p3770
(dp3771
g566
I0
sg567
Vint
p3772
sg4
g3762
sg568
Nsg569
g3759
sg570
I0
sg571
(dp3773
g3762
(ipoplib
BaseForm
p3774
(dp3775
g575
g18
sg568
g3770
sg576
g605
sbssg578
g3762
sg12
g2806
sg263
g3772
sg265
g266
sba(ipoplib
MemVar
p3776
(dp3777
g566
I0
sg567
Vdouble
p3778
sg4
g3763
sg568
Nsg569
g3759
sg570
I0
sg571
(dp3779
g3763
(ipoplib
BaseForm
p3780
(dp3781
g575
g3778
sg568
g3776
sg576
g605
sbssg578
g3763
sg12
g2806
sg263
g3778
sg265
g266
sba(ipoplib
MemVar
p3782
(dp3783
g566
I0
sg567
Vdouble
p3784
sg4
g3764
sg568
Nsg569
g3759
sg570
I0
sg571
(dp3785
g3764
(ipoplib
BaseForm
p3786
(dp3787
g575
g3784
sg568
g3782
sg576
g605
sbssg578
g3764
sg12
g2806
sg263
g3784
sg265
g266
sba(ipoplib
MemVar
p3788
(dp3789
g566
I0
sg567
Vdouble
p3790
sg4
g3765
sg568
Nsg569
g3759
sg570
I0
sg571
(dp3791
g3765
(ipoplib
BaseForm
p3792
(dp3793
g575
g3790
sg568
g3788
sg576
g605
sbssg578
g3765
sg12
g2806
sg263
g3790
sg265
g266
sba(ipoplib
MemVar
p3794
(dp3795
g566
I0
sg567
Vdouble
p3796
sg4
g3766
sg568
Nsg569
g3759
sg570
I0
sg571
(dp3797
g3766
(ipoplib
BaseForm
p3798
(dp3799
g575
g3796
sg568
g3794
sg576
g605
sbssg578
g3766
sg12
g2806
sg263
g3796
sg265
g266
sba(ipoplib
MemVar
p3800
(dp3801
g566
I0
sg567
Vdouble
p3802
sg4
g3767
sg568
Nsg569
g3759
sg570
I0
sg571
(dp3803
g3767
(ipoplib
BaseForm
p3804
(dp3805
g575
g3802
sg568
g3800
sg576
g605
sbssg578
g3767
sg12
g2806
sg263
g3802
sg265
g266
sba(ipoplib
MemVar
p3806
(dp3807
g566
I0
sg567
VStock
p3808
sg4
g3768
sg568
Nsg569
g3759
sg570
I0
sg571
(dp3809
g3280
(ipoplib
MemVar
p3810
(dp3811
g566
I1
sg567
g3285
sg4
Vprices
p3812
sg568
g3806
sg569
g3759
sg570
V100
p3813
sg571
(dp3814
g3812
(ipoplib
BaseForm
p3815
(dp3816
g575
g3285
sg568
g3810
sg576
g605
sbsg599
(ipoplib
BaseFormStatic
p3817
(dp3818
g575
g18
sg568
g3810
sg576
g605
sbssg578
g3280
sg12
g2806
sg263
g3285
sg265
g606
sbsg3279
(ipoplib
BaseForm
p3819
(dp3820
g575
g3287
sg568
g3806
sg576
g605
sbsg3277
(ipoplib
BaseForm
p3821
(dp3822
g575
g3289
sg568
g3806
sg576
g605
sbsg3281
(ipoplib
MemVar
p3823
(dp3824
g566
I1
sg567
g3291
sg4
Vreturns
p3825
sg568
g3806
sg569
g3759
sg570
V100
p3826
sg571
(dp3827
g599
(ipoplib
BaseFormStatic
p3828
(dp3829
g575
g18
sg568
g3823
sg576
g605
sbsg3825
(ipoplib
BaseForm
p3830
(dp3831
g575
g3291
sg568
g3823
sg576
g605
sbssg578
g3281
sg12
g2806
sg263
g3291
sg265
g606
sbsg3278
(ipoplib
BaseForm
p3832
(dp3833
g575
g3293
sg568
g3806
sg576
g605
sbssg578
g3768
sg12
g2806
sg263
g3808
sg265
g266
sbasg265
g266
sbasg1121
(lp3834
(ipoplib
Constant
p3835
(dp3836
g1125
I5
sg4
Vnr_params
p3837
sg1127
Vint
p3838
sg265
V10, Number of parameters in a portfolio rule.
p3839
sba(ipoplib
Constant
p3840
(dp3841
g1125
I0
sg4
Vprint_debug
p3842
sg1127
Vint
p3843
sg265
V0 or 1, Boolean for debugging print statements.
p3844
sba(ipoplib
Constant
p3845
(dp3846
g1125
I0
sg4
Vprint_log
p3847
sg1127
Vint
p3848
sg265
V0 or 1, A flag to print logging output to terminal or to file.
p3849
sbasbsb.